L251 LINKER/LOCATER V4.66.93.0                                                          06/19/2025  15:56:37  PAGE 1


L251 LINKER/LOCATER V4.66.93.0, INVOKED BY:
E:\KUST-TRAVEL\KEIL_V5\C251\BIN\L251.EXE .\Out_File\board.obj, .\Out_File\common.obj, .\Out_File\START251.obj, .\Out_Fil
>> e\zf_adc.obj, .\Out_File\zf_delay.obj, .\Out_File\zf_eeprom.obj, .\Out_File\zf_gpio.obj, .\Out_File\zf_nvic.obj, .\Ou
>> t_File\zf_pwm.obj, .\Out_File\zf_spi.obj, .\Out_File\zf_tim.obj, .\Out_File\zf_uart.obj, .\Out_File\zf_fifo.obj, .\Ou
>> t_File\zf_function.obj, .\Out_File\zf_iic.obj, .\Out_File\SEEKFREE_18TFT.obj, .\Out_File\SEEKFREE_BLE6A20.obj, ..\..\
>> Libraries\seekfree_peripheral\SEEKFREE_CONFIG.LIB, .\Out_File\SEEKFREE_DL1B.obj, .\Out_File\SEEKFREE_FONT.obj, .\Out_
>> File\SEEKFREE_ICM20602.obj, .\Out_File\SEEKFREE_IMU660RA.obj, .\Out_File\SEEKFREE_IMU963RA.obj, .\Out_File\SEEKFREE_I
>> PS114_SPI.obj, .\Out_File\SEEKFREE_OLED.obj, .\Out_File\SEEKFREE_PRINTF.obj, .\Out_File\SEEKFREE_TSL1401.obj, .\Out_F
>> ile\SEEKFREE_WIRELESS.obj, .\Out_File\SEEKFREE_GPS_TAU1201.obj, .\Out_File\SEEKFREE_IPS200_SPI.obj, .\Out_File\SEEKFR
>> EE_MPU6050.obj, .\Out_File\isr.obj, .\Out_File\main.obj, .\Out_File\Control.obj, .\Out_File\Key.obj, .\Out_File\seekf
>> ree_assistant.obj, .\Out_File\seekfree_assistant_inface.obj TO .\Out_File\Trigger PRINT (.\Out_File\Trigger.map) CASE
>>  DISABLEWARNING (15, 16, 57) REMOVEUNUSED CLASSES (EDATA (0X0-0XFFF), HDATA (0X0-0XFFF))


CPU MODE:     251 SOURCE MODE
INTR FRAME:   2 BYTES SAVED ON INTERRUPT
MEMORY MODEL: LARGE WITH DOUBLE PRECISION FLOATING POINT ARITHMETIC


INPUT MODULES INCLUDED:
  .\Out_File\board.obj (board)
         COMMENT TYPE 0: C251 V5.60.0
  .\Out_File\common.obj (common)
         COMMENT TYPE 0: C251 V5.60.0
  .\Out_File\START251.obj (?C_START)
         COMMENT TYPE 0: A251 V4.69.13.0
  .\Out_File\zf_adc.obj (zf_adc)
         COMMENT TYPE 0: C251 V5.60.0
  .\Out_File\zf_delay.obj (zf_delay)
         COMMENT TYPE 0: C251 V5.60.0
  .\Out_File\zf_eeprom.obj (zf_eeprom)
         COMMENT TYPE 0: C251 V5.60.0
  .\Out_File\zf_gpio.obj (zf_gpio)
         COMMENT TYPE 0: C251 V5.60.0
  .\Out_File\zf_nvic.obj (zf_nvic)
         COMMENT TYPE 0: C251 V5.60.0
  .\Out_File\zf_pwm.obj (zf_pwm)
         COMMENT TYPE 0: C251 V5.60.0
  .\Out_File\zf_spi.obj (zf_spi)
         COMMENT TYPE 0: C251 V5.60.0
  .\Out_File\zf_tim.obj (zf_tim)
         COMMENT TYPE 0: C251 V5.60.0
  .\Out_File\zf_uart.obj (zf_uart)
         COMMENT TYPE 0: C251 V5.60.0
  .\Out_File\zf_fifo.obj (zf_fifo)
         COMMENT TYPE 0: C251 V5.60.0
  .\Out_File\zf_function.obj (zf_function)
         COMMENT TYPE 0: C251 V5.60.0
  .\Out_File\zf_iic.obj (zf_iic)
         COMMENT TYPE 0: C251 V5.60.0
  .\Out_File\SEEKFREE_18TFT.obj (SEEKFREE_18TFT)
         COMMENT TYPE 0: C251 V5.60.0
  .\Out_File\SEEKFREE_BLE6A20.obj (SEEKFREE_BLE6A20)
         COMMENT TYPE 0: C251 V5.60.0
  .\Out_File\SEEKFREE_DL1B.obj (SEEKFREE_DL1B)
         COMMENT TYPE 0: C251 V5.60.0
  .\Out_File\SEEKFREE_FONT.obj (SEEKFREE_FONT)
         COMMENT TYPE 0: C251 V5.60.0
  .\Out_File\SEEKFREE_ICM20602.obj (SEEKFREE_ICM20602)
         COMMENT TYPE 0: C251 V5.60.0
  .\Out_File\SEEKFREE_IMU660RA.obj (SEEKFREE_IMU660RA)
         COMMENT TYPE 0: C251 V5.60.0
  .\Out_File\SEEKFREE_IMU963RA.obj (SEEKFREE_IMU963RA)
         COMMENT TYPE 0: C251 V5.60.0
  .\Out_File\SEEKFREE_IPS114_SPI.obj (SEEKFREE_IPS114_SPI)
         COMMENT TYPE 0: C251 V5.60.0
L251 LINKER/LOCATER V4.66.93.0                                                        06/19/2025  15:56:37  PAGE 2


  .\Out_File\SEEKFREE_OLED.obj (SEEKFREE_OLED)
         COMMENT TYPE 0: C251 V5.60.0
  .\Out_File\SEEKFREE_PRINTF.obj (SEEKFREE_PRINTF)
         COMMENT TYPE 0: C251 V5.60.0
  .\Out_File\SEEKFREE_TSL1401.obj (SEEKFREE_TSL1401)
         COMMENT TYPE 0: C251 V5.60.0
  .\Out_File\SEEKFREE_WIRELESS.obj (SEEKFREE_WIRELESS)
         COMMENT TYPE 0: C251 V5.60.0
  .\Out_File\SEEKFREE_GPS_TAU1201.obj (SEEKFREE_GPS_TAU1201)
         COMMENT TYPE 0: C251 V5.60.0
  .\Out_File\SEEKFREE_IPS200_SPI.obj (SEEKFREE_IPS200_SPI)
         COMMENT TYPE 0: C251 V5.60.0
  .\Out_File\SEEKFREE_MPU6050.obj (SEEKFREE_MPU6050)
         COMMENT TYPE 0: C251 V5.60.0
  .\Out_File\isr.obj (isr)
         COMMENT TYPE 0: C251 V5.60.0
  .\Out_File\main.obj (main)
         COMMENT TYPE 0: C251 V5.60.0
  .\Out_File\Control.obj (Control)
         COMMENT TYPE 0: C251 V5.60.0
  .\Out_File\Key.obj (Key)
         COMMENT TYPE 0: C251 V5.60.0
  .\Out_File\seekfree_assistant.obj (seekfree_assistant)
         COMMENT TYPE 0: C251 V5.60.0
  .\Out_File\seekfree_assistant_inface.obj (seekfree_assistant_inface)
         COMMENT TYPE 0: C251 V5.60.0
  ..\..\Libraries\seekfree_peripheral\SEEKFREE_CONFIG.LIB (SEEKFREE_CONFIG)
         COMMENT TYPE 0: C251 V5.60.0
  E:\KUST-TRAVEL\KEIL_V5\C251\LIB\C2SDPL.LIB (?C?DPADD)
         COMMENT TYPE 0: A251 V4.69.6.0
  E:\KUST-TRAVEL\KEIL_V5\C251\LIB\C2SDPL.LIB (?C?DPMUL)
         COMMENT TYPE 0: A251 V4.69.6.0
  E:\KUST-TRAVEL\KEIL_V5\C251\LIB\C2SDPL.LIB (?C?DPDIV)
         COMMENT TYPE 0: A251 V4.69.6.0
  E:\KUST-TRAVEL\KEIL_V5\C251\LIB\C2SDPL.LIB (?C?DPCMP)
         COMMENT TYPE 0: A251 V4.69.6.0
  E:\KUST-TRAVEL\KEIL_V5\C251\LIB\C2SDPL.LIB (?C?DPNEG)
         COMMENT TYPE 0: A251 V4.69.6.0
  E:\KUST-TRAVEL\KEIL_V5\C251\LIB\C2SDPL.LIB (?C?DCAST)
         COMMENT TYPE 0: A251 V4.69.6.0
  E:\KUST-TRAVEL\KEIL_V5\C251\LIB\C2SDPL.LIB (?C?CASTD)
         COMMENT TYPE 0: A251 V4.69.6.0
  E:\KUST-TRAVEL\KEIL_V5\C251\LIB\C2SDPL.LIB (?C?DCASTF)
         COMMENT TYPE 0: A251 V4.69.6.0
  E:\KUST-TRAVEL\KEIL_V5\C251\LIB\C2SDPL.LIB (?C?FCASTD)
         COMMENT TYPE 0: A251 V4.69.6.0
  E:\KUST-TRAVEL\KEIL_V5\C251\LIB\C2SDPL.LIB (PRINTF)
         COMMENT TYPE 0: A251 V4.69.6.0
  E:\KUST-TRAVEL\KEIL_V5\C251\LIB\C2SDPL.LIB (SQRT?_)
         COMMENT TYPE 0: A251 V4.69.6.0
  E:\KUST-TRAVEL\KEIL_V5\C251\LIB\C2SDPL.LIB (pow)
         COMMENT TYPE 0: C251 V5.58.7
  E:\KUST-TRAVEL\KEIL_V5\C251\LIB\C2SDPL.LIB (SIN?_)
         COMMENT TYPE 0: A251 V4.69.6.0
  E:\KUST-TRAVEL\KEIL_V5\C251\LIB\C2SDPL.LIB (ATAN?_)
         COMMENT TYPE 0: A251 V4.69.6.0
  E:\KUST-TRAVEL\KEIL_V5\C251\LIB\C2SDPL.LIB (ASIN?_)
         COMMENT TYPE 0: A251 V4.69.6.0
  E:\KUST-TRAVEL\KEIL_V5\C251\LIB\C2SDPL.LIB (?C?DPGETOPN)
         COMMENT TYPE 0: A251 V4.69.6.0
  E:\KUST-TRAVEL\KEIL_V5\C251\LIB\C2SDPL.LIB (_CHKDOUBLE_?_)
         COMMENT TYPE 0: A251 V4.69.6.0
  E:\KUST-TRAVEL\KEIL_V5\C251\LIB\C2SDPL.LIB (?C?PRNFMT)
         COMMENT TYPE 0: A251 V4.69.6.0
  E:\KUST-TRAVEL\KEIL_V5\C251\LIB\C2SDPL.LIB (?C?DPSERIES)
L251 LINKER/LOCATER V4.66.93.0                                                        06/19/2025  15:56:37  PAGE 3


         COMMENT TYPE 0: A251 V4.69.6.0
  E:\KUST-TRAVEL\KEIL_V5\C251\LIB\C2SDPL.LIB (EXP?_)
         COMMENT TYPE 0: A251 V4.69.6.0
  E:\KUST-TRAVEL\KEIL_V5\C251\LIB\C2SDPL.LIB (LOG?_)
         COMMENT TYPE 0: A251 V4.69.6.0
  E:\KUST-TRAVEL\KEIL_V5\C251\LIB\C2SDPL.LIB (?C?DPCONVERT)
         COMMENT TYPE 0: A251 V4.69.6.0
  E:\KUST-TRAVEL\KEIL_V5\C251\LIB\C2SDPL.LIB (?C?DTNPWR)
         COMMENT TYPE 0: A251 V4.69.6.0
  E:\KUST-TRAVEL\KEIL_V5\C251\LIB\C2SFPL.LIB (?C?FPGETOPN)
         COMMENT TYPE 0: A251 V4.69.6.0
  E:\KUST-TRAVEL\KEIL_V5\C251\LIB\C2SFPL.LIB (?C?FPADD)
         COMMENT TYPE 0: A251 V4.69.6.0
  E:\KUST-TRAVEL\KEIL_V5\C251\LIB\C2SFPL.LIB (?C?FPMUL)
         COMMENT TYPE 0: A251 V4.69.6.0
  E:\KUST-TRAVEL\KEIL_V5\C251\LIB\C2SFPL.LIB (?C?FPDIV)
         COMMENT TYPE 0: A251 V4.69.6.0
  E:\KUST-TRAVEL\KEIL_V5\C251\LIB\C2SFPL.LIB (?C?FPCMP)
         COMMENT TYPE 0: A251 V4.69.6.0
  E:\KUST-TRAVEL\KEIL_V5\C251\LIB\C2SFPL.LIB (?C?FPNEG)
         COMMENT TYPE 0: A251 V4.69.6.0
  E:\KUST-TRAVEL\KEIL_V5\C251\LIB\C2SFPL.LIB (?C?FCAST)
         COMMENT TYPE 0: A251 V4.69.6.0
  E:\KUST-TRAVEL\KEIL_V5\C251\LIB\C2SFPL.LIB (?C?CASTF)
         COMMENT TYPE 0: A251 V4.69.6.0
  E:\KUST-TRAVEL\KEIL_V5\C251\LIB\C2SL.LIB (?C?INITHDATA)
         COMMENT TYPE 0: A251 V4.69.6.0
  E:\KUST-TRAVEL\KEIL_V5\C251\LIB\C2SL.LIB (?C?SIDIV)
         COMMENT TYPE 0: A251 V4.69.6.0
  E:\KUST-TRAVEL\KEIL_V5\C251\LIB\C2SL.LIB (?C?LIMUL)
         COMMENT TYPE 0: A251 V4.69.6.0
  E:\KUST-TRAVEL\KEIL_V5\C251\LIB\C2SL.LIB (?C?ULDIV)
         COMMENT TYPE 0: A251 V4.69.6.0
  E:\KUST-TRAVEL\KEIL_V5\C251\LIB\C2SL.LIB (?C?SLDIV)
         COMMENT TYPE 0: A251 V4.69.6.0
  E:\KUST-TRAVEL\KEIL_V5\C251\LIB\C2SL.LIB (?C?BMOVEPP)
         COMMENT TYPE 0: A251 V4.69.6.0
  E:\KUST-TRAVEL\KEIL_V5\C251\LIB\C2SL.LIB (STRNCMP)
         COMMENT TYPE 0: C251 V5.58.7
  E:\KUST-TRAVEL\KEIL_V5\C251\LIB\C2SL.LIB (STRNCPY)
         COMMENT TYPE 0: C251 V5.58.7
  E:\KUST-TRAVEL\KEIL_V5\C251\LIB\C2SL.LIB (STRLEN)
         COMMENT TYPE 0: C251 V5.58.7
  E:\KUST-TRAVEL\KEIL_V5\C251\LIB\C2SL.LIB (STRCHR)
         COMMENT TYPE 0: C251 V5.58.7
  E:\KUST-TRAVEL\KEIL_V5\C251\LIB\C2SL.LIB (memcpy)
         COMMENT TYPE 0: C251 V5.58.7
  E:\KUST-TRAVEL\KEIL_V5\C251\LIB\C2SL.LIB (memset)
         COMMENT TYPE 0: C251 V5.58.7
  E:\KUST-TRAVEL\KEIL_V5\C251\LIB\C2SL.LIB (?C?INITHDATA_END)
         COMMENT TYPE 0: A251 V4.69.6.0


ACTIVE MEMORY CLASSES OF MODULE:  .\Out_File\Trigger (board)

BASE        START       END         USED      MEMORY CLASS
==========================================================
000000H     000000H     000FFFH     000C6EH   EDATA
000000H     000000H     000FFFH               HDATA
FF0000H     FF0000H     FFFFFFH     00A8B8H   CODE
010000H     010000H     01FFFFH     000F75H   XDATA
000000H     FF0000H     FFFFFFH     0005FDH   HCONST
000020H.0   000020H.0   00002FH.7   000000H.4 BIT
000000H     000000H     00007FH     00000AH   DATA
FF0000H     FF0000H     FFFFFFH     000004H   CONST
L251 LINKER/LOCATER V4.66.93.0                                                        06/19/2025  15:56:37  PAGE 4




MEMORY MAP OF MODULE:  .\Out_File\Trigger (board)


START     STOP      LENGTH    ALIGN  RELOC    MEMORY CLASS   SEGMENT NAME
=========================================================================
000000H   000007H   000008H   ---    AT..     DATA           "REG BANK 0"
000008H   000009H   000002H   BYTE   UNIT     DATA           ?DT?CONTROL
00000AH   000010H   000007H   BYTE   UNIT     EDATA          ?ED?IMU660RA_GET_ACC?SEEKFREE_IMU660RA
000011H   000017H   000007H   BYTE   UNIT     EDATA          ?ED?IMU660RA_GET_GYRO?SEEKFREE_IMU660RA
000018H   00001EH   000007H   BYTE   UNIT     EDATA          ?ED?IMU963RA_GET_MAG?SEEKFREE_IMU963RA
00001FH   00001FH   000001H   BYTE   UNIT     EDATA          ?ED?LCD_CLEAR?SEEKFREE_18TFT
000020H.0 000020H.2 000000H.3 BIT    UNIT     BIT            ?BI?CONTROL
000020H.3 000020H.3 000000H.1 BIT    UNIT     BIT            ?BI?ADC_ONCE?ZF_ADC
000020H.4 000020H   000000H.4 ---    ---      **GAP**
000021H   000221H   000201H   BYTE   UNIT     EDATA          ?ED?SEEKFREE_TSL1401
000222H   0002ADH   00008CH   BYTE   UNIT     EDATA          ?ED?DL1B_INIT?SEEKFREE_DL1B
0002AEH   000304H   000057H   BYTE   UNIT     EDATA          ?ED?SEEKFREE_BLE6A20
000305H   00035BH   000057H   BYTE   UNIT     EDATA          ?ED?SEEKFREE_WIRELESS
00035CH   00037FH   000024H   BYTE   UNIT     EDATA          ?ED?LCD_SHOWFLOAT?SEEKFREE_18TFT
000380H   0003A3H   000024H   BYTE   UNIT     EDATA          ?ED?IPS114_SHOWFLOAT?SEEKFREE_IPS114_SPI
0003A4H   0003C6H   000023H   BYTE   UNIT     EDATA          ?ED?LCD_SHOWINT32?SEEKFREE_18TFT
0003C7H   0003E9H   000023H   BYTE   UNIT     EDATA          ?ED?IPS114_SHOWINT32?SEEKFREE_IPS114_SPI
0003EAH   0003EFH   000006H   BYTE   UNIT     EDATA          ?ED?LCD_SHOWINT16?SEEKFREE_18TFT
0003F0H   0003F5H   000006H   BYTE   UNIT     EDATA          ?ED?LCD_SHOWUINT16?SEEKFREE_18TFT
0003F6H   0003FBH   000006H   BYTE   UNIT     EDATA          ?ED?ICM20602_GET_ACC?SEEKFREE_ICM20602
0003FCH   000401H   000006H   BYTE   UNIT     EDATA          ?ED?ICM20602_GET_GYRO?SEEKFREE_ICM20602
000402H   000407H   000006H   BYTE   UNIT     EDATA          ?ED?IMU963RA_GET_ACC?SEEKFREE_IMU963RA
000408H   00040DH   000006H   BYTE   UNIT     EDATA          ?ED?IMU963RA_GET_GYRO?SEEKFREE_IMU963RA
00040EH   000413H   000006H   BYTE   UNIT     EDATA          ?ED?IPS114_SHOWINT16?SEEKFREE_IPS114_SPI
000414H   000419H   000006H   BYTE   UNIT     EDATA          ?ED?IPS114_SHOWUINT16?SEEKFREE_IPS114_SPI
00041AH   00041DH   000004H   BYTE   UNIT     EDATA          ?ED?LCD_SHOWINT8?SEEKFREE_18TFT
00041EH   000421H   000004H   BYTE   UNIT     EDATA          ?ED?LCD_SHOWUINT8?SEEKFREE_18TFT
000422H   000425H   000004H   BYTE   UNIT     EDATA          ?ED?BLE6A20_READ_BUFF?SEEKFREE_BLE6A20
000426H   000429H   000004H   BYTE   UNIT     EDATA          ?ED?ICM20602_SIMSPI_R_REG_BYTES?SEEKFREE_ICM20602
00042AH   00042DH   000004H   BYTE   UNIT     EDATA          ?ED?IMU963RA_ACC_GYRO_SELF_CHECK?SEEKFREE_IMU963RA
00042EH   000431H   000004H   BYTE   UNIT     EDATA          ?ED?IMU963RA_MAG_SELF_CHECK?SEEKFREE_IMU963RA
000432H   000435H   000004H   BYTE   UNIT     EDATA          ?ED?IPS114_SHOWINT8?SEEKFREE_IPS114_SPI
000436H   000439H   000004H   BYTE   UNIT     EDATA          ?ED?IPS114_SHOWUINT8?SEEKFREE_IPS114_SPI
00043AH   00043DH   000004H   BYTE   UNIT     EDATA          ?ED?WIRELESS_UART_READ_BUFF?SEEKFREE_WIRELESS
00043EH   000440H   000003H   BYTE   UNIT     EDATA          ?ED?DL1B_GET_DISTANCE?SEEKFREE_DL1B
000441H   000443H   000003H   BYTE   UNIT     EDATA          ?ED?ICM20602_SELF_CHECK?SEEKFREE_ICM20602
000444H   000446H   000003H   BYTE   UNIT     EDATA          ?ED?ICM20602_INIT?SEEKFREE_ICM20602
000447H   000449H   000003H   BYTE   UNIT     EDATA          ?ED?IMU660RA_SELF_CHECK?SEEKFREE_IMU660RA
00044AH   00044CH   000003H   BYTE   UNIT     EDATA          ?ED?IMU963RA_WRITE_MAG_REGISTER?SEEKFREE_IMU963RA
00044DH   00044EH   000002H   BYTE   UNIT     EDATA          ?ED?LCD_WRITEDATA_16BIT?SEEKFREE_18TFT
00044FH   000450H   000002H   BYTE   UNIT     EDATA          ?ED?LCD_SHOWCHAR?SEEKFREE_18TFT
000451H   000452H   000002H   BYTE   UNIT     EDATA          ?ED?LCD_SHOWSTR?SEEKFREE_18TFT
000453H   000454H   000002H   BYTE   UNIT     EDATA          ?ED?DL1B_SIMIIC_DELAY?SEEKFREE_DL1B
000455H   000456H   000002H   BYTE   UNIT     EDATA          ?ED?DL1B_READ_CH?SEEKFREE_DL1B
000457H   000458H   000002H   BYTE   UNIT     EDATA          ?ED?IMU660RA_READ_REGISTER?SEEKFREE_IMU660RA
000459H   00045AH   000002H   BYTE   UNIT     EDATA          ?ED?IMU963RA_READ_MAG_REGISTER?SEEKFREE_IMU963RA
00045BH   00045CH   000002H   BYTE   UNIT     EDATA          ?ED?IPS114_WRITEDATA_16BIT?SEEKFREE_IPS114_SPI
00045DH   00045EH   000002H   BYTE   UNIT     EDATA          ?ED?IPS114_CLEAR?SEEKFREE_IPS114_SPI
00045FH   000460H   000002H   BYTE   UNIT     EDATA          ?ED?IPS114_SHOWCHAR?SEEKFREE_IPS114_SPI
000461H   000462H   000002H   BYTE   UNIT     EDATA          ?ED?IPS114_SHOWSTR?SEEKFREE_IPS114_SPI
000463H   000464H   000002H   BYTE   UNIT     EDATA          ?ED?OLED_HEXASCII?SEEKFREE_OLED
000465H   000466H   000002H   BYTE   UNIT     EDATA          ?ED?OLED_DIS_BMP?SEEKFREE_OLED
000467H   000468H   000002H   BYTE   UNIT     EDATA          ?ED?OLED_HEXASCII_SPI?SEEKFREE_OLED
000469H   00046AH   000002H   BYTE   UNIT     EDATA          ?ED?OLED_DIS_BMP_SPI?SEEKFREE_OLED
00046BH   00046BH   000001H   BYTE   UNIT     EDATA          ?ED?DL1B_SEND_CH?SEEKFREE_DL1B
00046CH   00046CH   000001H   BYTE   UNIT     EDATA          ?ED?ICM20602_SIMSPI_WR_BYTE?SEEKFREE_ICM20602
00046DH   00046DH   000001H   BYTE   UNIT     EDATA          ?ED?ICM20602_READ_REGISTER?SEEKFREE_ICM20602
00046EH   00046EH   000001H   BYTE   UNIT     EDATA          ?ED?IMU660RA_SIMSPI_WR_BYTE?SEEKFREE_IMU660RA
L251 LINKER/LOCATER V4.66.93.0                                                        06/19/2025  15:56:37  PAGE 5


00046FH   00046FH   000001H   BYTE   UNIT     EDATA          ?ED?IMU660RA_INIT?SEEKFREE_IMU660RA
000470H   000470H   000001H   BYTE   UNIT     EDATA          ?ED?IMU963RA_SIMSPI_WR_BYTE?SEEKFREE_IMU963RA
000471H   000471H   000001H   BYTE   UNIT     EDATA          ?ED?IMU963RA_READ_ACC_GYRO_REGISTER?SEEKFREE_IMU963RA
000472H   000472H   000001H   BYTE   UNIT     EDATA          ?ED?IMU963RA_INIT?SEEKFREE_IMU963RA
000473H   000473H   000001H   BYTE   UNIT     EDATA          ?ED?OLED_WRDAT?SEEKFREE_OLED
000474H   000474H   000001H   BYTE   UNIT     EDATA          ?ED?OLED_WRCMD?SEEKFREE_OLED
000475H   000475H   000001H   BYTE   UNIT     EDATA          ?ED?OLED_FILL?SEEKFREE_OLED
000476H   000476H   000001H   BYTE   UNIT     EDATA          ?ED?OLED_P6X8STR?SEEKFREE_OLED
000477H   000477H   000001H   BYTE   UNIT     EDATA          ?ED?OLED_FILL_SPI?SEEKFREE_OLED
000478H   000478H   000001H   BYTE   UNIT     EDATA          ?ED?OLED_P6X8STR_SPI?SEEKFREE_OLED
000479H   000C78H   000800H   BYTE   UNIT     EDATA          ?STACK
000C79H   00FFFFH   00F387H   ---    ---      **GAP**
010000H   0101CFH   0001D0H   BYTE   INSEG    XDATA          ?XD?SEEKFREE_GPS_TAU1201
0101D0H   01033BH   00016CH   BYTE   INSEG    XDATA          ?XD?CONTROL
01033CH   010478H   00013DH   BYTE   INSEG    XDATA          ?XD?SEEKFREE_ASSISTANT
010479H   01050DH   000095H   BYTE   UNIT     XDATA          ?XD?GPS_INIT?SEEKFREE_GPS_TAU1201
01050EH   01059AH   00008DH   BYTE   UNIT     XDATA          ?XD?SEEKFREE_ASSISTANT_DATA_ANALYSIS?SEEKFREE_ASSISTANT
01059BH   0105FDH   000063H   BYTE   UNIT     XDATA          ?XD?ZF_SPRINTF?SEEKFREE_PRINTF
0105FEH   01065DH   000060H   BYTE   UNIT     XDATA          ?XD?GET_TWO_POINTS_DISTANCE?SEEKFREE_GPS_TAU1201
01065EH   0106A0H   000043H   BYTE   UNIT     XDATA          ?XD?GPS_GNRMC_PARSE?SEEKFREE_GPS_TAU1201
0106A1H   0106DCH   00003CH   BYTE   UNIT     XDATA          ?XD?FUNC_DOUBLE_TO_STR?ZF_FUNCTION
0106DDH   010714H   000038H   BYTE   UNIT     XDATA          ?XD?GET_TWO_POINTS_AZIMUTH?SEEKFREE_GPS_TAU1201
010715H   010748H   000034H   BYTE   UNIT     XDATA          ?XD?OLED_PRINTF_FLOAT?SEEKFREE_OLED
010749H   01077CH   000034H   BYTE   UNIT     XDATA          ?XD?OLED_PRINTF_FLOAT_SPI?SEEKFREE_OLED
01077DH   0107ABH   00002FH   BYTE   UNIT     XDATA          ?XD?IPS200_SHOW_FLOAT?SEEKFREE_IPS200_SPI
0107ACH   0107D7H   00002CH   BYTE   UNIT     XDATA          ?XD?OLED_PRINTF_INT32?SEEKFREE_OLED
0107D8H   010803H   00002CH   BYTE   UNIT     XDATA          ?XD?OLED_PRINTF_INT32_SPI?SEEKFREE_OLED
010804H   01082DH   00002AH   BYTE   UNIT     XDATA          ?XD?FUNC_FLOAT_TO_STR?ZF_FUNCTION
01082EH   010857H   00002AH   BYTE   UNIT     XDATA          ?XD?SEEKFREE_ASSISTANT_OSCILLOSCOPE_SEND?SEEKFREE_ASSISTAN
                                                             -T
010858H   01087FH   000028H   BYTE   UNIT     XDATA          _XDATA_GROUP_
010880H   0108A4H   000025H   BYTE   UNIT     XDATA          ?XD?FUNC_HEX_TO_STR?ZF_FUNCTION
0108A5H   0108C4H   000020H   BYTE   UNIT     XDATA          ?XD?IPS200_SHOW_WAVE?SEEKFREE_IPS200_SPI
0108C5H   0108E4H   000020H   BYTE   UNIT     XDATA          ?XD?PID_REALIZE?CONTROL
0108E5H   010903H   00001FH   BYTE   UNIT     XDATA          ?XD?SEEKFREE_ASSISTANT_CAMERA_BOUNDARY_CONFIG?SEEKFREE_ASS
                                                             -ISTANT
010904H   010920H   00001DH   BYTE   UNIT     XDATA          ?XD?FUNC_INT_TO_STR?ZF_FUNCTION
010921H   01093DH   00001DH   BYTE   UNIT     XDATA          ?XD?FUNC_STR_TO_DOUBLE?ZF_FUNCTION
01093EH   01095AH   00001DH   BYTE   UNIT     XDATA          ?XD?IPS200_SHOW_INT?SEEKFREE_IPS200_SPI
01095BH   010977H   00001DH   BYTE   UNIT     XDATA          ?XD?IPS200_SHOW_UINT?SEEKFREE_IPS200_SPI
010978H   010993H   00001CH   BYTE   UNIT     XDATA          ?XD?GET_DOUBLE_NUMBER?SEEKFREE_GPS_TAU1201
010994H   0109ACH   000019H   BYTE   UNIT     XDATA          ?XD?FUNC_UINT_TO_STR?ZF_FUNCTION
0109ADH   0109C5H   000019H   BYTE   UNIT     XDATA          ?XD?IPS200_SHOW_CHINESE?SEEKFREE_IPS200_SPI
0109C6H   0109DDH   000018H   BYTE   UNIT     XDATA          ?XD?FIFO_READ_BUFFER?ZF_FIFO
0109DEH   0109F5H   000018H   BYTE   UNIT     XDATA          ?XD?FIFO_READ_TAIL_BUFFER?ZF_FIFO
0109F6H   010A0DH   000018H   BYTE   UNIT     XDATA          ?XD?GET_FLOAT_NUMBER?SEEKFREE_GPS_TAU1201
010A0EH   010A25H   000018H   BYTE   UNIT     XDATA          ?XD?RANGE_PROTECT?CONTROL
010A26H   010A3DH   000018H   BYTE   UNIT     XDATA          ?XD?LOC_PID?CONTROL
010A3EH   010A53H   000016H   BYTE   UNIT     XDATA          ?XD?IPS200_DRAW_LINE?SEEKFREE_IPS200_SPI
010A54H   010A67H   000014H   BYTE   UNIT     XDATA          ?XD?PWM_INIT?ZF_PWM
010A68H   010A7BH   000014H   BYTE   UNIT     XDATA          ?XD?PWM_FREQ?ZF_PWM
010A7CH   010A8FH   000014H   BYTE   UNIT     XDATA          ?XD?NUMBER_CONVERSION_ASCII?SEEKFREE_PRINTF
010A90H   010AA1H   000012H   BYTE   UNIT     XDATA          ?XD?FIFO_WRITE_BUFFER?ZF_FIFO
010AA2H   010AB3H   000012H   BYTE   INSEG    XDATA          ?XD?SEEKFREE_IMU963RA
010AB4H   010AC4H   000011H   BYTE   UNIT     XDATA          ?XD?FUNC_STR_TO_FLOAT?ZF_FUNCTION
010AC5H   010AD5H   000011H   BYTE   UNIT     XDATA          ?XD?GET_INT_NUMBER?SEEKFREE_GPS_TAU1201
010AD6H   010AE5H   000010H   BYTE   UNIT     XDATA          ?XD?ADC_MEDIAN_AVERAGE?ZF_ADC
010AE6H   010AF5H   000010H   BYTE   UNIT     XDATA          ?XD?FIFO_INIT?ZF_FIFO
010AF6H   010B05H   000010H   BYTE   UNIT     XDATA          ?XD?LCD_SHOWFLOAT?SEEKFREE_18TFT
010B06H   010B15H   000010H   BYTE   UNIT     XDATA          ?XD?DL1B_IIC_TRANSFER_8BIT_ARRAY?SEEKFREE_DL1B
010B16H   010B25H   000010H   BYTE   UNIT     XDATA          ?XD?IPS114_SHOWFLOAT?SEEKFREE_IPS114_SPI
010B26H   010B35H   000010H   BYTE   UNIT     XDATA          ?XD?OLED_DIS_BMP?SEEKFREE_OLED
010B36H   010B45H   000010H   BYTE   UNIT     XDATA          ?XD?OLED_DIS_BMP_SPI?SEEKFREE_OLED
010B46H   010B54H   00000FH   BYTE   UNIT     XDATA          ?XD?SEEKFREE_ASSISTANT_CAMERA_DATA_SEND?SEEKFREE_ASSISTANT
010B55H   010B62H   00000EH   BYTE   UNIT     XDATA          ?XD?PWM_DUTY?ZF_PWM
L251 LINKER/LOCATER V4.66.93.0                                                        06/19/2025  15:56:37  PAGE 6


010B63H   010B70H   00000EH   BYTE   UNIT     XDATA          ?XD?UART_INIT?ZF_UART
010B71H   010B7EH   00000EH   BYTE   UNIT     XDATA          ?XD?FUNC_STR_TO_HEX?ZF_FUNCTION
010B7FH   010B8CH   00000EH   BYTE   UNIT     XDATA          ?XD?OLED_PRINT_CHINESE?SEEKFREE_OLED
010B8DH   010B9AH   00000EH   BYTE   UNIT     XDATA          ?XD?OLED_PRINT_CHINESE_SPI?SEEKFREE_OLED
010B9BH   010BA8H   00000EH   BYTE   UNIT     XDATA          ?XD?GPS_GNGGA_PARSE?SEEKFREE_GPS_TAU1201
010BA9H   010BB6H   00000EH   BYTE   INSEG    XDATA          ?XD?SEEKFREE_IPS200_SPI
010BB7H   010BC3H   00000DH   BYTE   UNIT     XDATA          ?XD?SPI_INIT?ZF_SPI
010BC4H   010BD0H   00000DH   BYTE   UNIT     XDATA          ?XD?PRINTF_REVERSE_ORDER?SEEKFREE_PRINTF
010BD1H   010BDDH   00000DH   BYTE   UNIT     XDATA          ?XD?GET_PARAMETER_INDEX?SEEKFREE_GPS_TAU1201
010BDEH   010BE9H   00000CH   BYTE   UNIT     XDATA          ?XD?FIFO_READ_ELEMENT?ZF_FIFO
010BEAH   010BF5H   00000CH   BYTE   UNIT     XDATA          ?XD?SHOWIMAGE?SEEKFREE_18TFT
010BF6H   010C01H   00000CH   BYTE   INSEG    XDATA          ?XD?SEEKFREE_ICM20602
010C02H   010C0DH   00000CH   BYTE   INSEG    XDATA          ?XD?SEEKFREE_IMU660RA
010C0EH   010C19H   00000CH   BYTE   UNIT     XDATA          ?XD?GPS_DATA_PARSE?SEEKFREE_GPS_TAU1201
010C1AH   010C25H   00000CH   BYTE   INSEG    XDATA          ?XD?SEEKFREE_MPU6050
010C26H   010C30H   00000BH   BYTE   UNIT     XDATA          ?XD?OLED_UINT16?SEEKFREE_OLED
010C31H   010C3BH   00000BH   BYTE   UNIT     XDATA          ?XD?OLED_INT16?SEEKFREE_OLED
010C3CH   010C46H   00000BH   BYTE   UNIT     XDATA          ?XD?OLED_UINT16_SPI?SEEKFREE_OLED
010C47H   010C51H   00000BH   BYTE   UNIT     XDATA          ?XD?OLED_INT16_SPI?SEEKFREE_OLED
010C52H   010C5CH   00000BH   BYTE   UNIT     XDATA          ?XD?GPS_UART_CALLBACK?SEEKFREE_GPS_TAU1201
010C5DH   010C67H   00000BH   BYTE   INSEG    XDATA          ?XD?KEY
010C68H   010C71H   00000AH   BYTE   UNIT     XDATA          ?XD?IAP_READ_BYTES?ZF_EEPROM
010C72H   010C7BH   00000AH   BYTE   UNIT     XDATA          ?XD?IAP_WRITE_BYTES?ZF_EEPROM
010C7CH   010C85H   00000AH   BYTE   UNIT     XDATA          ?XD?UART_PUTBUFF?ZF_UART
010C86H   010C8FH   00000AH   BYTE   UNIT     XDATA          ?XD?FIFO_WRITE_ELEMENT?ZF_FIFO
010C90H   010C99H   00000AH   BYTE   UNIT     XDATA          ?XD?IPS200_SHOW_STRING?SEEKFREE_IPS200_SPI
010C9AH   010CA3H   00000AH   BYTE   UNIT     XDATA          ?XD?SEEKFREE_ASSISTANT_CAMERA_INFORMATION_CONFIG?SEEKFREE_
                                                             -ASSISTANT
010CA4H   010CACH   000009H   BYTE   UNIT     XDATA          ?XD?ADC_VOLTAGE?ZF_ADC
010CADH   010CB5H   000009H   BYTE   UNIT     XDATA          ?XD?FUNC_STR_TO_INT?ZF_FUNCTION
010CB6H   010CBEH   000009H   BYTE   UNIT     XDATA          ?XD?LCD_SHOWINT32?SEEKFREE_18TFT
010CBFH   010CC7H   000009H   BYTE   UNIT     XDATA          ?XD?ICM20602_SIMSPI_R_REG_BYTES?SEEKFREE_ICM20602
010CC8H   010CD0H   000009H   BYTE   UNIT     XDATA          ?XD?ICM20602_READ_REGISTERS?SEEKFREE_ICM20602
010CD1H   010CD9H   000009H   BYTE   UNIT     XDATA          ?XD?IMU660RA_SIMSPI_W_REG_BYTES?SEEKFREE_IMU660RA
010CDAH   010CE2H   000009H   BYTE   UNIT     XDATA          ?XD?IMU660RA_SIMSPI_R_REG_BYTES?SEEKFREE_IMU660RA
010CE3H   010CEBH   000009H   BYTE   UNIT     XDATA          ?XD?IMU660RA_WRITE_REGISTERS?SEEKFREE_IMU660RA
010CECH   010CF4H   000009H   BYTE   UNIT     XDATA          ?XD?IMU660RA_READ_REGISTERS?SEEKFREE_IMU660RA
010CF5H   010CFDH   000009H   BYTE   UNIT     XDATA          ?XD?IMU963RA_SIMSPI_R_REG_BYTES?SEEKFREE_IMU963RA
010CFEH   010D06H   000009H   BYTE   UNIT     XDATA          ?XD?IMU963RA_READ_ACC_GYRO_REGISTERS?SEEKFREE_IMU963RA
010D07H   010D0FH   000009H   BYTE   UNIT     XDATA          ?XD?IPS114_SHOWINT32?SEEKFREE_IPS114_SPI
010D10H   010D18H   000009H   BYTE   UNIT     XDATA          ?XD?IPS200_SHOW_CHAR?SEEKFREE_IPS200_SPI
010D19H   010D21H   000009H   BYTE   UNIT     XDATA          ?XD?SEEKFREE_ASSISTANT_SUM?SEEKFREE_ASSISTANT
010D22H   010D29H   000008H   BYTE   UNIT     XDATA          ?XD?ADC_ONCE?ZF_ADC
010D2AH   010D31H   000008H   BYTE   UNIT     XDATA          ?XD?FIFO_HEAD_OFFSET?ZF_FIFO
010D32H   010D39H   000008H   BYTE   UNIT     XDATA          ?XD?FIFO_END_OFFSET?ZF_FIFO
010D3AH   010D41H   000008H   BYTE   UNIT     XDATA          ?XD?FUNC_GET_GREATEST_COMMON_DIVISOR?ZF_FUNCTION
010D42H   010D49H   000008H   BYTE   UNIT     XDATA          ?XD?FUNC_STR_TO_UINT?ZF_FUNCTION
010D4AH   010D51H   000008H   BYTE   UNIT     XDATA          ?XD?LCD_SET_REGION?SEEKFREE_18TFT
010D52H   010D59H   000008H   BYTE   UNIT     XDATA          ?XD?LCD_SHOWSTR?SEEKFREE_18TFT
010D5AH   010D61H   000008H   BYTE   UNIT     XDATA          ?XD?BLE6A20_SEND_BUFF?SEEKFREE_BLE6A20
010D62H   010D69H   000008H   BYTE   UNIT     XDATA          ?XD?BLE6A20_READ_BUFF?SEEKFREE_BLE6A20
010D6AH   010D71H   000008H   BYTE   UNIT     XDATA          ?XD?IPS114_SET_REGION?SEEKFREE_IPS114_SPI
010D72H   010D79H   000008H   BYTE   UNIT     XDATA          ?XD?IPS114_SHOWSTR?SEEKFREE_IPS114_SPI
010D7AH   010D81H   000008H   BYTE   UNIT     XDATA          ?XD?OLED_P6X8STR?SEEKFREE_OLED
010D82H   010D89H   000008H   BYTE   UNIT     XDATA          ?XD?OLED_P6X8STR_SPI?SEEKFREE_OLED
010D8AH   010D91H   000008H   BYTE   UNIT     XDATA          ?XD?WIRELESS_UART_SEND_BUFF?SEEKFREE_WIRELESS
010D92H   010D99H   000008H   BYTE   UNIT     XDATA          ?XD?WIRELESS_UART_READ_BUFF?SEEKFREE_WIRELESS
010D9AH   010DA1H   000008H   BYTE   UNIT     XDATA          ?XD?SEEKFREE_ASSISTANT_TRANSFER_CALLBACK?SEEKFREE_WIRELESS
010DA2H   010DA9H   000008H   BYTE   UNIT     XDATA          ?XD?IPS200_SET_REGION?SEEKFREE_IPS200_SPI
010DAAH   010DB1H   000008H   BYTE   UNIT     XDATA          ?XD?ABSOLUTE?CONTROL
010DB2H   010DB8H   000007H   BYTE   UNIT     XDATA          ?XD?IIC_READ_REG_BYTES?ZF_IIC
010DB9H   010DBFH   000007H   BYTE   UNIT     XDATA          ?XD?CCD_SEND_DATA?SEEKFREE_TSL1401
010DC0H   010DC6H   000007H   BYTE   UNIT     XDATA          ?XD?MPU6050_SIMIIC_READ_REGS?SEEKFREE_MPU6050
010DC7H   010DCDH   000007H   BYTE   UNIT     XDATA          ?XD?KEY_SINGLE_DOUBLE?KEY
010DCEH   010DD4H   000007H   BYTE   UNIT     XDATA          ?XD?SEEKFREE_ASSISTANT_CAMERA_DOT_SEND?SEEKFREE_ASSISTANT
L251 LINKER/LOCATER V4.66.93.0                                                        06/19/2025  15:56:37  PAGE 7


010DD5H   010DDAH   000006H   BYTE   UNIT     XDATA          ?XD?DELAY_US?ZF_DELAY
010DDBH   010DE0H   000006H   BYTE   UNIT     XDATA          ?XD?PIT_TIMER_MS?ZF_TIM
010DE1H   010DE6H   000006H   BYTE   UNIT     XDATA          ?XD?UART_PUTSTR?ZF_UART
010DE7H   010DECH   000006H   BYTE   UNIT     XDATA          ?XD?FIFO_CLEAR?ZF_FIFO
010DEDH   010DF2H   000006H   BYTE   UNIT     XDATA          ?XD?IIC_INIT?ZF_IIC
010DF3H   010DF8H   000006H   BYTE   UNIT     XDATA          ?XD?IIC_READ_REG?ZF_IIC
010DF9H   010DFEH   000006H   BYTE   UNIT     XDATA          ?XD?LCD_DRAWPOINT?SEEKFREE_18TFT
010DFFH   010E04H   000006H   BYTE   UNIT     XDATA          ?XD?LCD_SHOWCHAR?SEEKFREE_18TFT
010E05H   010E0AH   000006H   BYTE   UNIT     XDATA          ?XD?LCD_SHOWINT16?SEEKFREE_18TFT
010E0BH   010E10H   000006H   BYTE   UNIT     XDATA          ?XD?LCD_SHOWUINT16?SEEKFREE_18TFT
010E11H   010E16H   000006H   BYTE   UNIT     XDATA          ?XD?ICM20602_ACC_TRANSITION?SEEKFREE_ICM20602
010E17H   010E1CH   000006H   BYTE   UNIT     XDATA          ?XD?ICM20602_GYRO_TRANSITION?SEEKFREE_ICM20602
010E1DH   010E22H   000006H   BYTE   UNIT     XDATA          ?XD?IMU660RA_ACC_TRANSITION?SEEKFREE_IMU660RA
010E23H   010E28H   000006H   BYTE   UNIT     XDATA          ?XD?IMU660RA_GYRO_TRANSITION?SEEKFREE_IMU660RA
010E29H   010E2EH   000006H   BYTE   UNIT     XDATA          ?XD?IMU963RA_ACC_TRANSITION?SEEKFREE_IMU963RA
010E2FH   010E34H   000006H   BYTE   UNIT     XDATA          ?XD?IMU963RA_GYRO_TRANSITION?SEEKFREE_IMU963RA
010E35H   010E3AH   000006H   BYTE   UNIT     XDATA          ?XD?IMU963RA_MAG_TRANSITION?SEEKFREE_IMU963RA
010E3BH   010E40H   000006H   BYTE   UNIT     XDATA          ?XD?IPS114_DRAWPOINT?SEEKFREE_IPS114_SPI
010E41H   010E46H   000006H   BYTE   UNIT     XDATA          ?XD?IPS114_SHOWCHAR?SEEKFREE_IPS114_SPI
010E47H   010E4CH   000006H   BYTE   UNIT     XDATA          ?XD?IPS114_SHOWINT16?SEEKFREE_IPS114_SPI
010E4DH   010E52H   000006H   BYTE   UNIT     XDATA          ?XD?IPS114_SHOWUINT16?SEEKFREE_IPS114_SPI
010E53H   010E58H   000006H   BYTE   UNIT     XDATA          ?XD?OLED_HEXASCII?SEEKFREE_OLED
010E59H   010E5EH   000006H   BYTE   UNIT     XDATA          ?XD?OLED_HEXASCII_SPI?SEEKFREE_OLED
010E5FH   010E64H   000006H   BYTE   UNIT     XDATA          ?XD?IPS200_FULL?SEEKFREE_IPS200_SPI
010E65H   010E6AH   000006H   BYTE   UNIT     XDATA          ?XD?IPS200_DRAW_POINT?SEEKFREE_IPS200_SPI
010E6BH   010E70H   000006H   BYTE   UNIT     XDATA          ?XD?MPU6050_GET_ACCDATA?SEEKFREE_MPU6050
010E71H   010E76H   000006H   BYTE   UNIT     XDATA          ?XD?MPU6050_GET_GYRO?SEEKFREE_MPU6050
010E77H   010E7BH   000005H   BYTE   UNIT     XDATA          ?XD?READ_ENCODER?ZF_TIM
010E7CH   010E80H   000005H   BYTE   INSEG    XDATA          ?XD?ZF_UART
010E81H   010E85H   000005H   BYTE   UNIT     XDATA          ?XD?LCD_SHOWINT8?SEEKFREE_18TFT
010E86H   010E8AH   000005H   BYTE   UNIT     XDATA          ?XD?LCD_SHOWUINT8?SEEKFREE_18TFT
010E8BH   010E8FH   000005H   BYTE   UNIT     XDATA          ?XD?ICM20602_SIMSPI_R_REG_BYTE?SEEKFREE_ICM20602
010E90H   010E94H   000005H   BYTE   UNIT     XDATA          ?XD?IMU963RA_SIMSPI_R_REG_BYTE?SEEKFREE_IMU963RA
010E95H   010E99H   000005H   BYTE   UNIT     XDATA          ?XD?IPS114_SHOWINT8?SEEKFREE_IPS114_SPI
010E9AH   010E9EH   000005H   BYTE   UNIT     XDATA          ?XD?IPS114_SHOWUINT8?SEEKFREE_IPS114_SPI
010E9FH   010EA3H   000005H   BYTE   UNIT     XDATA          ?XD?UTC_TO_BTC?SEEKFREE_GPS_TAU1201
010EA4H   010EA7H   000004H   BYTE   INSEG    XDATA          ?XD?BOARD
010EA8H   010EABH   000004H   BYTE   INSEG    XDATA          ?XD?COMMON
010EACH   010EAFH   000004H   BYTE   UNIT     XDATA          ?XD?ADC_INIT?ZF_ADC
010EB0H   010EB3H   000004H   BYTE   INSEG    XDATA          ?XD?ZF_DELAY
010EB4H   010EB7H   000004H   BYTE   UNIT     XDATA          ?XD?DELAY_MS?ZF_DELAY
010EB8H   010EBBH   000004H   BYTE   UNIT     XDATA          ?XD?IAP_ERASE_PAGE?ZF_EEPROM
010EBCH   010EBFH   000004H   BYTE   UNIT     XDATA          ?XD?GPIO_PULL_SET?ZF_GPIO
010EC0H   010EC3H   000004H   BYTE   UNIT     XDATA          ?XD?GPIO_MODE?ZF_GPIO
010EC4H   010EC7H   000004H   BYTE   UNIT     XDATA          ?XD?MOTOR_CTRL?ZF_PWM
010EC8H   010ECBH   000004H   BYTE   UNIT     XDATA          ?XD?CTIMER_COUNT_READ?ZF_TIM
010ECCH   010ECFH   000004H   BYTE   UNIT     XDATA          ?XD?FIFO_USED?ZF_FIFO
010ED0H   010ED3H   000004H   BYTE   UNIT     XDATA          ?XD?FUNC_SOFT_DELAY?ZF_FUNCTION
010ED4H   010ED7H   000004H   BYTE   INSEG    XDATA          ?XD?SEEKFREE_DL1B
010ED8H   010EDBH   000004H   BYTE   UNIT     XDATA          ?XD?IPS114_CLEAR?SEEKFREE_IPS114_SPI
010EDCH   010EDFH   000004H   BYTE   UNIT     XDATA          ?XD?IPS200_WRITE_16BIT_DATA_SPI?SEEKFREE_IPS200_SPI
010EE0H   010EE3H   000004H   BYTE   UNIT     XDATA          ?XD?IPS200_CLEAR?SEEKFREE_IPS200_SPI
010EE4H   010EE7H   000004H   BYTE   UNIT     XDATA          ?XD?IPS200_SET_COLOR?SEEKFREE_IPS200_SPI
010EE8H   010EEBH   000004H   BYTE   INSEG    XDATA          ?XD?SEEKFREE_ASSISTANT_INFACE
010EECH   010EEEH   000003H   BYTE   UNIT     XDATA          ?XD?NVIC_SETPRIORITY?ZF_NVIC
010EEFH   010EF1H   000003H   BYTE   UNIT     XDATA          ?XD?UART_PUTCHAR?ZF_UART
010EF2H   010EF4H   000003H   BYTE   UNIT     XDATA          ?XD?IIC_DELAY_US?ZF_IIC
010EF5H   010EF7H   000003H   BYTE   UNIT     XDATA          ?XD?WAIT?ZF_IIC
010EF8H   010EFAH   000003H   BYTE   UNIT     XDATA          ?XD?IIC_WRITE_REG?ZF_IIC
010EFBH   010EFDH   000003H   BYTE   UNIT     XDATA          ?XD?LCD_CLEAR?SEEKFREE_18TFT
010EFEH   010F00H   000003H   BYTE   UNIT     XDATA          ?XD?IMU963RA_WRITE_MAG_REGISTER?SEEKFREE_IMU963RA
010F01H   010F03H   000003H   BYTE   UNIT     XDATA          ?XD?OLED_PUTPIXEL?SEEKFREE_OLED
010F04H   010F06H   000003H   BYTE   UNIT     XDATA          ?XD?OLED_PUTPIXEL_SPI?SEEKFREE_OLED
010F07H   010F09H   000003H   BYTE   UNIT     XDATA          ?XD?MPU6050_READ_CH?SEEKFREE_MPU6050
010F0AH   010F0CH   000003H   BYTE   UNIT     XDATA          ?XD?MPU6050_SIMIIC_WRITE_REG?SEEKFREE_MPU6050
L251 LINKER/LOCATER V4.66.93.0                                                        06/19/2025  15:56:37  PAGE 8


010F0DH   010F0FH   000003H   BYTE   UNIT     XDATA          ?XD?MPU6050_SIMIIC_READ_REG?SEEKFREE_MPU6050
010F10H   010F11H   000002H   BYTE   INSEG    XDATA          ?XD?ZF_ADC
010F12H   010F13H   000002H   BYTE   UNIT     XDATA          ?XD?ADC_INIT_5?ZF_ADC
010F14H   010F15H   000002H   BYTE   UNIT     XDATA          ?XD?PWM_SET_GPIO?ZF_PWM
010F16H   010F17H   000002H   BYTE   UNIT     XDATA          ?XD?SPI_CHANGE_PIN?ZF_SPI
010F18H   010F19H   000002H   BYTE   UNIT     XDATA          ?XD?CTIMER_COUNT_INIT?ZF_TIM
010F1AH   010F1BH   000002H   BYTE   UNIT     XDATA          ?XD?CTIMER_COUNT_CLEAN?ZF_TIM
010F1CH   010F1DH   000002H   BYTE   UNIT     XDATA          ?XD?SEND_DATA?ZF_IIC
010F1EH   010F1FH   000002H   BYTE   UNIT     XDATA          ?XD?IIC_CHANGE_PIN?ZF_IIC
010F20H   010F21H   000002H   BYTE   UNIT     XDATA          ?XD?LCD_WRITEDATA_16BIT?SEEKFREE_18TFT
010F22H   010F23H   000002H   BYTE   UNIT     XDATA          ?XD?DL1B_GET_DISTANCE?SEEKFREE_DL1B
010F24H   010F25H   000002H   BYTE   UNIT     XDATA          ?XD?ICM20602_SIMSPI_W_REG_BYTE?SEEKFREE_ICM20602
010F26H   010F27H   000002H   BYTE   UNIT     XDATA          ?XD?ICM20602_WRITE_REGISTER?SEEKFREE_ICM20602
010F28H   010F29H   000002H   BYTE   UNIT     XDATA          ?XD?IMU660RA_SIMSPI_W_REG_BYTE?SEEKFREE_IMU660RA
010F2AH   010F2BH   000002H   BYTE   UNIT     XDATA          ?XD?IMU660RA_WRITE_REGISTER?SEEKFREE_IMU660RA
010F2CH   010F2DH   000002H   BYTE   UNIT     XDATA          ?XD?IMU963RA_SIMSPI_W_REG_BYTE?SEEKFREE_IMU963RA
010F2EH   010F2FH   000002H   BYTE   UNIT     XDATA          ?XD?IMU963RA_WRITE_ACC_GYRO_REGISTER?SEEKFREE_IMU963RA
010F30H   010F31H   000002H   BYTE   UNIT     XDATA          ?XD?IMU963RA_READ_MAG_REGISTER?SEEKFREE_IMU963RA
010F32H   010F33H   000002H   BYTE   UNIT     XDATA          ?XD?IMU963RA_CONNECT_MAG?SEEKFREE_IMU963RA
010F34H   010F35H   000002H   BYTE   UNIT     XDATA          ?XD?IPS114_WRITEDATA_16BIT?SEEKFREE_IPS114_SPI
010F36H   010F37H   000002H   BYTE   UNIT     XDATA          ?XD?OLED_SET_POS?SEEKFREE_OLED
010F38H   010F39H   000002H   BYTE   UNIT     XDATA          ?XD?OLED_FILL?SEEKFREE_OLED
010F3AH   010F3BH   000002H   BYTE   UNIT     XDATA          ?XD?OLED_CLRPIXEL?SEEKFREE_OLED
010F3CH   010F3DH   000002H   BYTE   UNIT     XDATA          ?XD?OLED_SET_POS_SPI?SEEKFREE_OLED
010F3EH   010F3FH   000002H   BYTE   UNIT     XDATA          ?XD?OLED_FILL_SPI?SEEKFREE_OLED
010F40H   010F41H   000002H   BYTE   UNIT     XDATA          ?XD?OLED_CLRPIXEL_SPI?SEEKFREE_OLED
010F42H   010F43H   000002H   BYTE   UNIT     XDATA          ?XD?IPS200_WRITE_16BIT_DATA?SEEKFREE_IPS200_SPI
010F44H   010F45H   000002H   BYTE   UNIT     XDATA          ?XD?IPS200_SET_DIR?SEEKFREE_IPS200_SPI
010F46H   010F47H   000002H   BYTE   UNIT     XDATA          ?XD?IPS200_SET_FONT?SEEKFREE_IPS200_SPI
010F48H   010F49H   000002H   BYTE   UNIT     XDATA          ?XD?MPU6050_SIMIIC_DELAY?SEEKFREE_MPU6050
010F4AH   010F4BH   000002H   BYTE   UNIT     XDATA          ?XD?MPU6050_SEND_CH?SEEKFREE_MPU6050
010F4CH   010F4DH   000002H   BYTE   UNIT     XDATA          ?XD?KEY_PRO?CONTROL
010F4EH   010F4EH   000001H   BYTE   UNIT     XDATA          ?XD?PUTCHAR?BOARD
010F4FH   010F4FH   000001H   BYTE   UNIT     XDATA          ?XD?IAP_SET_TPS?ZF_EEPROM
010F50H   010F50H   000001H   BYTE   UNIT     XDATA          ?XD?SPI_MOSI?ZF_SPI
010F51H   010F51H   000001H   BYTE   UNIT     XDATA          ?XD?SPI_CHANGE_MODE?ZF_SPI
010F52H   010F52H   000001H   BYTE   UNIT     XDATA          ?XD?START?ZF_IIC
010F53H   010F53H   000001H   BYTE   UNIT     XDATA          ?XD?RECV_ACK?ZF_IIC
010F54H   010F54H   000001H   BYTE   UNIT     XDATA          ?XD?SEND_ACK?ZF_IIC
010F55H   010F55H   000001H   BYTE   UNIT     XDATA          ?XD?STOP?ZF_IIC
010F56H   010F56H   000001H   BYTE   UNIT     XDATA          ?XD?LCD_WRITEINDEX?SEEKFREE_18TFT
010F57H   010F57H   000001H   BYTE   UNIT     XDATA          ?XD?LCD_WRITEDATA?SEEKFREE_18TFT
010F58H   010F58H   000001H   BYTE   UNIT     XDATA          ?XD?BLE6A20_CALLBACK?SEEKFREE_BLE6A20
010F59H   010F59H   000001H   BYTE   UNIT     XDATA          ?XD?BLE6A20_SEND_BYTE?SEEKFREE_BLE6A20
010F5AH   010F5AH   000001H   BYTE   UNIT     XDATA          ?XD?DL1B_SIMIIC_SENDACK?SEEKFREE_DL1B
010F5BH   010F5BH   000001H   BYTE   UNIT     XDATA          ?XD?DL1B_SEND_CH?SEEKFREE_DL1B
010F5CH   010F5CH   000001H   BYTE   UNIT     XDATA          ?XD?DL1B_READ_CH?SEEKFREE_DL1B
010F5DH   010F5DH   000001H   BYTE   UNIT     XDATA          ?XD?ICM20602_SIMSPI_WR_BYTE?SEEKFREE_ICM20602
010F5EH   010F5EH   000001H   BYTE   UNIT     XDATA          ?XD?ICM20602_READ_REGISTER?SEEKFREE_ICM20602
010F5FH   010F5FH   000001H   BYTE   UNIT     XDATA          ?XD?ICM20602_SELF_CHECK?SEEKFREE_ICM20602
010F60H   010F60H   000001H   BYTE   UNIT     XDATA          ?XD?ICM20602_INIT?SEEKFREE_ICM20602
010F61H   010F61H   000001H   BYTE   UNIT     XDATA          ?XD?IMU660RA_SIMSPI_WR_BYTE?SEEKFREE_IMU660RA
010F62H   010F62H   000001H   BYTE   UNIT     XDATA          ?XD?IMU660RA_READ_REGISTER?SEEKFREE_IMU660RA
010F63H   010F63H   000001H   BYTE   UNIT     XDATA          ?XD?IMU660RA_SELF_CHECK?SEEKFREE_IMU660RA
010F64H   010F64H   000001H   BYTE   UNIT     XDATA          ?XD?IMU963RA_SIMSPI_WR_BYTE?SEEKFREE_IMU963RA
010F65H   010F65H   000001H   BYTE   UNIT     XDATA          ?XD?IMU963RA_READ_ACC_GYRO_REGISTER?SEEKFREE_IMU963RA
010F66H   010F66H   000001H   BYTE   UNIT     XDATA          ?XD?IPS114_WRITEINDEX?SEEKFREE_IPS114_SPI
010F67H   010F67H   000001H   BYTE   UNIT     XDATA          ?XD?IPS114_WRITEDATA?SEEKFREE_IPS114_SPI
010F68H   010F68H   000001H   BYTE   UNIT     XDATA          ?XD?OLED_WRDAT?SEEKFREE_OLED
010F69H   010F69H   000001H   BYTE   UNIT     XDATA          ?XD?OLED_WRCMD?SEEKFREE_OLED
010F6AH   010F6AH   000001H   BYTE   UNIT     XDATA          ?XD?OLED_WRDAT_SPI?SEEKFREE_OLED
010F6BH   010F6BH   000001H   BYTE   UNIT     XDATA          ?XD?OLED_WRCMD_SPI?SEEKFREE_OLED
010F6CH   010F6CH   000001H   BYTE   UNIT     XDATA          ?XD?CCD_COLLECT?SEEKFREE_TSL1401
010F6DH   010F6DH   000001H   BYTE   UNIT     XDATA          ?XD?WIRELESS_UART_CALLBACK?SEEKFREE_WIRELESS
010F6EH   010F6EH   000001H   BYTE   UNIT     XDATA          ?XD?WIRELESS_UART_SEND_BYTE?SEEKFREE_WIRELESS
L251 LINKER/LOCATER V4.66.93.0                                                        06/19/2025  15:56:37  PAGE 9


010F6FH   010F6FH   000001H   BYTE   UNIT     XDATA          ?XD?IPS200_WRITE_8BIT_DATA_SPI?SEEKFREE_IPS200_SPI
010F70H   010F70H   000001H   BYTE   UNIT     XDATA          ?XD?IPS200_WRITE_COMMAND?SEEKFREE_IPS200_SPI
010F71H   010F71H   000001H   BYTE   UNIT     XDATA          ?XD?IPS200_WRITE_8BIT_DATA?SEEKFREE_IPS200_SPI
010F72H   010F72H   000001H   BYTE   UNIT     XDATA          ?XD?MPU6050_SIMIIC_SENDACK?SEEKFREE_MPU6050
010F73H   010F73H   000001H   BYTE   UNIT     XDATA          ?XD?UART1_ISR?ISR
010F74H   010F74H   000001H   BYTE   INSEG    XDATA          ?XD?ISR
010F75H   FEFFFFH   FDF08BH   ---    ---      **GAP**
FF0000H   FF0002H   000003H   ---    OFFS..   CODE           ?CO?START251?4
FF0003H   FF0005H   000003H   ---    OFFS..   CODE           ?PR?IV?0
FF0006H   FF0009H   000004H   BYTE   INSEG    CODE           ?PR?ENABLEGLOBALIRQ?BOARD
FF000AH   FF000AH   000001H   BYTE   INSEG    CODE           ?PR?INT1_ISR?ISR
FF000BH   FF000DH   000003H   ---    OFFS..   CODE           ?PR?IV?1
FF000EH   FF000EH   000001H   BYTE   INSEG    CODE           ?PR?TM0_ISR?ISR
FF000FH   FF0012H   000004H   BYTE   UNIT     CONST          ?CO?PRINTF
FF0013H   FF0015H   000003H   ---    OFFS..   CODE           ?PR?IV?2
FF0016H   FF001AH   000005H   ---    ---      **GAP**
FF001BH   FF001DH   000003H   ---    OFFS..   CODE           ?PR?IV?3
FF001EH   FF0022H   000005H   ---    ---      **GAP**
FF0023H   FF0025H   000003H   ---    OFFS..   CODE           ?PR?IV?4
FF0026H   FF003FH   00001AH   BYTE   INSEG    CODE           ?PR?MEMSET?_?MEMSET
FF0040H   FF0042H   000003H   ---    ---      **GAP**
FF0043H   FF0045H   000003H   ---    OFFS..   CODE           ?PR?IV?8
FF0046H   FF004DH   000008H   BYTE   INSEG    CODE           ?PR?INT0_ISR?ISR
FF004EH   FF0052H   000005H   ---    ---      **GAP**
FF0053H   FF0055H   000003H   ---    OFFS..   CODE           ?PR?IV?10
FF0056H   FF005AH   000005H   ---    ---      **GAP**
FF005BH   FF005DH   000003H   ---    OFFS..   CODE           ?PR?IV?11
FF005EH   FF0062H   000005H   ---    ---      **GAP**
FF0063H   FF0065H   000003H   ---    OFFS..   CODE           ?PR?IV?12
FF0066H   FF007BH   000016H   BYTE   INSEG    CODE           ?PR?SPI_MOSI?ZF_SPI
FF007CH   FF0082H   000007H   BYTE   INSEG    CODE           ?PR?ULTIMA_CONTROL?CONTROL
FF0083H   FF0085H   000003H   ---    OFFS..   CODE           ?PR?IV?16
FF0086H   FF008AH   000005H   ---    ---      **GAP**
FF008BH   FF008DH   000003H   ---    OFFS..   CODE           ?PR?IV?17
FF008EH   FF0092H   000005H   ---    ---      **GAP**
FF0093H   FF0095H   000003H   ---    OFFS..   CODE           ?PR?IV?18
FF0096H   FF009AH   000005H   ---    ---      **GAP**
FF009BH   FF009DH   000003H   ---    OFFS..   CODE           ?PR?IV?19
FF009EH   FF00A2H   000005H   ---    ---      **GAP**
FF00A3H   FF00A5H   000003H   ---    OFFS..   CODE           ?PR?IV?20
FF00A6H   FF212CH   002087H   BYTE   UNIT     CODE           ?CO?SEEKFREE_CONFIG
FF212DH   FF381DH   0016F1H   BYTE   UNIT     CODE           ?C?LIB_CODE
FF381EH   FF4625H   000E08H   BYTE   UNIT     CODE           ?CO?SEEKFREE_FONT
FF4626H   FF4FFEH   0009D9H   BYTE   INSEG    CODE           ?PR?GPIO_MODE?ZF_GPIO
FF4FFFH   FF5975H   000977H   BYTE   INSEG    CODE           ?PR?ZF_SPRINTF?SEEKFREE_PRINTF
FF5976H   FF5EF7H   000582H   BYTE   INSEG    CODE           ?PR?FIFO_WRITE_BUFFER?ZF_FIFO
FF5EF8H   FF6462H   00056BH   BYTE   INSEG    CODE           ?PR?FIFO_READ_BUFFER?ZF_FIFO
FF6463H   FF68E0H   00047EH   BYTE   INSEG    CODE           ?PR?PWM_INIT?ZF_PWM
FF68E1H   FF6D03H   000423H   BYTE   INSEG    CODE           ?PR?ADC_MEASURE?CONTROL
FF6D04H   FF7125H   000422H   BYTE   INSEG    CODE           ?PR?MOTOR_CONTROL?CONTROL
FF7126H   FF74E1H   0003BCH   BYTE   INSEG    CODE           ?PR?PWM_SET_GPIO?ZF_PWM
FF74E2H   FF77FDH   00031CH   BYTE   INSEG    CODE           ?PR?UART_INIT?ZF_UART
FF77FEH   FF7AFAH   0002FDH   BYTE   INSEG    CODE           ?PR?KEY_SINGLE_DOUBLE?KEY
FF7AFBH   FF7D60H   000266H   BYTE   INSEG    CODE           ?PR?LOC_PID?CONTROL
FF7D61H   FF7FABH   00024BH   BYTE   INSEG    CODE           ?PR?PID_REALIZE?CONTROL
FF7FACH   FF81E1H   000236H   BYTE   INSEG    CODE           ?PR?SET_CLK?BOARD
FF81E2H   FF83B4H   0001D3H   BYTE   INSEG    CODE           ?PR?OLED_PRINTF_FLOAT_SPI?SEEKFREE_OLED
FF83B5H   FF854BH   000197H   BYTE   INSEG    CODE           ?PR?NUMBER_CONVERSION_ASCII?SEEKFREE_PRINTF
FF854CH   FF86DCH   000191H   BYTE   INSEG    CODE           ?PR?GPS_UART_CALLBACK?SEEKFREE_GPS_TAU1201
FF86DDH   FF886CH   000190H   BYTE   INSEG    CODE           ?PR?KEY_PRO?CONTROL
FF886DH   FF89F5H   000189H   BYTE   INSEG    CODE           ?PR?SEEKFREE_ASSISTANT_OSCILLOSCOPE_SEND?SEEKFREE_ASSISTAN
                                                             -T
FF89F6H   FF8B62H   00016DH   BYTE   INSEG    CODE           ?PR?MAIN?MAIN
FF8B63H   FF8CC4H   000162H   BYTE   INSEG    CODE           ?PR?PWM_DUTY?ZF_PWM
FF8CC5H   FF8E11H   00014DH   BYTE   INSEG    CODE           ?PR?ADC_MEDIAN_AVERAGE?ZF_ADC
L251 LINKER/LOCATER V4.66.93.0                                                        06/19/2025  15:56:37  PAGE 10


FF8E12H   FF8F56H   000145H   BYTE   INSEG    CODE           ?PR?FIFO_CLEAR?ZF_FIFO
FF8F57H   FF9067H   000111H   BYTE   INSEG    CODE           ?PR?PIT_TIMER_MS?ZF_TIM
FF9068H   FF9160H   0000F9H   BYTE   INSEG    CODE           ?PR?PRINTF_REVERSE_ORDER?SEEKFREE_PRINTF
FF9161H   FF9248H   0000E8H   BYTE   INSEG    CODE           ?PR?SPI_INIT?ZF_SPI
FF9249H   FF932BH   0000E3H   BYTE   INSEG    CODE           ?PR?OLED_P6X8STR_SPI?SEEKFREE_OLED
FF932CH   FF9409H   0000DEH   BYTE   INSEG    CODE           ?PR?CTIMER_COUNT_READ?ZF_TIM
FF940AH   FF94D6H   0000CDH   BYTE   INSEG    CODE           ?PR?FIFO_INIT?ZF_FIFO
FF94D7H   FF959FH   0000C9H   BYTE   INSEG    CODE           ?PR?ADC_INIT?ZF_ADC
FF95A0H   FF9668H   0000C9H   BYTE   INSEG    CODE           ?PR?OLED_INIT_SPI?SEEKFREE_OLED
FF9669H   FF9722H   0000BAH   BYTE   INSEG    CODE           ?PR?TEST_WIRELESS_OSCILLOSCOPE?SEEKFREE_WIRELESS
FF9723H   FF97D6H   0000B4H   BYTE   INSEG    CODE           ?PR?ADC_ONCE?ZF_ADC
FF97D7H   FF987DH   0000A7H   BYTE   INSEG    CODE           ?PR?READ_ENCODER?ZF_TIM
FF987EH   FF9920H   0000A3H   BYTE   INSEG    CODE           ?PR?BOARD_INIT?BOARD
FF9921H   FF99C0H   0000A0H   BYTE   INSEG    CODE           ?PR?FIFO_HEAD_OFFSET?ZF_FIFO
FF99C1H   FF9A60H   0000A0H   BYTE   INSEG    CODE           ?PR?FIFO_END_OFFSET?ZF_FIFO
FF9A61H   FF9AFFH   00009FH   BYTE   INSEG    CODE           ?PR?RANGE_PROTECT?CONTROL
FF9B00H   FF9B95H   000096H   BYTE   INSEG    CODE           ?PR?ADC_VOLTAGE?ZF_ADC
FF9B96H   FF9C23H   00008EH   BYTE   INSEG    CODE           ?PR?MPU6050_SIMIIC_READ_REGS?SEEKFREE_MPU6050
FF9C24H   FF9CB0H   00008DH   BYTE   INSEG    CODE           ?PR?MOTOR_CTRL?ZF_PWM
FF9CB1H   FF9D3BH   00008BH   BYTE   INSEG    CODE           ?PR?OLED_INT16_SPI?SEEKFREE_OLED
FF9D3CH   FF9DC1H   000086H   BYTE   INSEG    CODE           ?PR?OLED_HEXASCII_SPI?SEEKFREE_OLED
FF9DC2H   FF9E3FH   00007EH   BYTE   INSEG    CODE           ?PR?CCD_COLLECT?SEEKFREE_TSL1401
FF9E40H   FF9EBCH   00007DH   BYTE   INSEG    CODE           ?PR?UART_PUTCHAR?ZF_UART
FF9EBDH   FF9F21H   000065H   BYTE   INSEG    CODE           ?PR?CTIMER_COUNT_CLEAN?ZF_TIM
FF9F22H   FF9F86H   000065H   BYTE   INSEG    CODE           ?PR?MPU6050_READ_CH?SEEKFREE_MPU6050
FF9F87H   FF9FE8H   000062H   BYTE   INSEG    CODE           ?PR?WIRELESS_UART_INIT?SEEKFREE_WIRELESS
FF9FE9H   FFA009H   000021H   BYTE   UNIT     CODE           ?C_C51STARTUP
FFA00AH   FFA015H   00000CH   BYTE   UNIT     CODE           ?C_C51STARTUP?1
FFA016H   FFA046H   000031H   BYTE   UNIT     CODE           ?C_C51STARTUP?2
FFA047H   FFA049H   000003H   BYTE   UNIT     CODE           ?C_C51STARTUP?3
FFA04AH   FFA0A9H   000060H   BYTE   INSEG    CODE           ?PR?MPU6050_INIT?SEEKFREE_MPU6050
FFA0AAH   FFA106H   00005DH   BYTE   INSEG    CODE           ?PR?OLED_FILL_SPI?SEEKFREE_OLED
FFA107H   FFA162H   00005CH   BYTE   INSEG    CODE           ?PR?CTIMER_COUNT_INIT?ZF_TIM
FFA163H   FFA1BEH   00005CH   BYTE   INSEG    CODE           ?PR?MPU6050_GET_GYRO?SEEKFREE_MPU6050
FFA1BFH   FFA218H   00005AH   BYTE   INSEG    CODE           ?PR?SEEKFREE_ASSISTANT_SUM?SEEKFREE_ASSISTANT
FFA219H   FFA270H   000058H   BYTE   INSEG    CODE           ?PR?DELAY_INIT?ZF_DELAY
FFA271H   FFA2C8H   000058H   BYTE   INSEG    CODE           ?PR?UART4_ISR?ISR
FFA2C9H   FFA320H   000058H   BYTE   INSEG    CODE           ?PR?ALL_INIT?MAIN
FFA321H   FFA373H   000053H   BYTE   INSEG    CODE           ?PR?ABSOLUTE?CONTROL
FFA374H   FFA3C4H   000051H   BYTE   INSEG    CODE           ?PR?UART1_ISR?ISR
FFA3C5H   FFA413H   00004FH   BYTE   INSEG    CODE           ?PR?UART_PUTBUFF?ZF_UART
FFA414H   FFA45AH   000047H   BYTE   INSEG    CODE           ?PR?UART2_ISR?ISR
FFA45BH   FFA4A0H   000046H   BYTE   INSEG    CODE           ?PR?ADC_INIT_5?ZF_ADC
FFA4A1H   FFA4E5H   000045H   BYTE   INSEG    CODE           ?PR?MOTOR_INIT?ZF_PWM
FFA4E6H   FFA52AH   000045H   BYTE   INSEG    CODE           ?PR?MPU6050_SEND_CH?SEEKFREE_MPU6050
FFA52BH   FFA569H   00003FH   BYTE   INSEG    CODE           ?PR?MPU6050_SIMIIC_READ_REG?SEEKFREE_MPU6050
FFA56AH   FFA5A6H   00003DH   BYTE   INSEG    CODE           ?PR?DELAY_MS?ZF_DELAY
FFA5A7H   FFA5E3H   00003DH   BYTE   INSEG    CODE           ?PR?OLED_SET_POS_SPI?SEEKFREE_OLED
FFA5E4H   FFA61FH   00003CH   BYTE   INSEG    CODE           ?PR?SEEKFREE_ASSISTANT_TRANSFER_CALLBACK?SEEKFREE_WIRELESS
FFA620H   FFA656H   000037H   BYTE   INSEG    CODE           ?PR?FIFO_USED?ZF_FIFO
FFA657H   FFA68DH   000037H   BYTE   INSEG    CODE           ?PR?OLED_UINT16_SPI?SEEKFREE_OLED
FFA68EH   FFA6C4H   000037H   BYTE   INSEG    CODE           ?PR?STRNCMP?_?STRNCMP
FFA6C5H   FFA6F7H   000033H   BYTE   INSEG    CODE           ?PR?MPU6050_SELF1_CHECK?SEEKFREE_MPU6050
FFA6F8H   FFA72AH   000033H   BYTE   INSEG    CODE           ?PR?TM4_ISR?ISR
FFA72BH   FFA75AH   000030H   BYTE   INSEG    CODE           ?PR?TM1_ISR?ISR
FFA75BH   FFA788H   00002EH   BYTE   INSEG    CODE           ?PR?MPU6050_SIMIIC_WRITE_REG?SEEKFREE_MPU6050
FFA789H   FFA7B0H   000028H   BYTE   INSEG    CODE           ?PR?MPU6050_SIMIIC_SENDACK?SEEKFREE_MPU6050
FFA7B1H   FFA7D6H   000026H   BYTE   INSEG    CODE           ?PR?UART3_ISR?ISR
FFA7D7H   FFA7FBH   000025H   BYTE   INSEG    CODE           ?PR?MEMCPY?_?MEMCPY
FFA7FCH   FFA81DH   000022H   BYTE   INSEG    CODE           ?PR?WIRELESS_UART_CALLBACK?SEEKFREE_WIRELESS
FFA81EH   FFA83EH   000021H   BYTE   INSEG    CODE           ?PR?MPU6050_SCCB_WAITACK?SEEKFREE_MPU6050
FFA83FH   FFA85EH   000020H   BYTE   INSEG    CODE           ?PR?MPU6050_SIMIIC_DELAY?SEEKFREE_MPU6050
FFA85FH   FFA874H   000016H   BYTE   INSEG    CODE           ?PR?MPU6050_SIMIIC_STOP?SEEKFREE_MPU6050
FFA875H   FFA889H   000015H   BYTE   INSEG    CODE           ?PR?OLED_WRCMD_SPI?SEEKFREE_OLED
FFA88AH   FFA89EH   000015H   BYTE   INSEG    CODE           ?PR?OLED_WRDAT_SPI?SEEKFREE_OLED
L251 LINKER/LOCATER V4.66.93.0                                                        06/19/2025  15:56:37  PAGE 11


FFA89FH   FFA8B1H   000013H   BYTE   INSEG    CODE           ?PR?MPU6050_SIMIIC_START?SEEKFREE_MPU6050
FFA8B2H   FFA8C3H   000012H   BYTE   INSEG    CODE           ?PR?PUTCHAR?BOARD
FFA8C4H   FFA8CBH   000008H   BYTE   INSEG    CODE           ?PR?INT2_ISR?ISR
FFA8CCH   FFA8D3H   000008H   BYTE   INSEG    CODE           ?PR?INT3_ISR?ISR
FFA8D4H   FFA8DBH   000008H   BYTE   INSEG    CODE           ?PR?INT4_ISR?ISR
FFA8DCH   FFA8E3H   000008H   BYTE   INSEG    CODE           ?PR?TM2_ISR?ISR
FFA8E4H   FFA8EBH   000008H   BYTE   INSEG    CODE           ?PR?TM3_ISR?ISR
FFA8ECH   FFACB4H   0003C9H   BYTE   UNIT     HCONST         ?C_INITHDATA
FFACB5H   FFAD56H   0000A2H   BYTE   UNIT     HCONST         ?HC?SEEKFREE_GPS_TAU1201
FFAD57H   FFADAEH   000058H   BYTE   UNIT     HCONST         ?HC?ZF_PWM
FFADAFH   FFADF9H   00004BH   BYTE   UNIT     HCONST         ?HC?SEEKFREE_IMU963RA
FFADFAH   FFAE2DH   000034H   BYTE   UNIT     HCONST         ?HC?SEEKFREE_IMU660RA
FFAE2EH   FFAE60H   000033H   BYTE   UNIT     HCONST         ?HC?SEEKFREE_ICM20602
FFAE61H   FFAE8EH   00002EH   BYTE   UNIT     HCONST         ?HC?SEEKFREE_MPU6050
FFAE8FH   FFAEAEH   000020H   BYTE   UNIT     HCONST         ?HC?MAIN
FFAEAFH   FFAECCH   00001EH   BYTE   UNIT     HCONST         ?HC?SEEKFREE_OLED
FFAECDH   FFAEDCH   000010H   BYTE   UNIT     HCONST         ?HC?ZF_FUNCTION
FFAEDDH   FFAEE2H   000006H   BYTE   UNIT     HCONST         ?HC?SEEKFREE_18TFT
FFAEE3H   FFAEE8H   000006H   BYTE   UNIT     HCONST         ?HC?SEEKFREE_IPS114_SPI

* * * * * * * * *   R E M O V E D     S E G M E N T S   * * * * * * * *
   *DEL*:           000004H   BYTE   INSEG    CODE           ?PR?DISABLEGLOBALIRQ?BOARD
   *DEL*:           000047H   BYTE   INSEG    CODE           ?PR?DELAY_US?ZF_DELAY
   *DEL*:           000022H   BYTE   INSEG    CODE           ?PR?IAP_SET_TPS?ZF_EEPROM
   *DEL*:           000015H   BYTE   INSEG    CODE           ?PR?EEPROM_TRIG?ZF_EEPROM
   *DEL*:           000041H   BYTE   INSEG    CODE           ?PR?IAP_ERASE_PAGE?ZF_EEPROM
   *DEL*:           000004H   BYTE   INSEG    CODE           ?PR?IAP_IDLE?ZF_EEPROM
   *DEL*:           00009FH   BYTE   INSEG    CODE           ?PR?IAP_READ_BYTES?ZF_EEPROM
   *DEL*:           000008H   BYTE   INSEG    CODE           ?PR?IAP_INIT?ZF_EEPROM
   *DEL*:           00008FH   BYTE   INSEG    CODE           ?PR?IAP_WRITE_BYTES?ZF_EEPROM
   *DEL*:           000012H   BYTE   INSEG    CODE           ?PR?IAP_GET_CMD_STATE?ZF_EEPROM
   *DEL*:           0000A5H   BYTE   INSEG    CODE           ?PR?GPIO_PULL_SET?ZF_GPIO
   *DEL*:           0000CDH   BYTE   INSEG    CODE           ?PR?NVIC_SETPRIORITY?ZF_NVIC
   *DEL*:           000231H   BYTE   INSEG    CODE           ?PR?PWM_FREQ?ZF_PWM
   *DEL*:           000026H   BYTE   INSEG    CODE           ?PR?SPI_CHANGE_MODE?ZF_SPI
   *DEL*:           0000D2H   BYTE   INSEG    CODE           ?PR?SPI_CHANGE_PIN?ZF_SPI
   *DEL*:           000044H   BYTE   INSEG    CODE           ?PR?UART_PUTSTR?ZF_UART
   *DEL*:           0001B3H   BYTE   INSEG    CODE           ?PR?FIFO_WRITE_ELEMENT?ZF_FIFO
   *DEL*:           000622H   BYTE   INSEG    CODE           ?PR?FIFO_READ_TAIL_BUFFER?ZF_FIFO
   *DEL*:           000221H   BYTE   INSEG    CODE           ?PR?FIFO_READ_ELEMENT?ZF_FIFO
   *DEL*:           0003D2H   BYTE   INSEG    CODE           ?PR?FUNC_DOUBLE_TO_STR?ZF_FUNCTION
   *DEL*:           000309H   BYTE   INSEG    CODE           ?PR?FUNC_STR_TO_DOUBLE?ZF_FUNCTION
   *DEL*:           000399H   BYTE   INSEG    CODE           ?PR?FUNC_FLOAT_TO_STR?ZF_FUNCTION
   *DEL*:           000258H   BYTE   INSEG    CODE           ?PR?FUNC_STR_TO_FLOAT?ZF_FUNCTION
   *DEL*:           000028H   BYTE   INSEG    CODE           ?PR?FUNC_SOFT_DELAY?ZF_FUNCTION
   *DEL*:           0000F9H   BYTE   INSEG    CODE           ?PR?FUNC_UINT_TO_STR?ZF_FUNCTION
   *DEL*:           00009EH   BYTE   INSEG    CODE           ?PR?FUNC_STR_TO_UINT?ZF_FUNCTION
   *DEL*:           000162H   BYTE   INSEG    CODE           ?PR?FUNC_HEX_TO_STR?ZF_FUNCTION
   *DEL*:           0001CAH   BYTE   INSEG    CODE           ?PR?FUNC_STR_TO_HEX?ZF_FUNCTION
   *DEL*:           000193H   BYTE   INSEG    CODE           ?PR?FUNC_INT_TO_STR?ZF_FUNCTION
   *DEL*:           00011FH   BYTE   INSEG    CODE           ?PR?FUNC_STR_TO_INT?ZF_FUNCTION
   *DEL*:           0000A6H   BYTE   INSEG    CODE           ?PR?FUNC_GET_GREATEST_COMMON_DIVISOR?ZF_FUNCTION
   *DEL*:           00002CH   BYTE   INSEG    CODE           ?PR?SEND_DATA?ZF_IIC
   *DEL*:           00003BH   BYTE   INSEG    CODE           ?PR?IIC_CHANGE_PIN?ZF_IIC
   *DEL*:           00001CH   BYTE   INSEG    CODE           ?PR?RECV_DATA?ZF_IIC
   *DEL*:           000019H   BYTE   INSEG    CODE           ?PR?START?ZF_IIC
   *DEL*:           00005AH   BYTE   INSEG    CODE           ?PR?WAIT?ZF_IIC
   *DEL*:           000025H   BYTE   INSEG    CODE           ?PR?SEND_ACK?ZF_IIC
   *DEL*:           000019H   BYTE   INSEG    CODE           ?PR?RECV_ACK?ZF_IIC
   *DEL*:           000019H   BYTE   INSEG    CODE           ?PR?STOP?ZF_IIC
   *DEL*:           00001EH   BYTE   INSEG    CODE           ?PR?SEND_NAK?ZF_IIC
   *DEL*:           000084H   BYTE   INSEG    CODE           ?PR?IIC_INIT?ZF_IIC
   *DEL*:           0000A9H   BYTE   INSEG    CODE           ?PR?IIC_READ_REG?ZF_IIC
   *DEL*:           0000F7H   BYTE   INSEG    CODE           ?PR?IIC_READ_REG_BYTES?ZF_IIC
   *DEL*:           000080H   BYTE   INSEG    CODE           ?PR?IIC_WRITE_REG?ZF_IIC
L251 LINKER/LOCATER V4.66.93.0                                                        06/19/2025  15:56:37  PAGE 12


   *DEL*:           000039H   BYTE   INSEG    CODE           ?PR?IIC_DELAY_US?ZF_IIC
   *DEL*:           0000E1H   BYTE   INSEG    CODE           ?PR?LCD_SHOWUINT16?SEEKFREE_18TFT
   *DEL*:           0000FBH   BYTE   INSEG    CODE           ?PR?LCD_SHOWINT32?SEEKFREE_18TFT
   *DEL*:           00013BH   BYTE   INSEG    CODE           ?PR?LCD_SHOWINT16?SEEKFREE_18TFT
   *DEL*:           00005BH   BYTE   INSEG    CODE           ?PR?LCD_CLEAR?SEEKFREE_18TFT
   *DEL*:           000077H   BYTE   INSEG    CODE           ?PR?LCD_SHOWSTR?SEEKFREE_18TFT
   *DEL*:           000015H   BYTE   INSEG    CODE           ?PR?LCD_WRITEINDEX?SEEKFREE_18TFT
   *DEL*:           000015H   BYTE   INSEG    CODE           ?PR?LCD_WRITEDATA?SEEKFREE_18TFT
   *DEL*:           00011DH   BYTE   INSEG    CODE           ?PR?SHOWIMAGE?SEEKFREE_18TFT
   *DEL*:           000074H   BYTE   INSEG    CODE           ?PR?LCD_SET_REGION?SEEKFREE_18TFT
   *DEL*:           0001F7H   BYTE   INSEG    CODE           ?PR?LCD_INIT?SEEKFREE_18TFT
   *DEL*:           0000B1H   BYTE   INSEG    CODE           ?PR?LCD_SHOWUINT8?SEEKFREE_18TFT
   *DEL*:           0000FCH   BYTE   INSEG    CODE           ?PR?LCD_SHOWINT8?SEEKFREE_18TFT
   *DEL*:           000034H   BYTE   INSEG    CODE           ?PR?LCD_WRITEDATA_16BIT?SEEKFREE_18TFT
   *DEL*:           0001ABH   BYTE   INSEG    CODE           ?PR?LCD_SHOWFLOAT?SEEKFREE_18TFT
   *DEL*:           000037H   BYTE   INSEG    CODE           ?PR?LCD_DRAWPOINT?SEEKFREE_18TFT
   *DEL*:           0000CBH   BYTE   INSEG    CODE           ?PR?LCD_SHOWCHAR?SEEKFREE_18TFT
   *DEL*:           00004EH   BYTE   INSEG    CODE           ?PR?BLE6A20_READ_BUFF?SEEKFREE_BLE6A20
   *DEL*:           0000C4H   BYTE   INSEG    CODE           ?PR?BLE6A20_SEND_BUFF?SEEKFREE_BLE6A20
   *DEL*:           000022H   BYTE   INSEG    CODE           ?PR?BLE6A20_CALLBACK?SEEKFREE_BLE6A20
   *DEL*:           000062H   BYTE   INSEG    CODE           ?PR?BLE6A20_INIT?SEEKFREE_BLE6A20
   *DEL*:           00001EH   BYTE   INSEG    CODE           ?PR?BLE6A20_SEND_BYTE?SEEKFREE_BLE6A20
   *DEL*:           000028H   BYTE   INSEG    CODE           ?PR?DL1B_SIMIIC_SENDACK?SEEKFREE_DL1B
   *DEL*:           00006AH   BYTE   INSEG    CODE           ?PR?DL1B_READ_CH?SEEKFREE_DL1B
   *DEL*:           000046H   BYTE   INSEG    CODE           ?PR?DL1B_SEND_CH?SEEKFREE_DL1B
   *DEL*:           0000B8H   BYTE   INSEG    CODE           ?PR?DL1B_IIC_TRANSFER_8BIT_ARRAY?SEEKFREE_DL1B
   *DEL*:           000021H   BYTE   INSEG    CODE           ?PR?DL1B_SCCB_WAITACK?SEEKFREE_DL1B
   *DEL*:           00017CH   BYTE   INSEG    CODE           ?PR?DL1B_GET_DISTANCE?SEEKFREE_DL1B
   *DEL*:           00001DH   BYTE   INSEG    CODE           ?PR?DL1B_SIMIIC_DELAY?SEEKFREE_DL1B
   *DEL*:           000013H   BYTE   INSEG    CODE           ?PR?DL1B_SIMIIC_START?SEEKFREE_DL1B
   *DEL*:           000016H   BYTE   INSEG    CODE           ?PR?DL1B_SIMIIC_STOP?SEEKFREE_DL1B
   *DEL*:           000136H   BYTE   INSEG    CODE           ?PR?DL1B_INIT?SEEKFREE_DL1B
   *DEL*:           000020H   BYTE   INSEG    CODE           ?PR?ICM20602_READ_REGISTER?SEEKFREE_ICM20602
   *DEL*:           0000BEH   BYTE   INSEG    CODE           ?PR?ICM20602_GYRO_TRANSITION?SEEKFREE_ICM20602
   *DEL*:           00001EH   BYTE   INSEG    CODE           ?PR?ICM20602_WRITE_REGISTER?SEEKFREE_ICM20602
   *DEL*:           000056H   BYTE   INSEG    CODE           ?PR?ICM20602_SIMSPI_WR_BYTE?SEEKFREE_ICM20602
   *DEL*:           00004EH   BYTE   INSEG    CODE           ?PR?ICM20602_SELF_CHECK?SEEKFREE_ICM20602
   *DEL*:           000076H   BYTE   INSEG    CODE           ?PR?ICM20602_SIMSPI_R_REG_BYTES?SEEKFREE_ICM20602
   *DEL*:           000031H   BYTE   INSEG    CODE           ?PR?ICM20602_SIMSPI_R_REG_BYTE?SEEKFREE_ICM20602
   *DEL*:           00001DH   BYTE   INSEG    CODE           ?PR?ICM20602_SIMSPI_W_REG_BYTE?SEEKFREE_ICM20602
   *DEL*:           0000C2H   BYTE   INSEG    CODE           ?PR?ICM20602_INIT?SEEKFREE_ICM20602
   *DEL*:           000056H   BYTE   INSEG    CODE           ?PR?ICM20602_GET_ACC?SEEKFREE_ICM20602
   *DEL*:           0000BAH   BYTE   INSEG    CODE           ?PR?ICM20602_ACC_TRANSITION?SEEKFREE_ICM20602
   *DEL*:           000040H   BYTE   INSEG    CODE           ?PR?ICM20602_READ_REGISTERS?SEEKFREE_ICM20602
   *DEL*:           000056H   BYTE   INSEG    CODE           ?PR?ICM20602_GET_GYRO?SEEKFREE_ICM20602
   *DEL*:           000056H   BYTE   INSEG    CODE           ?PR?IMU660RA_GET_GYRO?SEEKFREE_IMU660RA
   *DEL*:           000024H   BYTE   INSEG    CODE           ?PR?IMU660RA_READ_REGISTER?SEEKFREE_IMU660RA
   *DEL*:           00003AH   BYTE   INSEG    CODE           ?PR?IMU660RA_WRITE_REGISTERS?SEEKFREE_IMU660RA
   *DEL*:           0000E2H   BYTE   INSEG    CODE           ?PR?IMU660RA_GYRO_TRANSITION?SEEKFREE_IMU660RA
   *DEL*:           00001EH   BYTE   INSEG    CODE           ?PR?IMU660RA_WRITE_REGISTER?SEEKFREE_IMU660RA
   *DEL*:           000056H   BYTE   INSEG    CODE           ?PR?IMU660RA_SIMSPI_WR_BYTE?SEEKFREE_IMU660RA
   *DEL*:           00004BH   BYTE   INSEG    CODE           ?PR?IMU660RA_SELF_CHECK?SEEKFREE_IMU660RA
   *DEL*:           000070H   BYTE   INSEG    CODE           ?PR?IMU660RA_SIMSPI_R_REG_BYTES?SEEKFREE_IMU660RA
   *DEL*:           00005CH   BYTE   INSEG    CODE           ?PR?IMU660RA_SIMSPI_W_REG_BYTES?SEEKFREE_IMU660RA
   *DEL*:           00001DH   BYTE   INSEG    CODE           ?PR?IMU660RA_SIMSPI_W_REG_BYTE?SEEKFREE_IMU660RA
   *DEL*:           0000AEH   BYTE   INSEG    CODE           ?PR?IMU660RA_INIT?SEEKFREE_IMU660RA
   *DEL*:           000056H   BYTE   INSEG    CODE           ?PR?IMU660RA_GET_ACC?SEEKFREE_IMU660RA
   *DEL*:           0000ADH   BYTE   INSEG    CODE           ?PR?IMU660RA_ACC_TRANSITION?SEEKFREE_IMU660RA
   *DEL*:           000040H   BYTE   INSEG    CODE           ?PR?IMU660RA_READ_REGISTERS?SEEKFREE_IMU660RA
   *DEL*:           0000BEH   BYTE   INSEG    CODE           ?PR?IMU963RA_ACC_TRANSITION?SEEKFREE_IMU963RA
   *DEL*:           000056H   BYTE   INSEG    CODE           ?PR?IMU963RA_GET_GYRO?SEEKFREE_IMU963RA
   *DEL*:           00006FH   BYTE   INSEG    CODE           ?PR?IMU963RA_MAG_TRANSITION?SEEKFREE_IMU963RA
   *DEL*:           000114H   BYTE   INSEG    CODE           ?PR?IMU963RA_GYRO_TRANSITION?SEEKFREE_IMU963RA
   *DEL*:           000056H   BYTE   INSEG    CODE           ?PR?IMU963RA_SIMSPI_WR_BYTE?SEEKFREE_IMU963RA
   *DEL*:           00006FH   BYTE   INSEG    CODE           ?PR?IMU963RA_READ_MAG_REGISTER?SEEKFREE_IMU963RA
L251 LINKER/LOCATER V4.66.93.0                                                        06/19/2025  15:56:37  PAGE 13


   *DEL*:           00003DH   BYTE   INSEG    CODE           ?PR?IMU963RA_CONNECT_MAG?SEEKFREE_IMU963RA
   *DEL*:           000040H   BYTE   INSEG    CODE           ?PR?IMU963RA_READ_ACC_GYRO_REGISTERS?SEEKFREE_IMU963RA
   *DEL*:           000086H   BYTE   INSEG    CODE           ?PR?IMU963RA_WRITE_MAG_REGISTER?SEEKFREE_IMU963RA
   *DEL*:           000025H   BYTE   INSEG    CODE           ?PR?IMU963RA_READ_ACC_GYRO_REGISTER?SEEKFREE_IMU963RA
   *DEL*:           000070H   BYTE   INSEG    CODE           ?PR?IMU963RA_SIMSPI_R_REG_BYTES?SEEKFREE_IMU963RA
   *DEL*:           000037H   BYTE   INSEG    CODE           ?PR?IMU963RA_SIMSPI_R_REG_BYTE?SEEKFREE_IMU963RA
   *DEL*:           000051H   BYTE   INSEG    CODE           ?PR?IMU963RA_MAG_SELF_CHECK?SEEKFREE_IMU963RA
   *DEL*:           00001EH   BYTE   INSEG    CODE           ?PR?IMU963RA_WRITE_ACC_GYRO_REGISTER?SEEKFREE_IMU963RA
   *DEL*:           000023H   BYTE   INSEG    CODE           ?PR?IMU963RA_SIMSPI_W_REG_BYTE?SEEKFREE_IMU963RA
   *DEL*:           00011DH   BYTE   INSEG    CODE           ?PR?IMU963RA_INIT?SEEKFREE_IMU963RA
   *DEL*:           00004EH   BYTE   INSEG    CODE           ?PR?IMU963RA_ACC_GYRO_SELF_CHECK?SEEKFREE_IMU963RA
   *DEL*:           000056H   BYTE   INSEG    CODE           ?PR?IMU963RA_GET_ACC?SEEKFREE_IMU963RA
   *DEL*:           000071H   BYTE   INSEG    CODE           ?PR?IMU963RA_GET_MAG?SEEKFREE_IMU963RA
   *DEL*:           0000ADH   BYTE   INSEG    CODE           ?PR?IPS114_SHOWUINT8?SEEKFREE_IPS114_SPI
   *DEL*:           0000F8H   BYTE   INSEG    CODE           ?PR?IPS114_SHOWINT8?SEEKFREE_IPS114_SPI
   *DEL*:           000034H   BYTE   INSEG    CODE           ?PR?IPS114_WRITEDATA_16BIT?SEEKFREE_IPS114_SPI
   *DEL*:           0001ABH   BYTE   INSEG    CODE           ?PR?IPS114_SHOWFLOAT?SEEKFREE_IPS114_SPI
   *DEL*:           000037H   BYTE   INSEG    CODE           ?PR?IPS114_DRAWPOINT?SEEKFREE_IPS114_SPI
   *DEL*:           0000CBH   BYTE   INSEG    CODE           ?PR?IPS114_SHOWCHAR?SEEKFREE_IPS114_SPI
   *DEL*:           0000E1H   BYTE   INSEG    CODE           ?PR?IPS114_SHOWUINT16?SEEKFREE_IPS114_SPI
   *DEL*:           0000FBH   BYTE   INSEG    CODE           ?PR?IPS114_SHOWINT32?SEEKFREE_IPS114_SPI
   *DEL*:           000137H   BYTE   INSEG    CODE           ?PR?IPS114_SHOWINT16?SEEKFREE_IPS114_SPI
   *DEL*:           000068H   BYTE   INSEG    CODE           ?PR?IPS114_CLEAR?SEEKFREE_IPS114_SPI
   *DEL*:           000077H   BYTE   INSEG    CODE           ?PR?IPS114_SHOWSTR?SEEKFREE_IPS114_SPI
   *DEL*:           000015H   BYTE   INSEG    CODE           ?PR?IPS114_WRITEINDEX?SEEKFREE_IPS114_SPI
   *DEL*:           000015H   BYTE   INSEG    CODE           ?PR?IPS114_WRITEDATA?SEEKFREE_IPS114_SPI
   *DEL*:           000064H   BYTE   INSEG    CODE           ?PR?IPS114_SET_REGION?SEEKFREE_IPS114_SPI
   *DEL*:           000178H   BYTE   INSEG    CODE           ?PR?IPS114_INIT?SEEKFREE_IPS114_SPI
   *DEL*:           000057H   BYTE   INSEG    CODE           ?PR?OLED_PUTPIXEL?SEEKFREE_OLED
   *DEL*:           00003DH   BYTE   INSEG    CODE           ?PR?OLED_SET_POS?SEEKFREE_OLED
   *DEL*:           0004E4H   BYTE   INSEG    CODE           ?PR?OLED_DIS_BMP_SPI?SEEKFREE_OLED
   *DEL*:           0001D3H   BYTE   INSEG    CODE           ?PR?OLED_PRINTF_FLOAT?SEEKFREE_OLED
   *DEL*:           00004EH   BYTE   INSEG    CODE           ?PR?OLED_CLRPIXEL_SPI?SEEKFREE_OLED
   *DEL*:           000049H   BYTE   INSEG    CODE           ?PR?OLED_WRCMD?SEEKFREE_OLED
   *DEL*:           000074H   BYTE   INSEG    CODE           ?PR?TEST_OLED?SEEKFREE_OLED
   *DEL*:           0000F4H   BYTE   INSEG    CODE           ?PR?OLED_PRINT_CHINESE_SPI?SEEKFREE_OLED
   *DEL*:           000049H   BYTE   INSEG    CODE           ?PR?OLED_WRDAT?SEEKFREE_OLED
   *DEL*:           00005DH   BYTE   INSEG    CODE           ?PR?OLED_FILL?SEEKFREE_OLED
   *DEL*:           000116H   BYTE   INSEG    CODE           ?PR?OLED_PRINTF_INT32?SEEKFREE_OLED
   *DEL*:           000037H   BYTE   INSEG    CODE           ?PR?OLED_UINT16?SEEKFREE_OLED
   *DEL*:           000057H   BYTE   INSEG    CODE           ?PR?OLED_PUTPIXEL_SPI?SEEKFREE_OLED
   *DEL*:           0000E3H   BYTE   INSEG    CODE           ?PR?OLED_P6X8STR?SEEKFREE_OLED
   *DEL*:           00008BH   BYTE   INSEG    CODE           ?PR?OLED_INT16?SEEKFREE_OLED
   *DEL*:           0000A8H   BYTE   INSEG    CODE           ?PR?OLED_INIT?SEEKFREE_OLED
   *DEL*:           000086H   BYTE   INSEG    CODE           ?PR?OLED_HEXASCII?SEEKFREE_OLED
   *DEL*:           000116H   BYTE   INSEG    CODE           ?PR?OLED_PRINTF_INT32_SPI?SEEKFREE_OLED
   *DEL*:           000519H   BYTE   INSEG    CODE           ?PR?OLED_DIS_BMP?SEEKFREE_OLED
   *DEL*:           00004EH   BYTE   INSEG    CODE           ?PR?OLED_CLRPIXEL?SEEKFREE_OLED
   *DEL*:           0000F4H   BYTE   INSEG    CODE           ?PR?OLED_PRINT_CHINESE?SEEKFREE_OLED
   *DEL*:           0000ACH   BYTE   INSEG    CODE           ?PR?CCD_SEND_DATA?SEEKFREE_TSL1401
   *DEL*:           000022H   BYTE   INSEG    CODE           ?PR?CCD_INIT?SEEKFREE_TSL1401
   *DEL*:           00004EH   BYTE   INSEG    CODE           ?PR?WIRELESS_UART_READ_BUFF?SEEKFREE_WIRELESS
   *DEL*:           0000C4H   BYTE   INSEG    CODE           ?PR?WIRELESS_UART_SEND_BUFF?SEEKFREE_WIRELESS
   *DEL*:           00001EH   BYTE   INSEG    CODE           ?PR?WIRELESS_UART_SEND_BYTE?SEEKFREE_WIRELESS
   *DEL*:           0000AEH   BYTE   INSEG    CODE           ?PR?GET_DOUBLE_NUMBER?SEEKFREE_GPS_TAU1201
   *DEL*:           000097H   BYTE   INSEG    CODE           ?PR?GET_FLOAT_NUMBER?SEEKFREE_GPS_TAU1201
   *DEL*:           0001CEH   BYTE   INSEG    CODE           ?PR?UTC_TO_BTC?SEEKFREE_GPS_TAU1201
   *DEL*:           000372H   BYTE   INSEG    CODE           ?PR?GET_TWO_POINTS_DISTANCE?SEEKFREE_GPS_TAU1201
   *DEL*:           000102H   BYTE   INSEG    CODE           ?PR?GPS_GNGGA_PARSE?SEEKFREE_GPS_TAU1201
   *DEL*:           00075CH   BYTE   INSEG    CODE           ?PR?GPS_GNRMC_PARSE?SEEKFREE_GPS_TAU1201
   *DEL*:           000212H   BYTE   INSEG    CODE           ?PR?GPS_DATA_PARSE?SEEKFREE_GPS_TAU1201
   *DEL*:           000088H   BYTE   INSEG    CODE           ?PR?GET_INT_NUMBER?SEEKFREE_GPS_TAU1201
   *DEL*:           00030CH   BYTE   INSEG    CODE           ?PR?GPS_INIT?SEEKFREE_GPS_TAU1201
   *DEL*:           0000D3H   BYTE   INSEG    CODE           ?PR?GET_PARAMETER_INDEX?SEEKFREE_GPS_TAU1201
   *DEL*:           000564H   BYTE   INSEG    CODE           ?PR?GET_TWO_POINTS_AZIMUTH?SEEKFREE_GPS_TAU1201
L251 LINKER/LOCATER V4.66.93.0                                                        06/19/2025  15:56:37  PAGE 14


   *DEL*:           00019DH   BYTE   INSEG    CODE           ?PR?IPS200_SHOW_FLOAT?SEEKFREE_IPS200_SPI
   *DEL*:           00003DH   BYTE   INSEG    CODE           ?PR?IPS200_DRAW_POINT?SEEKFREE_IPS200_SPI
   *DEL*:           000086H   BYTE   INSEG    CODE           ?PR?IPS200_SHOW_STRING?SEEKFREE_IPS200_SPI
   *DEL*:           000147H   BYTE   INSEG    CODE           ?PR?IPS200_SHOW_CHAR?SEEKFREE_IPS200_SPI
   *DEL*:           000025H   BYTE   INSEG    CODE           ?PR?IPS200_SET_COLOR?SEEKFREE_IPS200_SPI
   *DEL*:           0001E6H   BYTE   INSEG    CODE           ?PR?IPS200_SHOW_WAVE?SEEKFREE_IPS200_SPI
   *DEL*:           00002DH   BYTE   INSEG    CODE           ?PR?IPS200_WRITE_16BIT_DATA_SPI?SEEKFREE_IPS200_SPI
   *DEL*:           0001D6H   BYTE   INSEG    CODE           ?PR?IPS200_INIT_SPI?SEEKFREE_IPS200_SPI
   *DEL*:           0000E8H   BYTE   INSEG    CODE           ?PR?IPS200_SHOW_UINT?SEEKFREE_IPS200_SPI
   *DEL*:           000013H   BYTE   INSEG    CODE           ?PR?IPS200_SET_FONT?SEEKFREE_IPS200_SPI
   *DEL*:           00004BH   BYTE   INSEG    CODE           ?PR?IPS200_SET_DIR?SEEKFREE_IPS200_SPI
   *DEL*:           0000EEH   BYTE   INSEG    CODE           ?PR?IPS200_SHOW_INT?SEEKFREE_IPS200_SPI
   *DEL*:           00001EH   BYTE   INSEG    CODE           ?PR?IPS200_WRITE_COMMAND?SEEKFREE_IPS200_SPI
   *DEL*:           000015H   BYTE   INSEG    CODE           ?PR?IPS200_WRITE_8BIT_DATA?SEEKFREE_IPS200_SPI
   *DEL*:           0001B6H   BYTE   INSEG    CODE           ?PR?IPS200_SHOW_CHINESE?SEEKFREE_IPS200_SPI
   *DEL*:           000081H   BYTE   INSEG    CODE           ?PR?IPS200_CLEAR?SEEKFREE_IPS200_SPI
   *DEL*:           00000CH   BYTE   INSEG    CODE           ?PR?IPS200_WRITE_8BIT_DATA_SPI?SEEKFREE_IPS200_SPI
   *DEL*:           000019H   BYTE   INSEG    CODE           ?PR?IPS200_WRITE_16BIT_DATA?SEEKFREE_IPS200_SPI
   *DEL*:           000087H   BYTE   INSEG    CODE           ?PR?IPS200_FULL?SEEKFREE_IPS200_SPI
   *DEL*:           00004CH   BYTE   INSEG    CODE           ?PR?IPS200_SET_REGION?SEEKFREE_IPS200_SPI
   *DEL*:           00025FH   BYTE   INSEG    CODE           ?PR?IPS200_DRAW_LINE?SEEKFREE_IPS200_SPI
   *DEL*:           000065H   BYTE   INSEG    CODE           ?PR?TEST_MPU6050?SEEKFREE_MPU6050
   *DEL*:           00005CH   BYTE   INSEG    CODE           ?PR?MPU6050_GET_ACCDATA?SEEKFREE_MPU6050
   *DEL*:           00023CH   BYTE   INSEG    CODE           ?PR?HUANDAO?CONTROL
   *DEL*:           0004A6H   BYTE   INSEG    CODE           ?PR?SEEKFREE_ASSISTANT_CAMERA_BOUNDARY_CONFIG?SEEKFREE_ASS
                                                             -ISTANT
   *DEL*:           000142H   BYTE   INSEG    CODE           ?PR?SEEKFREE_ASSISTANT_CAMERA_DOT_SEND?SEEKFREE_ASSISTANT
   *DEL*:           00002EH   BYTE   INSEG    CODE           ?PR?SEEKFREE_ASSISTANT_INIT?SEEKFREE_ASSISTANT
   *DEL*:           000061H   BYTE   INSEG    CODE           ?PR?SEEKFREE_ASSISTANT_CAMERA_INFORMATION_CONFIG?SEEKFREE_
                                                             -ASSISTANT
   *DEL*:           00026CH   BYTE   INSEG    CODE           ?PR?SEEKFREE_ASSISTANT_DATA_ANALYSIS?SEEKFREE_ASSISTANT
   *DEL*:           00015FH   BYTE   INSEG    CODE           ?PR?SEEKFREE_ASSISTANT_CAMERA_DATA_SEND?SEEKFREE_ASSISTANT
   *DEL*:           00004AH   BYTE   INSEG    CODE           ?PR?SEEKFREE_ASSISTANT_CAMERA_SEND?SEEKFREE_ASSISTANT
   *DEL*:           00019BH   BYTE   INSEG    CODE           ?PR?POW?_?POW
   *DEL*:           000030H   BYTE   INSEG    CODE           ?PR?STRNCPY?_?STRNCPY
   *DEL*:           00000EH   BYTE   INSEG    CODE           ?PR?STRLEN?_?STRLEN
   *DEL*:           00001FH   BYTE   INSEG    CODE           ?PR?STRCHR?_?STRCHR



OVERLAY MAP OF MODULE:   .\Out_File\Trigger (board)


FUNCTION/MODULE                               XDATA_GROUP
--> CALLED FUNCTION/MODULE                    START  STOP
=========================================================
?C_C51STARTUP                                 ----- -----

*** NEW ROOT ********************************

?C_C51STARTUP?3                               ----- -----
  +--> main/main

main/main                                     ----- -----
  +--> board_init/board
  +--> All_Init/main
  +--> Key_Pro/Control
  +--> oled_p6x8str_spi/SEEKFREE_OLED
  +--> oled_int16_spi/SEEKFREE_OLED
  +--> oled_uint16_spi/SEEKFREE_OLED
  +--> oled_printf_float_spi/SEEKFREE_OLED

board_init/board                              ----- -----
  +--> set_clk/board
  +--> delay_init/zf_delay
L251 LINKER/LOCATER V4.66.93.0                                                        06/19/2025  15:56:37  PAGE 15


  +--> uart_init/zf_uart
  +--> EnableGlobalIRQ/board

set_clk/board                                 ----- -----

delay_init/zf_delay                           ----- -----
  +--> ?C?SLDIV/?C?SLDIV

?C?SLDIV/?C?SLDIV                             ----- -----
  +--> ?C?ULIDIV/?C?ULDIV

?C?ULIDIV/?C?ULDIV                            ----- -----

uart_init/zf_uart                             ----- -----
  +--> ?C?ULIDIV/?C?ULDIV

EnableGlobalIRQ/board                         ----- -----

All_Init/main                                 ----- -----
  +--> oled_init_spi/SEEKFREE_OLED
  +--> oled_fill_spi/SEEKFREE_OLED
  +--> adc_init_5/zf_adc
  +--> adc_init/zf_adc
  +--> Motor_Init/zf_pwm
  +--> ctimer_count_init/zf_tim
  +--> gpio_mode/zf_gpio
  +--> mpu6050_init/SEEKFREE_MPU6050
  +--> pit_timer_ms/zf_tim

oled_init_spi/SEEKFREE_OLED                   ----- -----
  +--> spi_init/zf_spi
  +--> delay_ms/zf_delay
  +--> oled_wrcmd_spi/SEEKFREE_OLED
  +--> oled_fill_spi/SEEKFREE_OLED
  +--> oled_set_pos_spi/SEEKFREE_OLED

spi_init/zf_spi                               ----- -----
  +--> gpio_mode/zf_gpio

gpio_mode/zf_gpio                             ----- -----

delay_ms/zf_delay                             ----- -----

oled_wrcmd_spi/SEEKFREE_OLED                  ----- -----
  +--> spi_mosi/zf_spi

spi_mosi/zf_spi                               ----- -----

oled_fill_spi/SEEKFREE_OLED                   ----- -----
  +--> oled_wrcmd_spi/SEEKFREE_OLED
  +--> oled_wrdat_spi/SEEKFREE_OLED

oled_wrdat_spi/SEEKFREE_OLED                  ----- -----
  +--> spi_mosi/zf_spi

oled_set_pos_spi/SEEKFREE_OLED                ----- -----
  +--> oled_wrcmd_spi/SEEKFREE_OLED

adc_init_5/zf_adc                             ----- -----
  +--> adc_init/zf_adc

adc_init/zf_adc                               ----- -----

Motor_Init/zf_pwm                             ----- -----
  +--> pwm_init/zf_pwm
L251 LINKER/LOCATER V4.66.93.0                                                        06/19/2025  15:56:37  PAGE 16


  +--> gpio_mode/zf_gpio

pwm_init/zf_pwm                               ----- -----
  +--> pwm_set_gpio/zf_pwm
  +--> ?C?ULIDIV/?C?ULDIV

pwm_set_gpio/zf_pwm                           ----- -----
  +--> gpio_mode/zf_gpio

ctimer_count_init/zf_tim                      ----- -----

mpu6050_init/SEEKFREE_MPU6050                 ----- -----
  +--> delay_ms/zf_delay
  +--> mpu6050_self1_check/SEEKFREE_MPU6050
  +--> mpu6050_simiic_write_reg/SEEKFREE_MPU6050

mpu6050_self1_check/SEEKFREE_MPU6050          ----- -----
  +--> mpu6050_simiic_write_reg/SEEKFREE_MPU6050
  +--> mpu6050_simiic_read_reg/SEEKFREE_MPU6050
  +--> PRINTF/PRINTF

mpu6050_simiic_write_reg/SEEKFREE_MPU605+     ----- -----
... 0
  +--> mpu6050_simiic_start/SEEKFREE_MPU6050
  +--> mpu6050_send_ch/SEEKFREE_MPU6050
  +--> mpu6050_simiic_stop/SEEKFREE_MPU6050

mpu6050_simiic_start/SEEKFREE_MPU6050         ----- -----
  +--> mpu6050_simiic_delay/SEEKFREE_MPU6050

mpu6050_simiic_delay/SEEKFREE_MPU6050         ----- -----

mpu6050_send_ch/SEEKFREE_MPU6050              ----- -----
  +--> mpu6050_simiic_delay/SEEKFREE_MPU6050
  +--> mpu6050_sccb_waitack/SEEKFREE_MPU6050

mpu6050_sccb_waitack/SEEKFREE_MPU6050         ----- -----
  +--> mpu6050_simiic_delay/SEEKFREE_MPU6050

mpu6050_simiic_stop/SEEKFREE_MPU6050          ----- -----
  +--> mpu6050_simiic_delay/SEEKFREE_MPU6050

mpu6050_simiic_read_reg/SEEKFREE_MPU6050      ----- -----
  +--> mpu6050_simiic_start/SEEKFREE_MPU6050
  +--> mpu6050_send_ch/SEEKFREE_MPU6050
  +--> mpu6050_read_ch/SEEKFREE_MPU6050
  +--> mpu6050_simiic_stop/SEEKFREE_MPU6050

mpu6050_read_ch/SEEKFREE_MPU6050              ----- -----
  +--> mpu6050_simiic_delay/SEEKFREE_MPU6050
  +--> mpu6050_simiic_sendack/SEEKFREE_MPU6050

mpu6050_simiic_sendack/SEEKFREE_MPU6050       ----- -----
  +--> mpu6050_simiic_delay/SEEKFREE_MPU6050

PRINTF/PRINTF                                 0858H 087FH
  +--> OUT/PRINTF

OUT/PRINTF                                    ----- -----
  +--> PUTCH/PRINTF

PUTCH/PRINTF                                  ----- -----
  +--> putchar/board
  +--> OUT/PRINTF

L251 LINKER/LOCATER V4.66.93.0                                                        06/19/2025  15:56:37  PAGE 17


putchar/board                                 ----- -----
  +--> uart_putchar/zf_uart

uart_putchar/zf_uart                          ----- -----

pit_timer_ms/zf_tim                           ----- -----
  +--> ?C?SLDIV/?C?SLDIV

Key_Pro/Control                               ----- -----
  +--> Key_Single_Double/Key
  +--> Test_Wireless_Oscilloscope/SEEKFREE_WIRELESS
  +--> ADC_Voltage/zf_adc

Key_Single_Double/Key                         ----- -----

Test_Wireless_Oscilloscope/SEEKFREE_WIRE+     ----- -----
... LESS
  +--> wireless_uart_init/SEEKFREE_WIRELESS
  +--> seekfree_assistant_transfer_callback/SEEKFREE_WIRELESS
  +--> seekfree_assistant_oscilloscope_send/seekfree_assistant

wireless_uart_init/SEEKFREE_WIRELESS          ----- -----
  +--> wireless_uart_callback/SEEKFREE_WIRELESS
  +--> fifo_init/zf_fifo
  +--> uart_init/zf_uart

wireless_uart_callback/SEEKFREE_WIRELESS      ----- -----
  +--> fifo_write_buffer/zf_fifo

fifo_write_buffer/zf_fifo                     ----- -----
  +--> memcpy?_/memcpy
  +--> fifo_head_offset/zf_fifo

memcpy?_/memcpy                               ----- -----

fifo_head_offset/zf_fifo                      ----- -----

fifo_init/zf_fifo                             ----- -----

seekfree_assistant_transfer_callback/SEE+     ----- -----
... KFREE_WIRELESS
  +--> uart_putbuff/zf_uart

uart_putbuff/zf_uart                          ----- -----
  +--> uart_putchar/zf_uart

seekfree_assistant_oscilloscope_send/see+     ----- -----
... kfree_assistant
  +--> seekfree_assistant_sum/seekfree_assistant

seekfree_assistant_sum/seekfree_assistan+     ----- -----
... t

ADC_Voltage/zf_adc                            ----- -----
  +--> adc_once/zf_adc

adc_once/zf_adc                               ----- -----

oled_p6x8str_spi/SEEKFREE_OLED                ----- -----
  +--> oled_set_pos_spi/SEEKFREE_OLED
  +--> oled_wrdat_spi/SEEKFREE_OLED

oled_int16_spi/SEEKFREE_OLED                  ----- -----
  +--> oled_p6x8str_spi/SEEKFREE_OLED
  +--> oled_hexascii_spi/SEEKFREE_OLED
L251 LINKER/LOCATER V4.66.93.0                                                        06/19/2025  15:56:37  PAGE 18



oled_hexascii_spi/SEEKFREE_OLED               ----- -----

oled_uint16_spi/SEEKFREE_OLED                 ----- -----
  +--> oled_hexascii_spi/SEEKFREE_OLED
  +--> oled_p6x8str_spi/SEEKFREE_OLED

oled_printf_float_spi/SEEKFREE_OLED           ----- -----
  +--> zf_sprintf/SEEKFREE_PRINTF
  +--> oled_p6x8str_spi/SEEKFREE_OLED

zf_sprintf/SEEKFREE_PRINTF                    ----- -----
  +--> number_conversion_ascii/SEEKFREE_PRINTF
  +--> printf_reverse_order/SEEKFREE_PRINTF
  +--> memcpy?_/memcpy

number_conversion_ascii/SEEKFREE_PRINTF       ----- -----
  +--> ?C?SLDIV/?C?SLDIV
  +--> ?C?ULIDIV/?C?ULDIV

printf_reverse_order/SEEKFREE_PRINTF          ----- -----

*** NEW ROOT ********************************

UART1_Isr/isr                                 ----- -----

*** NEW ROOT ********************************

UART2_Isr/isr                                 ----- -----
  +--> gps_uart_callback/SEEKFREE_GPS_TAU1201

gps_uart_callback/SEEKFREE_GPS_TAU1201        ----- -----
  +--> fifo_write_buffer/zf_fifo
  +--> fifo_read_buffer/zf_fifo
  +--> strncmp?_/STRNCMP
  +--> fifo_used/zf_fifo
  +--> fifo_clear/zf_fifo

fifo_read_buffer/zf_fifo                      ----- -----
  +--> fifo_used/zf_fifo
  +--> memcpy?_/memcpy
  +--> fifo_end_offset/zf_fifo

fifo_used/zf_fifo                             ----- -----

fifo_end_offset/zf_fifo                       ----- -----

strncmp?_/STRNCMP                             ----- -----

fifo_clear/zf_fifo                            ----- -----
  +--> memset?_/memset

memset?_/memset                               ----- -----

*** NEW ROOT ********************************

UART3_Isr/isr                                 ----- -----

*** NEW ROOT ********************************

UART4_Isr/isr                                 ----- -----

*** NEW ROOT ********************************

INT0_Isr/isr                                  ----- -----
L251 LINKER/LOCATER V4.66.93.0                                                        06/19/2025  15:56:37  PAGE 19



*** NEW ROOT ********************************

INT1_Isr/isr                                  ----- -----

*** NEW ROOT ********************************

INT2_Isr/isr                                  ----- -----

*** NEW ROOT ********************************

INT3_Isr/isr                                  ----- -----

*** NEW ROOT ********************************

INT4_Isr/isr                                  ----- -----

*** NEW ROOT ********************************

TM0_Isr/isr                                   ----- -----

*** NEW ROOT ********************************

TM1_Isr/isr                                   ----- -----
  +--> Ultima_Control/Control

Ultima_Control/Control                        ----- -----
  +--> Motor_Control/Control
  +--> Key_Pro/Control

Motor_Control/Control                         ----- -----
  +--> Read_Encoder/zf_tim
  +--> mpu6050_get_gyro/SEEKFREE_MPU6050
  +--> ADC_Measure/Control
  +--> Loc_pid/Control
  +--> PID_Realize/Control
  +--> range_protect/Control
  +--> Motor_Ctrl/zf_pwm

Read_Encoder/zf_tim                           ----- -----
  +--> ctimer_count_read/zf_tim
  +--> ctimer_count_clean/zf_tim

ctimer_count_read/zf_tim                      ----- -----

ctimer_count_clean/zf_tim                     ----- -----

mpu6050_get_gyro/SEEKFREE_MPU6050             ----- -----
  +--> mpu6050_simiic_read_regs/SEEKFREE_MPU6050

mpu6050_simiic_read_regs/SEEKFREE_MPU605+     ----- -----
... 0
  +--> mpu6050_simiic_start/SEEKFREE_MPU6050
  +--> mpu6050_send_ch/SEEKFREE_MPU6050
  +--> mpu6050_read_ch/SEEKFREE_MPU6050
  +--> mpu6050_simiic_stop/SEEKFREE_MPU6050

ADC_Measure/Control                           ----- -----
  +--> ADC_Median_Average/zf_adc

ADC_Median_Average/zf_adc                     ----- -----
  +--> adc_once/zf_adc

Loc_pid/Control                               ----- -----
  +--> absolute/Control
L251 LINKER/LOCATER V4.66.93.0                                                        06/19/2025  15:56:37  PAGE 20



absolute/Control                              ----- -----

PID_Realize/Control                           ----- -----

range_protect/Control                         ----- -----

Motor_Ctrl/zf_pwm                             ----- -----
  +--> pwm_duty/zf_pwm

pwm_duty/zf_pwm                               ----- -----

*** NEW ROOT ********************************

TM2_Isr/isr                                   ----- -----

*** NEW ROOT ********************************

TM3_Isr/isr                                   ----- -----

*** NEW ROOT ********************************

TM4_Isr/isr                                   ----- -----
  +--> ccd_collect/SEEKFREE_TSL1401

ccd_collect/SEEKFREE_TSL1401                  ----- -----
  +--> adc_once/zf_adc

*** NEW ROOT ********************************

?C_C51STARTUP?1                               ----- -----

*** NEW ROOT ********************************

?C_C51STARTUP?2                               ----- -----



PUBLIC SYMBOLS OF MODULE:  .\Out_File\Trigger (board)


      VALUE       CLASS    TYPE      PUBLIC SYMBOL NAME
      =================================================
      00FF37F7H   CODE     ---       ?C?BMOVEPP
      00FF37F5H   CODE     ---       ?C?BMOVEPP8
      00FF24AEH   CODE     NEAR LAB  ?C?CASTD
      00FF36F6H   CODE     NEAR LAB  ?C?CASTF
      000000FFH   NUMBER   ---       ?C?CODESEG
      00FF246BH   CODE     NEAR LAB  ?C?DCASTC
      00FF250EH   CODE     NEAR LAB  ?C?DCASTF
      00FF2466H   CODE     NEAR LAB  ?C?DCASTI
      00FF2461H   CODE     NEAR LAB  ?C?DCASTL
      00FF2EC2H   CODE     ---       ?C?DP2SERIES
      00FF2134H   CODE     ---       ?C?DPADD
      00FF23F4H   CODE     ---       ?C?DPCMP
      00FF23F2H   CODE     ---       ?C?DPCMP3
      00FF31ADH   CODE     ---       ?C?DPCONVERT
      00FF2353H   CODE     ---       ?C?DPDIV
      00FF29E4H   CODE     ---       ?C?DPGETOPN2
      00FF2243H   CODE     ---       ?C?DPMUL
      00FF2A2FH   CODE     ---       ?C?DPNANRESULT
      00FF2453H   CODE     ---       ?C?DPNEG
      00FF2A3BH   CODE     ---       ?C?DPOVERFLOW
      00FF2A07H   CODE     ---       ?C?DPRESULT
      00FF2A20H   CODE     ---       ?C?DPRESULT2
L251 LINKER/LOCATER V4.66.93.0                                                        06/19/2025  15:56:37  PAGE 21


      00FF32D4H   CODE     ---       ?C?DPROUND
      00FF2ECDH   CODE     ---       ?C?DPSERIES
      00FF2130H   CODE     ---       ?C?DPSUB
      00FF2A36H   CODE     ---       ?C?DPUNDERFLOW
      00FF33AFH   CODE     ---       ?C?DTNPWR
      00FF36C3H   CODE     NEAR LAB  ?C?FCASTC
      00FF2550H   CODE     NEAR LAB  ?C?FCASTD
      00FF36BEH   CODE     NEAR LAB  ?C?FCASTI
      00FF36B9H   CODE     NEAR LAB  ?C?FCASTL
      00FF348CH   CODE     ---       ?C?FPADD
      00FF3667H   CODE     ---       ?C?FPCMP
      00FF3665H   CODE     ---       ?C?FPCMP3
      00FF35E4H   CODE     ---       ?C?FPDIV
      00FF3435H   CODE     ---       ?C?FPGETOPN2
      00FF3544H   CODE     ---       ?C?FPMUL
      00FF3472H   CODE     ---       ?C?FPNANRESULT
      00FF36ABH   CODE     ---       ?C?FPNEG
      00FF347AH   CODE     ---       ?C?FPOVERFLOW
      00FF344EH   CODE     ---       ?C?FPRESULT
      00FF3464H   CODE     ---       ?C?FPRESULT2
      00FF3489H   CODE     ---       ?C?FPSUB
      00FF3477H   CODE     ---       ?C?FPUNDERFLOW
      00FFA016H   CODE     ---       ?C?INITHDATA
      00FFACB3H   HCONST   WORD      ?C?INITHDATA_END
      00FF3765H   CODE     ---       ?C?LIMUL
      00FF2A94H   CODE     ---       ?C?PRNFMT
      00FF3733H   CODE     ---       ?C?SIDIV
      00FF37C1H   CODE     NEAR LAB  ?C?SLDIV
      00FF0000H   CODE     ---       ?C?STARTUP
      00FF3770H   CODE     NEAR LAB  ?C?ULDIV
      00FF376EH   CODE     NEAR LAB  ?C?ULIDIV
      00000001H   NUMBER   ---       ?C?XDATASEG
      00FF0000H   CODE     ---       ?C_STARTUP
      00010B06H   XDATA    BYTE      ?dl1b_iic_transfer_8bit_array?BYTE
      00010AE6H   XDATA    BYTE      ?fifo_init?BYTE
      000109C6H   XDATA    BYTE      ?fifo_read_buffer?BYTE
      00010BDEH   XDATA    BYTE      ?fifo_read_element?BYTE
      000109DEH   XDATA    BYTE      ?fifo_read_tail_buffer?BYTE
      00010A90H   XDATA    BYTE      ?fifo_write_buffer?BYTE
      000106A1H   XDATA    BYTE      ?func_double_to_str?BYTE
      000106DDH   XDATA    BYTE      ?get_two_points_azimuth?BYTE
      000105FEH   XDATA    BYTE      ?get_two_points_distance?BYTE
      00010C68H   XDATA    BYTE      ?iap_read_bytes?BYTE
      00010C72H   XDATA    BYTE      ?iap_write_bytes?BYTE
      00010DE9H   XDATA    BYTE      ?iic_init?BYTE
      00010B16H   XDATA    BYTE      ?ips114_showfloat?BYTE
      00010A3EH   XDATA    BYTE      ?ips200_draw_line?BYTE
      000109ADH   XDATA    BYTE      ?ips200_show_chinese?BYTE
      0001077DH   XDATA    BYTE      ?ips200_show_float?BYTE
      000108A5H   XDATA    BYTE      ?ips200_show_wave?BYTE
      00010AF6H   XDATA    BYTE      ?lcd_showfloat?BYTE
      00010A26H   XDATA    BYTE      ?Loc_pid?BYTE
      00010A7CH   XDATA    BYTE      ?number_conversion_ascii?BYTE
      00010715H   XDATA    BYTE      ?oled_printf_float?BYTE
      00010749H   XDATA    BYTE      ?oled_printf_float_spi?BYTE
      000108C5H   XDATA    BYTE      ?PID_Realize?BYTE
      00010880H   XDATA    ---       ?printf?BYTE
      00010A68H   XDATA    BYTE      ?pwm_freq?BYTE
      00010A54H   XDATA    BYTE      ?pwm_init?BYTE
      00010A0EH   XDATA    BYTE      ?range_protect?BYTE
      000108E5H   XDATA    BYTE      ?seekfree_assistant_camera_boundary_config?BYTE
      00010B46H   XDATA    BYTE      ?seekfree_assistant_camera_data_send?BYTE
      00010C9AH   XDATA    BYTE      ?seekfree_assistant_camera_information_config?BYTE
      00010BB7H   XDATA    BYTE      ?spi_init?BYTE
      00010B63H   XDATA    BYTE      ?uart_init?BYTE
L251 LINKER/LOCATER V4.66.93.0                                                        06/19/2025  15:56:37  PAGE 22


      00010C7CH   XDATA    BYTE      ?uart_putbuff?BYTE
      000105C3H   XDATA    BYTE      ?zf_sprintf?BYTE
      00FF2A49H   CODE     ---       _chkdouble_?_
      00FFA321H   CODE     ---       absolute
*SFR* 000000D0H.6 DATA     BIT       AC
*SFR* 000000E0H   DATA     BYTE      ACC
*SFR* 000000BCH   DATA     BYTE      ADC_CONTR
      00FF94D7H   CODE     ---       adc_init
      00FFA45BH   CODE     ---       adc_init_5
      000102F9H   XDATA    ---       adc_max
      00FF68E1H   CODE     ---       ADC_Measure
      00FF8CC5H   CODE     ---       ADC_Median_Average
      000102EDH   XDATA    ---       adc_min
      00FF9723H   CODE     ---       adc_once
*SFR* 000000BDH   DATA     BYTE      ADC_RES
*SFR* 000000BEH   DATA     BYTE      ADC_RESL
      00FF9B00H   CODE     ---       ADC_Voltage
*SFR* 000000DEH   DATA     BYTE      ADCCFG
      00FFA2C9H   CODE     ---       All_Init
      00FF381EH   CODE     ---       ascii_font_8x16
      00FF29BAH   CODE     ---       asin?_
      00FF289FH   CODE     ---       atan?_
*SFR* 000000EFH   DATA     BYTE      AUXINTIF
*SFR* 0000008EH   DATA     BYTE      AUXR
*SFR* 00000097H   DATA     BYTE      AUXR2
*SFR* 000000F0H   DATA     BYTE      B
      0001023BH   XDATA    WORD      Bat_Vol
*DEL*:00000000H   CODE     ---       ble6a20_callback
*DEL*:00000000H   CODE     ---       ble6a20_init
*DEL*:00000000H   CODE     ---       ble6a20_read_buff
*DEL*:00000000H   CODE     ---       ble6a20_send_buff
*DEL*:00000000H   CODE     ---       ble6a20_send_byte
      00FF987EH   CODE     ---       board_init
      00010E7CH   XDATA    ---       busy
*SFR* 000000C8H.1 DATA     BIT       C_T2
*SFR* 000000F1H   DATA     BYTE      CANICR
*SFR* 000000FAH   DATA     BYTE      CCAP0H
*SFR* 000000EAH   DATA     BYTE      CCAP0L
*SFR* 000000FBH   DATA     BYTE      CCAP1H
*SFR* 000000EBH   DATA     BYTE      CCAP1L
*SFR* 000000FCH   DATA     BYTE      CCAP2H
*SFR* 000000ECH   DATA     BYTE      CCAP2L
*SFR* 000000FDH   DATA     BYTE      CCAP3H
*SFR* 000000EDH   DATA     BYTE      CCAP3L
*SFR* 000000FEH   DATA     BYTE      CCAP4H
*SFR* 000000EEH   DATA     BYTE      CCAP4L
*SFR* 000000DAH   DATA     BYTE      CCAPM0
*SFR* 000000DBH   DATA     BYTE      CCAPM1
*SFR* 000000DCH   DATA     BYTE      CCAPM2
*SFR* 000000DDH   DATA     BYTE      CCAPM3
*SFR* 000000DEH   DATA     BYTE      CCAPM4
      00FF9DC2H   CODE     ---       ccd_collect
      00000022H   EDATA    ---       ccd_data_ch1
      00000122H   EDATA    ---       ccd_data_ch2
*DEL*:00000000H   CODE     ---       ccd_init
*DEL*:00000000H   CODE     ---       ccd_send_data
*SFR* 000000D8H.0 DATA     BIT       CCF0
*SFR* 000000D8H.1 DATA     BIT       CCF1
*SFR* 000000D8H.2 DATA     BIT       CCF2
*SFR* 000000D8H.3 DATA     BIT       CCF3
*SFR* 000000D8H.4 DATA     BIT       CCF4
*SFR* 000000D8H   DATA     BYTE      CCON
*SFR* 00000090H.3 DATA     BIT       CEX0
*SFR* 00000090H.4 DATA     BIT       CEX1
*SFR* 00000090H.5 DATA     BIT       CEX2
L251 LINKER/LOCATER V4.66.93.0                                                        06/19/2025  15:56:37  PAGE 23


*SFR* 00000090H.6 DATA     BIT       CEX3
*SFR* 00000090H.7 DATA     BIT       CEX4
*SFR* 000000D8H.7 DATA     BIT       CF
*SFR* 000000F9H   DATA     BYTE      CH
*SFR* 000000EAH   DATA     BYTE      CKCON
*SFR* 000000E9H   DATA     BYTE      CL
*SFR* 000000D9H   DATA     BYTE      CMOD
*SFR* 000000E6H   DATA     BYTE      CMPCR1
*SFR* 000000E7H   DATA     BYTE      CMPCR2
      00FF2707H   CODE     ---       cos?_
*SFR* 000000C8H.0 DATA     BIT       CP_RL2
*SFR* 000000D8H.6 DATA     BIT       CR
      00FF9EBDH   CODE     ---       ctimer_count_clean
      00FFA107H   CODE     ---       ctimer_count_init
      00FF932CH   CODE     ---       ctimer_count_read
*SFR* 000000D0H.7 DATA     BIT       CY
      00FFA219H   CODE     ---       delay_init
      00FFA56AH   CODE     ---       delay_ms
*DEL*:00000000H   CODE     ---       delay_us
*DEL*:00000000H   CODE     ---       DisableGlobalIRQ
      0001023DH   XDATA    DOUBLE    Distance
      00010287H   XDATA    DOUBLE    Distance_Int
      00FF00A6H   CODE     ---       dl1b_default_configuration
      00010ED4H   XDATA    WORD      dl1b_distance_mm
      00010ED6H   XDATA    BYTE      dl1b_finsh_flag
*DEL*:00000000H   CODE     ---       dl1b_get_distance
*DEL*:00000000H   CODE     ---       dl1b_iic_transfer_8bit_array
*DEL*:00000000H   CODE     ---       dl1b_init
      00010ED7H   XDATA    BYTE      dl1b_init_flag
*SFR* 00000083H   DATA     BYTE      DPH
*SFR* 00000082H   DATA     BYTE      DPL
*SFR* 00000084H   DATA     BYTE      DPXL
*SFR* 000000A8H.7 DATA     BIT       EA
*SFR* 000000BAH.7 DATA     BIT       EAXFR
*SFR* 000000A8H.6 DATA     BIT       EC
*SFR* 00000090H.2 DATA     BIT       ECI
*DEL*:00000000H   CODE     ---       eeprom_trig
      00010245H   XDATA    INT       eleDiff
      00010308H   XDATA    DOUBLE    eleOut
      00010306H   XDATA    INT       eleSum
      0001027FH   XDATA    DOUBLE    eleValue
      00FF0006H   CODE     ---       EnableGlobalIRQ
      00000020H.1 BIT      BIT       Encoder_Int
      0001021DH   XDATA    DOUBLE    encoder_L
      00010225H   XDATA    DOUBLE    encoder_R
*SFR* 000000A8H.4 DATA     BIT       ES
*SFR* 000000A8H.1 DATA     BIT       ET0
*SFR* 000000A8H.3 DATA     BIT       ET1
*SFR* 000000A8H.5 DATA     BIT       ET2
*SFR* 000000A8H.0 DATA     BIT       EX0
*SFR* 000000A8H.2 DATA     BIT       EX1
*SFR* 000000C8H.3 DATA     BIT       EXEN2
*SFR* 000000C8H.6 DATA     BIT       EXF2
      00FF2FA9H   CODE     ---       exp?_
*SFR* 000000D0H.5 DATA     BIT       F0
*SFR* 00000098H.7 DATA     BIT       FE
      00FF8E12H   CODE     ---       fifo_clear
      00FF940AH   CODE     ---       fifo_init
      00FF5EF8H   CODE     ---       fifo_read_buffer
*DEL*:00000000H   CODE     ---       fifo_read_element
*DEL*:00000000H   CODE     ---       fifo_read_tail_buffer
      00FFA620H   CODE     ---       fifo_used
      00FF5976H   CODE     ---       fifo_write_buffer
*DEL*:00000000H   CODE     ---       fifo_write_element
*DEL*:00000000H   CODE     ---       func_double_to_str
L251 LINKER/LOCATER V4.66.93.0                                                        06/19/2025  15:56:37  PAGE 24


*DEL*:00000000H   CODE     ---       func_float_to_str
*DEL*:00000000H   CODE     ---       func_get_greatest_common_divisor
*DEL*:00000000H   CODE     ---       func_hex_to_str
*DEL*:00000000H   CODE     ---       func_int_to_str
*DEL*:00000000H   CODE     ---       func_soft_delay
*DEL*:00000000H   CODE     ---       func_str_to_double
*DEL*:00000000H   CODE     ---       func_str_to_float
*DEL*:00000000H   CODE     ---       func_str_to_hex
*DEL*:00000000H   CODE     ---       func_str_to_int
*DEL*:00000000H   CODE     ---       func_str_to_uint
*DEL*:00000000H   CODE     ---       func_uint_to_str
*DEL*:00000000H   CODE     ---       get_two_points_azimuth
*DEL*:00000000H   CODE     ---       get_two_points_distance
      00FF4626H   CODE     ---       gpio_mode
*DEL*:00000000H   CODE     ---       gpio_pull_set
*DEL*:00000000H   CODE     ---       gps_data_parse
      000101CCH   XDATA    INT       gps_gga_state
*DEL*:00000000H   CODE     ---       gps_init
      000101CEH   XDATA    INT       gps_rmc_state
      00010098H   XDATA    ---       gps_tau1201
      00010017H   XDATA    BYTE      gps_tau1201_flag
      00FF854CH   CODE     ---       gps_uart_callback
      00000020H.0 BIT      BIT       Gyro_Int
      00010334H   XDATA    FLOAT     Gyro_z
*DEL*:00000000H   CODE     ---       huandao
*SFR* 000000F6H   DATA     BYTE      IAP_ADDRE
*SFR* 000000C3H   DATA     BYTE      IAP_ADDRH
*SFR* 000000C4H   DATA     BYTE      IAP_ADDRL
*SFR* 000000C5H   DATA     BYTE      IAP_CMD
*SFR* 000000C7H   DATA     BYTE      IAP_CONTR
*SFR* 000000C2H   DATA     BYTE      IAP_DATA
*DEL*:00000000H   CODE     ---       iap_erase_page
*DEL*:00000000H   CODE     ---       iap_get_cmd_state
*DEL*:00000000H   CODE     ---       iap_idle
*DEL*:00000000H   CODE     ---       iap_init
*DEL*:00000000H   CODE     ---       iap_read_bytes
*DEL*:00000000H   CODE     ---       iap_set_tps
*SFR* 000000F5H   DATA     BYTE      IAP_TPS
*SFR* 000000C6H   DATA     BYTE      IAP_TRIG
*DEL*:00000000H   CODE     ---       iap_write_bytes
*DEL*:00000000H   CODE     ---       icm20602_acc_transition
      00010BF6H   XDATA    INT       icm20602_acc_x
      00010BF8H   XDATA    INT       icm20602_acc_y
      00010BFAH   XDATA    INT       icm20602_acc_z
*DEL*:00000000H   CODE     ---       icm20602_get_acc
*DEL*:00000000H   CODE     ---       icm20602_get_gyro
*DEL*:00000000H   CODE     ---       icm20602_gyro_transition
      00010BFCH   XDATA    INT       icm20602_gyro_x
      00010BFEH   XDATA    INT       icm20602_gyro_y
      00010C00H   XDATA    INT       icm20602_gyro_z
*DEL*:00000000H   CODE     ---       icm20602_init
*SFR* 000000A8H   DATA     BYTE      IE
*SFR* 000000A8H   DATA     BYTE      IE0
*SFR* 00000088H.1 DATA     BIT       IE0_
*SFR* 000000B1H   DATA     BYTE      IE1
*SFR* 00000088H.3 DATA     BIT       IE1_
*SFR* 000000AFH   DATA     BYTE      IE2
*DEL*:00000000H   CODE     ---       iic_change_pin
*DEL*:00000000H   CODE     ---       iic_delay_us
*DEL*:00000000H   CODE     ---       iic_init
*DEL*:00000000H   CODE     ---       iic_read_reg
*DEL*:00000000H   CODE     ---       iic_read_reg_bytes
*DEL*:00000000H   CODE     ---       iic_write_reg
*DEL*:00000000H   CODE     ---       imu660ra_acc_transition
      00010C02H   XDATA    INT       imu660ra_acc_x
L251 LINKER/LOCATER V4.66.93.0                                                        06/19/2025  15:56:37  PAGE 25


      00010C04H   XDATA    INT       imu660ra_acc_y
      00010C06H   XDATA    INT       imu660ra_acc_z
      00FF012DH   CODE     ---       imu660ra_config_file
*DEL*:00000000H   CODE     ---       imu660ra_get_acc
*DEL*:00000000H   CODE     ---       imu660ra_get_gyro
*DEL*:00000000H   CODE     ---       imu660ra_gyro_transition
      00010C08H   XDATA    INT       imu660ra_gyro_x
      00010C0AH   XDATA    INT       imu660ra_gyro_y
      00010C0CH   XDATA    INT       imu660ra_gyro_z
*DEL*:00000000H   CODE     ---       imu660ra_init
*DEL*:00000000H   CODE     ---       imu963ra_acc_transition
      00010AA2H   XDATA    INT       imu963ra_acc_x
      00010AA4H   XDATA    INT       imu963ra_acc_y
      00010AA6H   XDATA    INT       imu963ra_acc_z
*DEL*:00000000H   CODE     ---       imu963ra_get_acc
*DEL*:00000000H   CODE     ---       imu963ra_get_gyro
*DEL*:00000000H   CODE     ---       imu963ra_get_mag
*DEL*:00000000H   CODE     ---       imu963ra_gyro_transition
      00010AAEH   XDATA    INT       imu963ra_gyro_x
      00010AB0H   XDATA    INT       imu963ra_gyro_y
      00010AB2H   XDATA    INT       imu963ra_gyro_z
*DEL*:00000000H   CODE     ---       imu963ra_init
*DEL*:00000000H   CODE     ---       imu963ra_mag_transition
      00010AA8H   XDATA    INT       imu963ra_mag_x
      00010AAAH   XDATA    INT       imu963ra_mag_y
      00010AACH   XDATA    INT       imu963ra_mag_z
*SFR* 000000B0H.2 DATA     BIT       INT0
      00FF0046H   CODE     ---       INT0_Isr
*SFR* 000000B0H.3 DATA     BIT       INT1
      00FF000AH   CODE     ---       INT1_Isr
      00FFA8C4H   CODE     ---       INT2_Isr
      00FFA8CCH   CODE     ---       INT3_Isr
      00FFA8D4H   CODE     ---       INT4_Isr
*SFR* 0000008FH   DATA     BYTE      INTCLKO
*SFR* 000000B8H   DATA     BYTE      IP
*SFR* 000000B5H   DATA     BYTE      IP2
*SFR* 000000B6H   DATA     BYTE      IP2H
*SFR* 000000DFH   DATA     BYTE      IP3
*SFR* 000000EEH   DATA     BYTE      IP3H
*SFR* 000000B7H   DATA     BYTE      IPH
*SFR* 000000B7H   DATA     BYTE      IPH0
*SFR* 000000B8H   DATA     BYTE      IPL0
*DEL*:00000000H   CODE     ---       ips114_clear
*DEL*:00000000H   CODE     ---       ips114_drawpoint
*DEL*:00000000H   CODE     ---       ips114_init
*DEL*:00000000H   CODE     ---       ips114_set_region
*DEL*:00000000H   CODE     ---       ips114_showchar
*DEL*:00000000H   CODE     ---       ips114_showfloat
*DEL*:00000000H   CODE     ---       ips114_showint16
*DEL*:00000000H   CODE     ---       ips114_showint32
*DEL*:00000000H   CODE     ---       ips114_showint8
*DEL*:00000000H   CODE     ---       ips114_showstr
*DEL*:00000000H   CODE     ---       ips114_showuint16
*DEL*:00000000H   CODE     ---       ips114_showuint8
*DEL*:00000000H   CODE     ---       ips114_writeData
*DEL*:00000000H   CODE     ---       ips114_writedata_16bit
*DEL*:00000000H   CODE     ---       ips114_writeIndex
*DEL*:00000000H   CODE     ---       ips200_clear
*DEL*:00000000H   CODE     ---       ips200_draw_line
*DEL*:00000000H   CODE     ---       ips200_draw_point
*DEL*:00000000H   CODE     ---       ips200_full
*DEL*:00000000H   CODE     ---       ips200_init_spi
*DEL*:00000000H   CODE     ---       ips200_set_color
*DEL*:00000000H   CODE     ---       ips200_set_dir
*DEL*:00000000H   CODE     ---       ips200_set_font
L251 LINKER/LOCATER V4.66.93.0                                                        06/19/2025  15:56:37  PAGE 26


*DEL*:00000000H   CODE     ---       ips200_show_char
*DEL*:00000000H   CODE     ---       ips200_show_chinese
*DEL*:00000000H   CODE     ---       ips200_show_float
*DEL*:00000000H   CODE     ---       ips200_show_int
*DEL*:00000000H   CODE     ---       ips200_show_string
*DEL*:00000000H   CODE     ---       ips200_show_uint
*DEL*:00000000H   CODE     ---       ips200_show_wave
*DEL*:00000000H   CODE     ---       ips200_write_16bit_data_spi
*DEL*:00000000H   CODE     ---       ips200_write_8bit_data_spi
*SFR* 0000009DH   DATA     BYTE      IRCBAND
*SFR* 0000009FH   DATA     BYTE      IRTRIM
*SFR* 00000088H.0 DATA     BIT       IT0
*SFR* 00000088H.2 DATA     BIT       IT1
      00010328H   XDATA    BYTE      key1_flag
      0001022DH   XDATA    BYTE      key1_last_status
      00010218H   XDATA    BYTE      key1_status
      00010329H   XDATA    BYTE      key2_flag
      0001022EH   XDATA    BYTE      key2_last_status
      00010219H   XDATA    BYTE      key2_status
      0001032AH   XDATA    BYTE      key3_flag
      0001022FH   XDATA    BYTE      key3_last_status
      0001021BH   XDATA    BYTE      key3_status
      0001032BH   XDATA    BYTE      key4_flag
      00010230H   XDATA    BYTE      key4_last_status
      0001021CH   XDATA    BYTE      key4_status
      00FF86DDH   CODE     ---       Key_Pro
      00FF77FEH   CODE     ---       Key_Single_Double
      000102E9H   XDATA    INT       L
      00010338H   XDATA    INT       L2
*DEL*:00000000H   CODE     ---       lcd_clear
*DEL*:00000000H   CODE     ---       lcd_drawpoint
*DEL*:00000000H   CODE     ---       lcd_init
*DEL*:00000000H   CODE     ---       lcd_set_region
*DEL*:00000000H   CODE     ---       lcd_showchar
*DEL*:00000000H   CODE     ---       lcd_showfloat
*DEL*:00000000H   CODE     ---       lcd_showint16
*DEL*:00000000H   CODE     ---       lcd_showint32
*DEL*:00000000H   CODE     ---       lcd_showint8
*DEL*:00000000H   CODE     ---       lcd_showstr
*DEL*:00000000H   CODE     ---       lcd_showuint16
*DEL*:00000000H   CODE     ---       lcd_showuint8
*DEL*:00000000H   CODE     ---       lcd_writeData
*DEL*:00000000H   CODE     ---       lcd_writedata_16bit
*DEL*:00000000H   CODE     ---       lcd_writeIndex
      000102DDH   XDATA    DOUBLE    Left_High_Speed
      000101D0H   XDATA    ---       Left_MOTOR
      00010233H   XDATA    DOUBLE    LEFT_MOTOR_Duty
      0001028FH   XDATA    ---       Left_MOTOR_PID
      00010305H   XDATA    BYTE      Left_Vector
*SFR* 000000F9H   DATA     BYTE      LINICR
      00FF7AFBH   CODE     ---       Loc_pid
      00FF3092H   CODE     NEAR LAB  log?_
      000102EBH   XDATA    INT       M
      00FF89F6H   CODE     ---       MAIN
      00FFA7D7H   CODE     ---       memcpy?_
      00FF0026H   CODE     ---       memset?_
      00FF6D04H   CODE     ---       Motor_Control
      00FF9C24H   CODE     ---       Motor_Ctrl
      00FFA4A1H   CODE     ---       Motor_Init
      00010C1AH   XDATA    INT       mpu6050_acc_x
      00010C1CH   XDATA    INT       mpu6050_acc_y
      00010C1EH   XDATA    INT       mpu6050_acc_z
*DEL*:00000000H   CODE     ---       mpu6050_get_accdata
      00FFA163H   CODE     ---       mpu6050_get_gyro
      00010C20H   XDATA    INT       mpu6050_gyro_x
L251 LINKER/LOCATER V4.66.93.0                                                        06/19/2025  15:56:37  PAGE 27


      00010C22H   XDATA    INT       mpu6050_gyro_y
      00010C24H   XDATA    INT       mpu6050_gyro_z
      00FFA04AH   CODE     ---       mpu6050_init
      00FFA52BH   CODE     ---       mpu6050_simiic_read_reg
      00FF9B96H   CODE     ---       mpu6050_simiic_read_regs
      00FF83B5H   CODE     ---       number_conversion_ascii
*DEL*:00000000H   CODE     ---       NVIC_SetPriority
      00FF43FEH   CODE     ---       oled_6x8
*DEL*:00000000H   CODE     ---       oled_clrpixel
*DEL*:00000000H   CODE     ---       oled_clrpixel_spi
*DEL*:00000000H   CODE     ---       oled_dis_bmp
*DEL*:00000000H   CODE     ---       oled_dis_bmp_spi
*DEL*:00000000H   CODE     ---       oled_fill
      00FFA0AAH   CODE     ---       oled_fill_spi
*DEL*:00000000H   CODE     ---       oled_hexascii
      00FF9D3CH   CODE     ---       oled_hexascii_spi
*DEL*:00000000H   CODE     ---       oled_init
      00FF95A0H   CODE     ---       oled_init_spi
*DEL*:00000000H   CODE     ---       oled_int16
      00FF9CB1H   CODE     ---       oled_int16_spi
*DEL*:00000000H   CODE     ---       oled_p6x8str
      00FF9249H   CODE     ---       oled_p6x8str_spi
*DEL*:00000000H   CODE     ---       oled_print_chinese
*DEL*:00000000H   CODE     ---       oled_print_chinese_spi
*DEL*:00000000H   CODE     ---       oled_printf_float
      00FF81E2H   CODE     ---       oled_printf_float_spi
*DEL*:00000000H   CODE     ---       oled_printf_int32
*DEL*:00000000H   CODE     ---       oled_printf_int32_spi
*DEL*:00000000H   CODE     ---       oled_putpixel
*DEL*:00000000H   CODE     ---       oled_putpixel_spi
*DEL*:00000000H   CODE     ---       oled_set_pos
      00FFA5A7H   CODE     ---       oled_set_pos_spi
*DEL*:00000000H   CODE     ---       oled_uint16
      00FFA657H   CODE     ---       oled_uint16_spi
*DEL*:00000000H   CODE     ---       oled_wrcmd
      00FFA875H   CODE     ---       oled_wrcmd_spi
*DEL*:00000000H   CODE     ---       oled_wrdat
      00FFA88AH   CODE     ---       oled_wrdat_spi
*SFR* 000000D0H.2 DATA     BIT       OV
*SFR* 000000D0H.0 DATA     BIT       P
*SFR* 00000080H   DATA     BYTE      P0
*SFR* 00000080H.7 DATA     BIT       P07
*SFR* 00000094H   DATA     BYTE      P0M0
*SFR* 00000093H   DATA     BYTE      P0M1
*SFR* 00000090H   DATA     BYTE      P1
*SFR* 00000092H   DATA     BYTE      P1M0
*SFR* 00000091H   DATA     BYTE      P1M1
*SFR* 000000A0H   DATA     BYTE      P2
*SFR* 000000A0H.0 DATA     BIT       P20
*SFR* 000000A0H.1 DATA     BIT       P21
*SFR* 000000A0H.2 DATA     BIT       P22
*SFR* 000000A0H.4 DATA     BIT       P24
*SFR* 000000A0H.5 DATA     BIT       P25
*SFR* 000000A0H.7 DATA     BIT       P27
*SFR* 00000096H   DATA     BYTE      P2M0
*SFR* 00000095H   DATA     BYTE      P2M1
*SFR* 000000B0H   DATA     BYTE      P3
*SFR* 000000B0H.5 DATA     BIT       P35
*SFR* 000000B0H.6 DATA     BIT       P36
*SFR* 000000B0H.7 DATA     BIT       P37
*SFR* 000000B2H   DATA     BYTE      P3M0
*SFR* 000000B1H   DATA     BYTE      P3M1
*SFR* 000000C0H   DATA     BYTE      P4
*SFR* 000000C0H.0 DATA     BIT       P40
*SFR* 000000C0H.1 DATA     BIT       P41
L251 LINKER/LOCATER V4.66.93.0                                                        06/19/2025  15:56:37  PAGE 28


*SFR* 000000C0H.2 DATA     BIT       P42
*SFR* 000000C0H.3 DATA     BIT       P43
*SFR* 000000C0H.4 DATA     BIT       P44
*SFR* 000000C0H.6 DATA     BIT       P46
*SFR* 000000C0H.7 DATA     BIT       P47
*SFR* 000000B4H   DATA     BYTE      P4M0
*SFR* 000000B3H   DATA     BYTE      P4M1
*SFR* 000000C8H   DATA     BYTE      P5
*SFR* 000000C8H.2 DATA     BIT       P52
*SFR* 000000CAH   DATA     BYTE      P5M0
*SFR* 000000C9H   DATA     BYTE      P5M1
*SFR* 000000E8H   DATA     BYTE      P6
*SFR* 000000E8H.3 DATA     BIT       P63
*SFR* 000000E8H.4 DATA     BIT       P64
*SFR* 000000E8H.5 DATA     BIT       P65
*SFR* 000000CCH   DATA     BYTE      P6M0
*SFR* 000000CBH   DATA     BYTE      P6M1
*SFR* 000000F8H   DATA     BYTE      P7
*SFR* 000000F8H.7 DATA     BIT       P77
*SFR* 000000E2H   DATA     BYTE      P7M0
*SFR* 000000E1H   DATA     BYTE      P7M1
*SFR* 000000A2H   DATA     BYTE      P_SW1
*SFR* 000000BAH   DATA     BYTE      P_SW2
*SFR* 000000BBH   DATA     BYTE      P_SW3
*SFR* 00000087H   DATA     BYTE      PCON
      00FF7D61H   CODE     ---       PID_Realize
      00FF8F57H   CODE     ---       pit_timer_ms
*DEL*:00000000H   CODE     ---       pow?_
*SFR* 000000B8H.6 DATA     BIT       PPC
      00FF2587H   CODE     NEAR LAB  printf
      00FF9068H   CODE     ---       printf_reverse_order
*SFR* 000000B8H.4 DATA     BIT       PS
*SFR* 000000D0H   DATA     BYTE      PSW
*SFR* 000000D1H   DATA     BYTE      PSW1
*SFR* 000000B8H.1 DATA     BIT       PT0
*SFR* 000000B8H.3 DATA     BIT       PT1
*SFR* 000000B8H.5 DATA     BIT       PT2
      00FFA8B2H   CODE     ---       putchar
      00FFAD77H   HCONST   ---       PWM_ARR_ADDR
      00FFAD7FH   HCONST   ---       PWM_CCER_ADDR
      00FFAD8FH   HCONST   ---       PWM_CCMR_ADDR
      00FFAD57H   HCONST   ---       PWM_CCR_ADDR
      00FF8B63H   CODE     ---       pwm_duty
*DEL*:00000000H   CODE     ---       pwm_freq
      00FF6463H   CODE     ---       pwm_init
      00FF7126H   CODE     ---       pwm_set_gpio
*SFR* 000000B8H.0 DATA     BIT       PX0
*SFR* 000000B8H.2 DATA     BIT       PX1
      000102F7H   XDATA    INT       R
      00010216H   XDATA    INT       R2
      00FF9A61H   CODE     ---       range_protect
*SFR* 00000098H.2 DATA     BIT       RB8
*SFR* 000000CBH   DATA     BYTE      RCAP2H
*SFR* 000000CAH   DATA     BYTE      RCAP2L
*SFR* 000000C8H.5 DATA     BIT       RCLK
*SFR* 000000B0H.7 DATA     BIT       RD
      00FF97D7H   CODE     ---       Read_Encoder
*DEL*:00000000H   CODE     ---       recv_ack
*DEL*:00000000H   CODE     ---       recv_data
*SFR* 00000098H.4 DATA     BIT       REN
*SFR* 00000098H.0 DATA     BIT       RI
      00010277H   XDATA    DOUBLE    Right_High_Speed
      00010310H   XDATA    ---       Right_MOTOR
      0001032CH   XDATA    DOUBLE    RIGHT_MOTOR_Duty
      00010247H   XDATA    ---       Right_MOTOR_PID
L251 LINKER/LOCATER V4.66.93.0                                                        06/19/2025  15:56:37  PAGE 29


      00010304H   XDATA    BYTE      Right_Vector
*SFR* 000000D0H.3 DATA     BIT       RS0
*SFR* 000000D0H.4 DATA     BIT       RS1
*SFR* 000000FFH   DATA     BYTE      RSTCFG
      00010303H   XDATA    BYTE      run
      0001021AH   XDATA    BYTE      running
*SFR* 000000B0H.0 DATA     BIT       RXD
*SFR* 0000009BH   DATA     BYTE      S2BUF
*SFR* 0000009AH   DATA     BYTE      S2CON
*SFR* 000000ADH   DATA     BYTE      S3BUF
*SFR* 000000ACH   DATA     BYTE      S3CON
*SFR* 000000FEH   DATA     BYTE      S4BUF
*SFR* 000000FDH   DATA     BYTE      S4CON
*SFR* 000000A9H   DATA     BYTE      SADDR
*SFR* 000000B9H   DATA     BYTE      SADEN
*SFR* 00000099H   DATA     BYTE      SBUF
*SFR* 00000098H   DATA     BYTE      SCON
*DEL*:00000000H   CODE     ---       seekfree_assistant_camera_boundary_config
*DEL*:00000000H   CODE     ---       seekfree_assistant_camera_data_send
*DEL*:00000000H   CODE     ---       seekfree_assistant_camera_dot_send
*DEL*:00000000H   CODE     ---       seekfree_assistant_camera_information_config
*DEL*:00000000H   CODE     ---       seekfree_assistant_camera_send
*DEL*:00000000H   CODE     ---       seekfree_assistant_data_analysis
*DEL*:00000000H   CODE     ---       seekfree_assistant_init
      00010344H   XDATA    ---       seekfree_assistant_oscilloscope_data
      00FF886DH   CODE     ---       seekfree_assistant_oscilloscope_send
      00010387H   XDATA    ---       seekfree_assistant_parameter
      0001037FH   XDATA    ---       seekfree_assistant_parameter_update_flag
      00010EE8H   XDATA    ---       seekfree_assistant_receive
      00010EEAH   XDATA    ---       seekfree_assistant_transfer
      00FFA5E4H   CODE     ---       seekfree_assistant_transfer_callback
*DEL*:00000000H   CODE     ---       send_ack
*DEL*:00000000H   CODE     ---       send_data
*DEL*:00000000H   CODE     ---       send_nak
      00FF7FACH   CODE     ---       set_clk
*DEL*:00000000H   CODE     ---       showimage
      00FF2728H   CODE     ---       sin?_
*SFR* 00000098H.7 DATA     BIT       SM0
*SFR* 00000098H.6 DATA     BIT       SM1
*SFR* 00000098H.5 DATA     BIT       SM2
*SFR* 00000081H   DATA     BYTE      SP
*SFR* 000000CEH   DATA     BYTE      SPCTL
*SFR* 000000CFH   DATA     BYTE      SPDAT
*SFR* 000000BEH   DATA     BYTE      SPH
*DEL*:00000000H   CODE     ---       spi_change_mode
*DEL*:00000000H   CODE     ---       spi_change_pin
      00FF9161H   CODE     ---       spi_init
      00FF0066H   CODE     ---       spi_mosi
*SFR* 000000CDH   DATA     BYTE      SPSTAT
      00FF25B9H   CODE     ---       sqrt?_
*DEL*:00000000H   CODE     ---       start
*DEL*:00000000H   CODE     ---       stop
*DEL*:00000000H   CODE     ---       strchr?_
*DEL*:00000000H   CODE     ---       strlen?_
      00FFA68EH   CODE     ---       strncmp?_
*DEL*:00000000H   CODE     ---       strncpy?_
      00010231H   XDATA    BYTE      sw1_status
      00010232H   XDATA    BYTE      sw2_status
      00010EA4H   XDATA    LONG      sys_clk
*SFR* 000000B0H.4 DATA     BIT       T0
*SFR* 000000B0H.5 DATA     BIT       T1
*SFR* 00000090H.0 DATA     BIT       T2
*SFR* 000000C8H   DATA     BYTE      T2CON
*SFR* 00000090H.1 DATA     BIT       T2EX
*SFR* 000000D6H   DATA     BYTE      T2H
L251 LINKER/LOCATER V4.66.93.0                                                        06/19/2025  15:56:37  PAGE 30


*SFR* 000000D7H   DATA     BYTE      T2L
*SFR* 000000C9H   DATA     BYTE      T2MOD
*SFR* 000000D4H   DATA     BYTE      T3H
*SFR* 000000D5H   DATA     BYTE      T3L
*SFR* 000000D2H   DATA     BYTE      T4H
*SFR* 000000D3H   DATA     BYTE      T4L
*SFR* 000000DDH   DATA     BYTE      T4T3M
      00FF275DH   CODE     ---       TAN?_
*SFR* 00000098H.3 DATA     BIT       TB8
*SFR* 000000C8H.4 DATA     BIT       TCLK
*SFR* 00000088H   DATA     BYTE      TCON
*DEL*:00000000H   CODE     ---       Test_MPU6050
*DEL*:00000000H   CODE     ---       Test_OLED
      00FF9669H   CODE     ---       Test_Wireless_Oscilloscope
*SFR* 00000088H.5 DATA     BIT       TF0
*SFR* 00000088H.7 DATA     BIT       TF1
*SFR* 000000C8H.7 DATA     BIT       TF2
      00FF3E0EH   CODE     ---       tft_ascii
*SFR* 0000008CH   DATA     BYTE      TH0
*SFR* 0000008DH   DATA     BYTE      TH1
*SFR* 000000CDH   DATA     BYTE      TH2
*SFR* 00000098H.1 DATA     BIT       TI
*SFR* 0000008AH   DATA     BYTE      TL0
*SFR* 0000008BH   DATA     BYTE      TL1
*SFR* 000000CCH   DATA     BYTE      TL2
      00FF000EH   CODE     ---       TM0_Isr
      00FFA72BH   CODE     ---       TM1_Isr
      00FFA8DCH   CODE     ---       TM2_Isr
      00FFA8E4H   CODE     ---       TM3_Isr
      00FFA6F8H   CODE     ---       TM4_Isr
*SFR* 00000089H   DATA     BYTE      TMOD
*SFR* 00000088H.4 DATA     BIT       TR0
*SFR* 00000088H.6 DATA     BIT       TR1
*SFR* 000000C8H.2 DATA     BIT       TR2
      00000021H   EDATA    BYTE      tsl1401_finish_flag
      000102BDH   XDATA    ---       Turn_ele
      000101E8H   XDATA    ---       Turn_PID_ele
*SFR* 000000B0H.1 DATA     BIT       TXD
      00FFA374H   CODE     ---       UART1_Isr
      00FFA414H   CODE     ---       UART2_Isr
      00FFA7B1H   CODE     ---       UART3_Isr
      00FFA271H   CODE     ---       UART4_Isr
      00FF74E2H   CODE     ---       uart_init
      00FFA3C5H   CODE     ---       uart_putbuff
      00FF9E40H   CODE     ---       uart_putchar
*DEL*:00000000H   CODE     ---       uart_putstr
      00FF007CH   CODE     ---       Ultima_Control
*SFR* 000000F4H   DATA     BYTE      USBCON
*SFR* 000000A6H   DATA     BYTE      VRTRIM
*DEL*:00000000H   CODE     ---       wait
*SFR* 000000C1H   DATA     BYTE      WDT_CONTR
*SFR* 000000A6H   DATA     BYTE      WDTRST
      00010EAAH   XDATA    ---       wireless_module_uart_handler
      00010EA8H   XDATA    INT       wireless_type
      00FFA7FCH   CODE     ---       wireless_uart_callback
      00FF9F87H   CODE     ---       wireless_uart_init
*DEL*:00000000H   CODE     ---       wireless_uart_read_buff
*DEL*:00000000H   CODE     ---       wireless_uart_send_buff
*DEL*:00000000H   CODE     ---       wireless_uart_send_byte
*SFR* 000000B0H.6 DATA     BIT       WR
*SFR* 000000E9H   DATA     BYTE      WTST
      00000008H   DATA     INT       youhuandao_flag1
      000102E5H   XDATA    INT       youhuandao_flag2_s
      000102E7H   XDATA    INT       youhuandao_flag3_s
      00010275H   XDATA    INT       youhuandaoleijia
L251 LINKER/LOCATER V4.66.93.0                                                        06/19/2025  15:56:37  PAGE 31


      00010EB0H   XDATA    WORD      zf_delay_ms
      00010EB2H   XDATA    WORD      zf_delay_us
      00FF4FFFH   CODE     ---       zf_sprintf



SYMBOL TABLE OF MODULE:  .\Out_File\Trigger (board)

      VALUE       REP       CLASS    TYPE      SYMBOL NAME
      ====================================================
      ---         MODULE    ---      ---       board
      00FF0006H   PUBLIC    CODE     ---       EnableGlobalIRQ
      00FF987EH   PUBLIC    CODE     ---       board_init
      00FF7FACH   PUBLIC    CODE     ---       set_clk
      00FFA8B2H   PUBLIC    CODE     ---       putchar
      00010EA4H   PUBLIC    XDATA    LONG      sys_clk
      00000094H   SFRSYM    DATA     BYTE      P0M0
      000000D0H   SFRSYM    DATA     BYTE      PSW
      000000BAH.7 SFRSYM    DATA     BIT       EAXFR
      0000009DH   SFRSYM    DATA     BYTE      IRCBAND
      00000097H   SFRSYM    DATA     BYTE      AUXR2
      000000EAH   SFRSYM    DATA     BYTE      CKCON
      000000EFH   SFRSYM    DATA     BYTE      AUXINTIF
      000000FDH   SFRSYM    DATA     BYTE      S4CON
      000000ACH   SFRSYM    DATA     BYTE      S3CON
      0000009AH   SFRSYM    DATA     BYTE      S2CON
      000000A6H   SFRSYM    DATA     BYTE      VRTRIM
      000000B7H   SFRSYM    DATA     BYTE      IPH
      000000CDH   SFRSYM    DATA     BYTE      SPSTAT
      000000DDH   SFRSYM    DATA     BYTE      T4T3M
      0000009FH   SFRSYM    DATA     BYTE      IRTRIM
      000000C1H   SFRSYM    DATA     BYTE      WDT_CONTR
      000000E9H   SFRSYM    DATA     BYTE      WTST
      000000DFH   SFRSYM    DATA     BYTE      IP3
      000000F4H   SFRSYM    DATA     BYTE      USBCON
      000000B5H   SFRSYM    DATA     BYTE      IP2
      000000FFH   SFRSYM    DATA     BYTE      RSTCFG
      000000F9H   SFRSYM    DATA     BYTE      LINICR
      0000008EH   SFRSYM    DATA     BYTE      AUXR
      000000AFH   SFRSYM    DATA     BYTE      IE2
      00000088H   SFRSYM    DATA     BYTE      TCON
      00000089H   SFRSYM    DATA     BYTE      TMOD
      00000098H   SFRSYM    DATA     BYTE      SCON
      000000F1H   SFRSYM    DATA     BYTE      CANICR
      00000087H   SFRSYM    DATA     BYTE      PCON
      000000BCH   SFRSYM    DATA     BYTE      ADC_CONTR
      000000E7H   SFRSYM    DATA     BYTE      CMPCR2
      000000E6H   SFRSYM    DATA     BYTE      CMPCR1
      000000DEH   SFRSYM    DATA     BYTE      ADCCFG
      000000B8H   SFRSYM    DATA     BYTE      IP
      0000008FH   SFRSYM    DATA     BYTE      INTCLKO
      000000EEH   SFRSYM    DATA     BYTE      IP3H
      000000B6H   SFRSYM    DATA     BYTE      IP2H
      000000A8H   SFRSYM    DATA     BYTE      IE
      000000BBH   SFRSYM    DATA     BYTE      P_SW3
      000000BAH   SFRSYM    DATA     BYTE      P_SW2
      000000A2H   SFRSYM    DATA     BYTE      P_SW1
      000000CEH   SFRSYM    DATA     BYTE      SPCTL
      000000F8H   SFRSYM    DATA     BYTE      P7
      000000A8H.7 SFRSYM    DATA     BIT       EA
      000000E1H   SFRSYM    DATA     BYTE      P7M1
      000000E8H   SFRSYM    DATA     BYTE      P6
      000000C8H   SFRSYM    DATA     BYTE      P5
      000000CBH   SFRSYM    DATA     BYTE      P6M1
      000000E2H   SFRSYM    DATA     BYTE      P7M0
L251 LINKER/LOCATER V4.66.93.0                                                        06/19/2025  15:56:37  PAGE 32


      000000C0H   SFRSYM    DATA     BYTE      P4
      000000C9H   SFRSYM    DATA     BYTE      P5M1
      000000CCH   SFRSYM    DATA     BYTE      P6M0
      000000B0H   SFRSYM    DATA     BYTE      P3
      000000B3H   SFRSYM    DATA     BYTE      P4M1
      000000CAH   SFRSYM    DATA     BYTE      P5M0
      000000A0H   SFRSYM    DATA     BYTE      P2
      000000B1H   SFRSYM    DATA     BYTE      P3M1
      000000B4H   SFRSYM    DATA     BYTE      P4M0
      00000090H   SFRSYM    DATA     BYTE      P1
      00000095H   SFRSYM    DATA     BYTE      P2M1
      000000B2H   SFRSYM    DATA     BYTE      P3M0
      00000080H   SFRSYM    DATA     BYTE      P0
      00000091H   SFRSYM    DATA     BYTE      P1M1
      00000096H   SFRSYM    DATA     BYTE      P2M0
      00000092H   SFRSYM    DATA     BYTE      P1M0
      00000093H   SFRSYM    DATA     BYTE      P0M1

      00FF7FACH   BLOCK     CODE     ---       LVL=0
      00FF7FACH   LINE      CODE     ---       #43
      00FF7FACH   LINE      CODE     ---       #46
      00FF7FAFH   LINE      CODE     ---       #48
      00FF7FC5H   LINE      CODE     ---       #51
      00FF7FD2H   LINE      CODE     ---       #52
      00FF7FDFH   LINE      CODE     ---       #53
      00FF7FECH   LINE      CODE     ---       #54
      00FF7FF0H   LINE      CODE     ---       #55
      00FF7FFCH   LINE      CODE     ---       #56
      00FF7FFFH   LINE      CODE     ---       #57
      00FF8015H   LINE      CODE     ---       #60
      00FF8022H   LINE      CODE     ---       #61
      00FF802FH   LINE      CODE     ---       #62
      00FF803CH   LINE      CODE     ---       #63
      00FF8040H   LINE      CODE     ---       #64
      00FF804CH   LINE      CODE     ---       #65
      00FF804FH   LINE      CODE     ---       #66
      00FF8065H   LINE      CODE     ---       #69
      00FF8072H   LINE      CODE     ---       #70
      00FF807FH   LINE      CODE     ---       #71
      00FF808CH   LINE      CODE     ---       #72
      00FF8090H   LINE      CODE     ---       #73
      00FF809CH   LINE      CODE     ---       #74
      00FF809FH   LINE      CODE     ---       #75
      00FF80B5H   LINE      CODE     ---       #79
      00FF80C2H   LINE      CODE     ---       #80
      00FF80CFH   LINE      CODE     ---       #81
      00FF80DCH   LINE      CODE     ---       #82
      00FF80E0H   LINE      CODE     ---       #83
      00FF80ECH   LINE      CODE     ---       #84
      00FF80EFH   LINE      CODE     ---       #85
      00FF8105H   LINE      CODE     ---       #88
      00FF8112H   LINE      CODE     ---       #89
      00FF811FH   LINE      CODE     ---       #90
      00FF812CH   LINE      CODE     ---       #91
      00FF8130H   LINE      CODE     ---       #92
      00FF813CH   LINE      CODE     ---       #93
      00FF813FH   LINE      CODE     ---       #94
      00FF8155H   LINE      CODE     ---       #97
      00FF8162H   LINE      CODE     ---       #98
      00FF816FH   LINE      CODE     ---       #99
      00FF817CH   LINE      CODE     ---       #100
      00FF8180H   LINE      CODE     ---       #101
      00FF818CH   LINE      CODE     ---       #102
      00FF818EH   LINE      CODE     ---       #105
      00FF81A0H   LINE      CODE     ---       #107
L251 LINKER/LOCATER V4.66.93.0                                                        06/19/2025  15:56:37  PAGE 33


      00FF81ADH   LINE      CODE     ---       #108
      00FF81BAH   LINE      CODE     ---       #109
      00FF81C7H   LINE      CODE     ---       #110
      00FF81CBH   LINE      CODE     ---       #111
      00FF81D7H   LINE      CODE     ---       #112
      00FF81D7H   LINE      CODE     ---       #114
      00FF81E1H   LINE      CODE     ---       #115
      ---         BLOCKEND  ---      ---       LVL=0

      00FF987EH   BLOCK     CODE     ---       LVL=0
      00FF987EH   LINE      CODE     ---       #121
      00FF987EH   LINE      CODE     ---       #123
      00FF9882H   LINE      CODE     ---       #124
      00FF9885H   LINE      CODE     ---       #125
      00FF9888H   LINE      CODE     ---       #126
      00FF988BH   LINE      CODE     ---       #127
      00FF988FH   LINE      CODE     ---       #137
      00FF989CH   LINE      CODE     ---       #143
      00FF989FH   LINE      CODE     ---       #145
      00FF98A2H   LINE      CODE     ---       #146
      00FF98A5H   LINE      CODE     ---       #147
      00FF98B1H   LINE      CODE     ---       #149
      00FF98B4H   LINE      CODE     ---       #150
      00FF98B7H   LINE      CODE     ---       #151
      00FF98BAH   LINE      CODE     ---       #152
      00FF98BDH   LINE      CODE     ---       #153
      00FF98C0H   LINE      CODE     ---       #154
      00FF98C3H   LINE      CODE     ---       #155
      00FF98C6H   LINE      CODE     ---       #156
      00FF98C9H   LINE      CODE     ---       #157
      00FF98CCH   LINE      CODE     ---       #158
      00FF98CFH   LINE      CODE     ---       #159
      00FF98D2H   LINE      CODE     ---       #160
      00FF98D5H   LINE      CODE     ---       #161
      00FF98D8H   LINE      CODE     ---       #162
      00FF98DBH   LINE      CODE     ---       #163
      00FF98DEH   LINE      CODE     ---       #164
      00FF98E1H   LINE      CODE     ---       #166
      00FF98E4H   LINE      CODE     ---       #167
      00FF98E7H   LINE      CODE     ---       #168
      00FF98EAH   LINE      CODE     ---       #169
      00FF98EDH   LINE      CODE     ---       #170
      00FF98F0H   LINE      CODE     ---       #171
      00FF98F3H   LINE      CODE     ---       #172
      00FF98F6H   LINE      CODE     ---       #173
      00FF98F9H   LINE      CODE     ---       #174
      00FF98FCH   LINE      CODE     ---       #176
      00FF991DH   LINE      CODE     ---       #177
      00FF9920H   LINE      CODE     ---       #178
      ---         BLOCKEND  ---      ---       LVL=0

      00FFA8B2H   BLOCK     CODE     ---       LVL=0
      00010F4EH   SYMBOL    XDATA    CHAR      c
      00FFA8B2H   LINE      CODE     ---       #183
      00FFA8B6H   LINE      CODE     ---       #185
      00FFA8BFH   LINE      CODE     ---       #187
      00FFA8C3H   LINE      CODE     ---       #188
      ---         BLOCKEND  ---      ---       LVL=0

      00FF0006H   BLOCK     CODE     ---       LVL=0
      00FF0006H   LINE      CODE     ---       #197
      00FF0006H   LINE      CODE     ---       #199
      00FF0009H   LINE      CODE     ---       #200
      ---         BLOCKEND  ---      ---       LVL=0

L251 LINKER/LOCATER V4.66.93.0                                                        06/19/2025  15:56:37  PAGE 34


      ---         MODULE    ---      ---       common
      00010EA8H   PUBLIC    XDATA    INT       wireless_type
      00010EAAH   PUBLIC    XDATA    ---       wireless_module_uart_handler
      000000D0H   SFRSYM    DATA     BYTE      PSW
      0000009DH   SFRSYM    DATA     BYTE      IRCBAND
      00000097H   SFRSYM    DATA     BYTE      AUXR2
      000000EFH   SFRSYM    DATA     BYTE      AUXINTIF
      000000FDH   SFRSYM    DATA     BYTE      S4CON
      000000ACH   SFRSYM    DATA     BYTE      S3CON
      0000009AH   SFRSYM    DATA     BYTE      S2CON
      000000B7H   SFRSYM    DATA     BYTE      IPH
      000000CDH   SFRSYM    DATA     BYTE      SPSTAT
      000000DDH   SFRSYM    DATA     BYTE      T4T3M
      000000C1H   SFRSYM    DATA     BYTE      WDT_CONTR
      000000DFH   SFRSYM    DATA     BYTE      IP3
      000000F4H   SFRSYM    DATA     BYTE      USBCON
      000000B5H   SFRSYM    DATA     BYTE      IP2
      000000FFH   SFRSYM    DATA     BYTE      RSTCFG
      000000F9H   SFRSYM    DATA     BYTE      LINICR
      0000008EH   SFRSYM    DATA     BYTE      AUXR
      000000AFH   SFRSYM    DATA     BYTE      IE2
      00000088H   SFRSYM    DATA     BYTE      TCON
      00000098H   SFRSYM    DATA     BYTE      SCON
      000000F1H   SFRSYM    DATA     BYTE      CANICR
      00000087H   SFRSYM    DATA     BYTE      PCON
      000000BCH   SFRSYM    DATA     BYTE      ADC_CONTR
      000000E7H   SFRSYM    DATA     BYTE      CMPCR2
      000000E6H   SFRSYM    DATA     BYTE      CMPCR1
      000000B8H   SFRSYM    DATA     BYTE      IP
      0000008FH   SFRSYM    DATA     BYTE      INTCLKO
      000000EEH   SFRSYM    DATA     BYTE      IP3H
      000000B6H   SFRSYM    DATA     BYTE      IP2H
      000000A8H   SFRSYM    DATA     BYTE      IE
      000000BBH   SFRSYM    DATA     BYTE      P_SW3
      000000BAH   SFRSYM    DATA     BYTE      P_SW2
      000000A2H   SFRSYM    DATA     BYTE      P_SW1
      000000CEH   SFRSYM    DATA     BYTE      SPCTL
      000000F8H   SFRSYM    DATA     BYTE      P7
      000000E8H   SFRSYM    DATA     BYTE      P6
      000000C8H   SFRSYM    DATA     BYTE      P5
      000000C0H   SFRSYM    DATA     BYTE      P4
      000000B0H   SFRSYM    DATA     BYTE      P3
      000000A0H   SFRSYM    DATA     BYTE      P2
      00000090H   SFRSYM    DATA     BYTE      P1
      00000080H   SFRSYM    DATA     BYTE      P0

      ---         MODULE    ---      ---       ?C_START
      00FF0000H   PUBLIC    CODE     ---       ?C?STARTUP
      00FF0000H   PUBLIC    CODE     ---       ?C_STARTUP
      000000D0H.6 SFRSYM    DATA     BIT       AC
      000000E0H   SFRSYM    DATA     BYTE      ACC
      000000F0H   SFRSYM    DATA     BYTE      B
      000000FAH   SFRSYM    DATA     BYTE      CCAP0H
      000000EAH   SFRSYM    DATA     BYTE      CCAP0L
      000000FBH   SFRSYM    DATA     BYTE      CCAP1H
      000000EBH   SFRSYM    DATA     BYTE      CCAP1L
      000000FCH   SFRSYM    DATA     BYTE      CCAP2H
      000000ECH   SFRSYM    DATA     BYTE      CCAP2L
      000000FDH   SFRSYM    DATA     BYTE      CCAP3H
      000000EDH   SFRSYM    DATA     BYTE      CCAP3L
      000000FEH   SFRSYM    DATA     BYTE      CCAP4H
      000000EEH   SFRSYM    DATA     BYTE      CCAP4L
      000000DAH   SFRSYM    DATA     BYTE      CCAPM0
      000000DBH   SFRSYM    DATA     BYTE      CCAPM1
      000000DCH   SFRSYM    DATA     BYTE      CCAPM2
L251 LINKER/LOCATER V4.66.93.0                                                        06/19/2025  15:56:37  PAGE 35


      000000DDH   SFRSYM    DATA     BYTE      CCAPM3
      000000DEH   SFRSYM    DATA     BYTE      CCAPM4
      000000D8H.0 SFRSYM    DATA     BIT       CCF0
      000000D8H.1 SFRSYM    DATA     BIT       CCF1
      000000D8H.2 SFRSYM    DATA     BIT       CCF2
      000000D8H.3 SFRSYM    DATA     BIT       CCF3
      000000D8H.4 SFRSYM    DATA     BIT       CCF4
      000000D8H   SFRSYM    DATA     BYTE      CCON
      00000090H.3 SFRSYM    DATA     BIT       CEX0
      00000090H.4 SFRSYM    DATA     BIT       CEX1
      00000090H.5 SFRSYM    DATA     BIT       CEX2
      00000090H.6 SFRSYM    DATA     BIT       CEX3
      00000090H.7 SFRSYM    DATA     BIT       CEX4
      000000D8H.7 SFRSYM    DATA     BIT       CF
      000000F9H   SFRSYM    DATA     BYTE      CH
      000000E9H   SFRSYM    DATA     BYTE      CL
      000000D9H   SFRSYM    DATA     BYTE      CMOD
      000000C8H.0 SFRSYM    DATA     BIT       CP_RL2
      000000D8H.6 SFRSYM    DATA     BIT       CR
      000000D0H.7 SFRSYM    DATA     BIT       CY
      000000C8H.1 SFRSYM    DATA     BIT       C_T2
      00000083H   SFRSYM    DATA     BYTE      DPH
      00000082H   SFRSYM    DATA     BYTE      DPL
      00000084H   SFRSYM    DATA     BYTE      DPXL
      000000A8H.7 SFRSYM    DATA     BIT       EA
      000000A8H.6 SFRSYM    DATA     BIT       EC
      00000090H.2 SFRSYM    DATA     BIT       ECI
      000000A8H.4 SFRSYM    DATA     BIT       ES
      000000A8H.1 SFRSYM    DATA     BIT       ET0
      000000A8H.3 SFRSYM    DATA     BIT       ET1
      000000A8H.5 SFRSYM    DATA     BIT       ET2
      000000A8H.0 SFRSYM    DATA     BIT       EX0
      000000A8H.2 SFRSYM    DATA     BIT       EX1
      000000C8H.3 SFRSYM    DATA     BIT       EXEN2
      000000C8H.6 SFRSYM    DATA     BIT       EXF2
      000000D0H.5 SFRSYM    DATA     BIT       F0
      00000098H.7 SFRSYM    DATA     BIT       FE
      000000A8H   SFRSYM    DATA     BYTE      IE0
      00000088H.1 SFRSYM    DATA     BIT       IE0_
      000000B1H   SFRSYM    DATA     BYTE      IE1
      00000088H.3 SFRSYM    DATA     BIT       IE1_
      000000B0H.2 SFRSYM    DATA     BIT       INT0
      000000B0H.3 SFRSYM    DATA     BIT       INT1
      000000B7H   SFRSYM    DATA     BYTE      IPH0
      000000B8H   SFRSYM    DATA     BYTE      IPL0
      00000088H.0 SFRSYM    DATA     BIT       IT0
      00000088H.2 SFRSYM    DATA     BIT       IT1
      000000D0H.2 SFRSYM    DATA     BIT       OV
      000000D0H.0 SFRSYM    DATA     BIT       P
      00000080H   SFRSYM    DATA     BYTE      P0
      00000090H   SFRSYM    DATA     BYTE      P1
      000000A0H   SFRSYM    DATA     BYTE      P2
      000000B0H   SFRSYM    DATA     BYTE      P3
      00000087H   SFRSYM    DATA     BYTE      PCON
      000000B8H.6 SFRSYM    DATA     BIT       PPC
      000000B8H.4 SFRSYM    DATA     BIT       PS
      000000D0H   SFRSYM    DATA     BYTE      PSW
      000000D1H   SFRSYM    DATA     BYTE      PSW1
      000000B8H.1 SFRSYM    DATA     BIT       PT0
      000000B8H.3 SFRSYM    DATA     BIT       PT1
      000000B8H.5 SFRSYM    DATA     BIT       PT2
      000000B8H.0 SFRSYM    DATA     BIT       PX0
      000000B8H.2 SFRSYM    DATA     BIT       PX1
      00000098H.2 SFRSYM    DATA     BIT       RB8
      000000CBH   SFRSYM    DATA     BYTE      RCAP2H
L251 LINKER/LOCATER V4.66.93.0                                                        06/19/2025  15:56:37  PAGE 36


      000000CAH   SFRSYM    DATA     BYTE      RCAP2L
      000000C8H.5 SFRSYM    DATA     BIT       RCLK
      000000B0H.7 SFRSYM    DATA     BIT       RD
      00000098H.4 SFRSYM    DATA     BIT       REN
      00000098H.0 SFRSYM    DATA     BIT       RI
      000000D0H.3 SFRSYM    DATA     BIT       RS0
      000000D0H.4 SFRSYM    DATA     BIT       RS1
      000000B0H.0 SFRSYM    DATA     BIT       RXD
      000000A9H   SFRSYM    DATA     BYTE      SADDR
      000000B9H   SFRSYM    DATA     BYTE      SADEN
      00000099H   SFRSYM    DATA     BYTE      SBUF
      00000098H   SFRSYM    DATA     BYTE      SCON
      00000098H.7 SFRSYM    DATA     BIT       SM0
      00000098H.6 SFRSYM    DATA     BIT       SM1
      00000098H.5 SFRSYM    DATA     BIT       SM2
      00000081H   SFRSYM    DATA     BYTE      SP
      000000BEH   SFRSYM    DATA     BYTE      SPH
      000000B0H.4 SFRSYM    DATA     BIT       T0
      000000B0H.5 SFRSYM    DATA     BIT       T1
      00000090H.0 SFRSYM    DATA     BIT       T2
      000000C8H   SFRSYM    DATA     BYTE      T2CON
      00000090H.1 SFRSYM    DATA     BIT       T2EX
      000000C9H   SFRSYM    DATA     BYTE      T2MOD
      00000098H.3 SFRSYM    DATA     BIT       TB8
      000000C8H.4 SFRSYM    DATA     BIT       TCLK
      00000088H   SFRSYM    DATA     BYTE      TCON
      00000088H.5 SFRSYM    DATA     BIT       TF0
      00000088H.7 SFRSYM    DATA     BIT       TF1
      000000C8H.7 SFRSYM    DATA     BIT       TF2
      0000008CH   SFRSYM    DATA     BYTE      TH0
      0000008DH   SFRSYM    DATA     BYTE      TH1
      000000CDH   SFRSYM    DATA     BYTE      TH2
      00000098H.1 SFRSYM    DATA     BIT       TI
      0000008AH   SFRSYM    DATA     BYTE      TL0
      0000008BH   SFRSYM    DATA     BYTE      TL1
      000000CCH   SFRSYM    DATA     BYTE      TL2
      00000089H   SFRSYM    DATA     BYTE      TMOD
      00000088H.4 SFRSYM    DATA     BIT       TR0
      00000088H.6 SFRSYM    DATA     BIT       TR1
      000000C8H.2 SFRSYM    DATA     BIT       TR2
      000000B0H.1 SFRSYM    DATA     BIT       TXD
      000000A6H   SFRSYM    DATA     BYTE      WDTRST
      000000B0H.6 SFRSYM    DATA     BIT       WR
      00000800H   SYMBOL    NUMBER   ---       EDATALEN
      00FF9FF1H   SYMBOL    CODE     ---       EDATALOOP
      00000001H   SYMBOL    NUMBER   ---       EDF
      00000001H   SYMBOL    NUMBER   ---       EMAP
      00000000H   SYMBOL    NUMBER   ---       HDATALEN
      00010000H   SYMBOL    NUMBER   ---       HDATASTART
      00000000H   SYMBOL    NUMBER   ---       IBPSTACK
      00000100H   SYMBOL    NUMBER   ---       IBPSTACKTOP
      00000001H   SYMBOL    NUMBER   ---       INTR
      00000001H   SYMBOL    NUMBER   ---       PAGM
      00000003H   SYMBOL    NUMBER   ---       RDRG
      00000001H   SYMBOL    NUMBER   ---       SRCM
      00000800H   SYMBOL    NUMBER   ---       STACKSIZE
      00FF9FE9H   SYMBOL    CODE     ---       STARTUP1
      00000003H   SYMBOL    NUMBER   ---       WSA
      00000003H   SYMBOL    NUMBER   ---       WSB
      00000001H   SYMBOL    NUMBER   ---       XALE
      00000000H   SYMBOL    NUMBER   ---       XBPSTACK
      00010000H   SYMBOL    NUMBER   ---       XBPSTACKTOP
      00008000H   SYMBOL    NUMBER   ---       XDATALEN
      00FFA000H   SYMBOL    CODE     ---       XDATALOOP
      00010000H   SYMBOL    NUMBER   ---       XDATASTART
L251 LINKER/LOCATER V4.66.93.0                                                        06/19/2025  15:56:37  PAGE 37



      00FF0000H   BLOCK     CODE     NEAR LAB  LVL=0
      00FF0000H   LINE      CODE     ---       #183
      ---         BLOCKEND  ---      ---       LVL=0

      00FF9FE9H   BLOCK     CODE     NEAR LAB  LVL=0
      00FF9FE9H   LINE      CODE     ---       #188
      00FF9FECH   LINE      CODE     ---       #191
      00FF9FF0H   LINE      CODE     ---       #192
      00FF9FF1H   LINE      CODE     ---       #193
      00FF9FF4H   LINE      CODE     ---       #194
      00FF9FF6H   LINE      CODE     ---       #195
      00FF9FF8H   LINE      CODE     ---       #199
      00FF9FFBH   LINE      CODE     ---       #200
      00FF9FFFH   LINE      CODE     ---       #201
      00FFA000H   LINE      CODE     ---       #202
      00FFA001H   LINE      CODE     ---       #203
      00FFA002H   LINE      CODE     ---       #204
      00FFA004H   LINE      CODE     ---       #205
      00FFA006H   LINE      CODE     ---       #235
      ---         BLOCKEND  ---      ---       LVL=0

      00FFA047H   BLOCK     CODE     NEAR LAB  LVL=0
      00FFA047H   LINE      CODE     ---       #238
      ---         BLOCKEND  ---      ---       LVL=0

      ---         MODULE    ---      ---       zf_adc
      00FF9B00H   PUBLIC    CODE     ---       ADC_Voltage
      00FF8CC5H   PUBLIC    CODE     ---       ADC_Median_Average
      00FF9723H   PUBLIC    CODE     ---       adc_once
      00FF94D7H   PUBLIC    CODE     ---       adc_init
      00FFA45BH   PUBLIC    CODE     ---       adc_init_5
      00000094H   SFRSYM    DATA     BYTE      P0M0
      000000D0H   SFRSYM    DATA     BYTE      PSW
      0000009DH   SFRSYM    DATA     BYTE      IRCBAND
      00000097H   SFRSYM    DATA     BYTE      AUXR2
      000000EFH   SFRSYM    DATA     BYTE      AUXINTIF
      000000FDH   SFRSYM    DATA     BYTE      S4CON
      000000ACH   SFRSYM    DATA     BYTE      S3CON
      0000009AH   SFRSYM    DATA     BYTE      S2CON
      000000B7H   SFRSYM    DATA     BYTE      IPH
      000000CDH   SFRSYM    DATA     BYTE      SPSTAT
      000000BEH   SFRSYM    DATA     BYTE      ADC_RESL
      000000DDH   SFRSYM    DATA     BYTE      T4T3M
      000000C1H   SFRSYM    DATA     BYTE      WDT_CONTR
      000000DFH   SFRSYM    DATA     BYTE      IP3
      000000F4H   SFRSYM    DATA     BYTE      USBCON
      000000B5H   SFRSYM    DATA     BYTE      IP2
      000000FFH   SFRSYM    DATA     BYTE      RSTCFG
      000000F9H   SFRSYM    DATA     BYTE      LINICR
      0000008EH   SFRSYM    DATA     BYTE      AUXR
      000000AFH   SFRSYM    DATA     BYTE      IE2
      00000088H   SFRSYM    DATA     BYTE      TCON
      00000098H   SFRSYM    DATA     BYTE      SCON
      000000F1H   SFRSYM    DATA     BYTE      CANICR
      00000087H   SFRSYM    DATA     BYTE      PCON
      000000BCH   SFRSYM    DATA     BYTE      ADC_CONTR
      000000E7H   SFRSYM    DATA     BYTE      CMPCR2
      000000E6H   SFRSYM    DATA     BYTE      CMPCR1
      000000DEH   SFRSYM    DATA     BYTE      ADCCFG
      000000B8H   SFRSYM    DATA     BYTE      IP
      0000008FH   SFRSYM    DATA     BYTE      INTCLKO
      000000EEH   SFRSYM    DATA     BYTE      IP3H
      000000B6H   SFRSYM    DATA     BYTE      IP2H
      000000BDH   SFRSYM    DATA     BYTE      ADC_RES
L251 LINKER/LOCATER V4.66.93.0                                                        06/19/2025  15:56:37  PAGE 38


      000000A8H   SFRSYM    DATA     BYTE      IE
      000000BBH   SFRSYM    DATA     BYTE      P_SW3
      000000BAH   SFRSYM    DATA     BYTE      P_SW2
      000000A2H   SFRSYM    DATA     BYTE      P_SW1
      000000CEH   SFRSYM    DATA     BYTE      SPCTL
      000000F8H   SFRSYM    DATA     BYTE      P7
      000000E8H   SFRSYM    DATA     BYTE      P6
      000000C8H   SFRSYM    DATA     BYTE      P5
      000000C0H   SFRSYM    DATA     BYTE      P4
      000000B0H   SFRSYM    DATA     BYTE      P3
      000000A0H   SFRSYM    DATA     BYTE      P2
      00000090H   SFRSYM    DATA     BYTE      P1
      00000080H   SFRSYM    DATA     BYTE      P0
      00000091H   SFRSYM    DATA     BYTE      P1M1
      00000092H   SFRSYM    DATA     BYTE      P1M0
      00000093H   SFRSYM    DATA     BYTE      P0M1

      00FF94D7H   BLOCK     CODE     ---       LVL=0
      00010EACH   SYMBOL    XDATA    INT       adcn
      00010EAEH   SYMBOL    XDATA    INT       speed
      00FF94D7H   LINE      CODE     ---       #32
      00FF94E3H   LINE      CODE     ---       #34
      00FF94E6H   LINE      CODE     ---       #36
      00FF94E9H   LINE      CODE     ---       #37
      00FF94F3H   LINE      CODE     ---       #39
      00FF9507H   LINE      CODE     ---       #42
      00FF9524H   LINE      CODE     ---       #43
      00FF953FH   LINE      CODE     ---       #44
      00FF9541H   LINE      CODE     ---       #45
      00FF9553H   LINE      CODE     ---       #48
      00FF9570H   LINE      CODE     ---       #49
      00FF958BH   LINE      CODE     ---       #50
      00FF958BH   LINE      CODE     ---       #52
      00FF959CH   LINE      CODE     ---       #54
      00FF959FH   LINE      CODE     ---       #55
      ---         BLOCKEND  ---      ---       LVL=0

      00FF9723H   BLOCK     CODE     ---       LVL=0
      00010D22H   SYMBOL    XDATA    INT       adcn
      00010D24H   SYMBOL    XDATA    INT       resolution
      00FF972FH   BLOCK     CODE     NEAR LAB  LVL=1
      00010D26H   SYMBOL    XDATA    WORD      adc_value
      00010F10H   SYMBOL    XDATA    WORD      last_adc_value
      00010D28H   SYMBOL    XDATA    WORD      count
      00000020H.3 SYMBOL    BIT      BIT       time_out
      ---         BLOCKEND  ---      ---       LVL=1
      00FF9723H   LINE      CODE     ---       #66
      00FF972FH   LINE      CODE     ---       #67
      00FF972FH   LINE      CODE     ---       #70
      00FF9737H   LINE      CODE     ---       #72
      00FF973AH   LINE      CODE     ---       #73
      00FF9744H   LINE      CODE     ---       #75
      00FF9747H   LINE      CODE     ---       #76
      00FF9749H   LINE      CODE     ---       #78
      00FF9766H   LINE      CODE     ---       #79
      00FF976BH   LINE      CODE     ---       #80
      00FF976EH   LINE      CODE     ---       #82
      00FF9771H   LINE      CODE     ---       #84
      00FF9774H   LINE      CODE     ---       #86
      00FF9777H   LINE      CODE     ---       #87
      00FF977AH   LINE      CODE     ---       #88
      00FF9782H   LINE      CODE     ---       #89
      00FF9782H   LINE      CODE     ---       #91
      00FF978CH   LINE      CODE     ---       #92
      00FF9799H   LINE      CODE     ---       #93
L251 LINKER/LOCATER V4.66.93.0                                                        06/19/2025  15:56:37  PAGE 39


      00FF97A8H   LINE      CODE     ---       #95
      00FF97ABH   LINE      CODE     ---       #96
      00FF97AEH   LINE      CODE     ---       #98
      00FF97C4H   LINE      CODE     ---       #99
      00FF97D0H   LINE      CODE     ---       #101
      00FF97D6H   LINE      CODE     ---       #102
      ---         BLOCKEND  ---      ---       LVL=0

      00FFA45BH   BLOCK     CODE     ---       LVL=0
      00010F12H   SYMBOL    XDATA    INT       resolution
      00FFA45BH   LINE      CODE     ---       #111
      00FFA461H   LINE      CODE     ---       #113
      00FFA46CH   LINE      CODE     ---       #114
      00FFA479H   LINE      CODE     ---       #115
      00FFA486H   LINE      CODE     ---       #116
      00FFA493H   LINE      CODE     ---       #117
      00FFA4A0H   LINE      CODE     ---       #118
      ---         BLOCKEND  ---      ---       LVL=0

      00FF8CC5H   BLOCK     CODE     ---       LVL=0
      00010AD6H   SYMBOL    XDATA    INT       adcn
      00FF8CCBH   BLOCK     CODE     NEAR LAB  LVL=1
      00010AD8H   SYMBOL    XDATA    WORD      data1
      00010ADAH   SYMBOL    XDATA    WORD      data2
      00010ADCH   SYMBOL    XDATA    WORD      data3
      00010ADEH   SYMBOL    XDATA    WORD      tmp
      00010AE0H   SYMBOL    XDATA    WORD      sum
      00010AE2H   SYMBOL    XDATA    WORD      temp_val
      00010AE4H   SYMBOL    XDATA    BYTE      delay
      00010AE5H   SYMBOL    XDATA    BYTE      num
      ---         BLOCKEND  ---      ---       LVL=1
      00FF8CC5H   LINE      CODE     ---       #127
      00FF8CCBH   LINE      CODE     ---       #128
      00FF8CCBH   LINE      CODE     ---       #129
      00FF8CD3H   LINE      CODE     ---       #130
      00FF8CDBH   LINE      CODE     ---       #133
      00FF8CE3H   LINE      CODE     ---       #135
      00FF8CF4H   LINE      CODE     ---       #136
      00FF8D12H   LINE      CODE     ---       #137
      00FF8D23H   LINE      CODE     ---       #138
      00FF8D41H   LINE      CODE     ---       #139
      00FF8D52H   LINE      CODE     ---       #141
      00FF8D62H   LINE      CODE     ---       #143
      00FF8D86H   LINE      CODE     ---       #144
      00FF8D86H   LINE      CODE     ---       #145
      00FF8D96H   LINE      CODE     ---       #146
      00FF8DA4H   LINE      CODE     ---       #147
      00FF8DB4H   LINE      CODE     ---       #148
      00FF8DC2H   LINE      CODE     ---       #150
      00FF8DCEH   LINE      CODE     ---       #151
      00FF8DDFH   LINE      CODE     ---       #153
      00FF8DF9H   LINE      CODE     ---       #154
      00FF8E0BH   LINE      CODE     ---       #156
      00FF8E11H   LINE      CODE     ---       #157
      ---         BLOCKEND  ---      ---       LVL=0

      00FF9B00H   BLOCK     CODE     ---       LVL=0
      00010CA4H   SYMBOL    XDATA    WORD      ad_result
      00010CA6H   SYMBOL    XDATA    WORD      battery_voltage
      00010CA8H   SYMBOL    XDATA    DWORD     temp
      00010CACH   SYMBOL    XDATA    BYTE      delay
      00FF9B00H   LINE      CODE     ---       #167
      00FF9B00H   LINE      CODE     ---       #168
      00FF9B00H   LINE      CODE     ---       #169
      00FF9B08H   LINE      CODE     ---       #170
L251 LINKER/LOCATER V4.66.93.0                                                        06/19/2025  15:56:37  PAGE 40


      00FF9B10H   LINE      CODE     ---       #171
      00FF9B1CH   LINE      CODE     ---       #174
      00FF9B2BH   LINE      CODE     ---       #175
      00FF9B49H   LINE      CODE     ---       #176
      00FF9B6DH   LINE      CODE     ---       #177
      00FF9B8FH   LINE      CODE     ---       #179
      00FF9B95H   LINE      CODE     ---       #180
      ---         BLOCKEND  ---      ---       LVL=0

      ---         MODULE    ---      ---       zf_delay
      00FFA219H   PUBLIC    CODE     ---       delay_init
      00FFA56AH   PUBLIC    CODE     ---       delay_ms
      00010EB0H   PUBLIC    XDATA    WORD      zf_delay_ms
      00010EB2H   PUBLIC    XDATA    WORD      zf_delay_us
      000000D0H   SFRSYM    DATA     BYTE      PSW
      0000009DH   SFRSYM    DATA     BYTE      IRCBAND
      00000097H   SFRSYM    DATA     BYTE      AUXR2
      000000EFH   SFRSYM    DATA     BYTE      AUXINTIF
      000000FDH   SFRSYM    DATA     BYTE      S4CON
      000000ACH   SFRSYM    DATA     BYTE      S3CON
      0000009AH   SFRSYM    DATA     BYTE      S2CON
      000000B7H   SFRSYM    DATA     BYTE      IPH
      000000CDH   SFRSYM    DATA     BYTE      SPSTAT
      000000DDH   SFRSYM    DATA     BYTE      T4T3M
      000000C1H   SFRSYM    DATA     BYTE      WDT_CONTR
      000000DFH   SFRSYM    DATA     BYTE      IP3
      000000F4H   SFRSYM    DATA     BYTE      USBCON
      000000B5H   SFRSYM    DATA     BYTE      IP2
      000000FFH   SFRSYM    DATA     BYTE      RSTCFG
      000000F9H   SFRSYM    DATA     BYTE      LINICR
      0000008EH   SFRSYM    DATA     BYTE      AUXR
      000000AFH   SFRSYM    DATA     BYTE      IE2
      00000088H   SFRSYM    DATA     BYTE      TCON
      00000098H   SFRSYM    DATA     BYTE      SCON
      000000F1H   SFRSYM    DATA     BYTE      CANICR
      00000087H   SFRSYM    DATA     BYTE      PCON
      000000BCH   SFRSYM    DATA     BYTE      ADC_CONTR
      000000E7H   SFRSYM    DATA     BYTE      CMPCR2
      000000E6H   SFRSYM    DATA     BYTE      CMPCR1
      000000B8H   SFRSYM    DATA     BYTE      IP
      0000008FH   SFRSYM    DATA     BYTE      INTCLKO
      000000EEH   SFRSYM    DATA     BYTE      IP3H
      000000B6H   SFRSYM    DATA     BYTE      IP2H
      000000A8H   SFRSYM    DATA     BYTE      IE
      000000BBH   SFRSYM    DATA     BYTE      P_SW3
      000000BAH   SFRSYM    DATA     BYTE      P_SW2
      000000A2H   SFRSYM    DATA     BYTE      P_SW1
      000000CEH   SFRSYM    DATA     BYTE      SPCTL
      000000F8H   SFRSYM    DATA     BYTE      P7
      000000E8H   SFRSYM    DATA     BYTE      P6
      000000C8H   SFRSYM    DATA     BYTE      P5
      000000C0H   SFRSYM    DATA     BYTE      P4
      000000B0H   SFRSYM    DATA     BYTE      P3
      000000A0H   SFRSYM    DATA     BYTE      P2
      00000090H   SFRSYM    DATA     BYTE      P1
      00000080H   SFRSYM    DATA     BYTE      P0

      00FFA219H   BLOCK     CODE     ---       LVL=0
      00FFA219H   LINE      CODE     ---       #34
      00FFA219H   LINE      CODE     ---       #36
      00FFA230H   LINE      CODE     ---       #37
      00FFA24BH   LINE      CODE     ---       #38
      00FFA270H   LINE      CODE     ---       #40
      ---         BLOCKEND  ---      ---       LVL=0

L251 LINKER/LOCATER V4.66.93.0                                                        06/19/2025  15:56:37  PAGE 41


      00FFA56AH   BLOCK     CODE     ---       LVL=0
      00010EB4H   SYMBOL    XDATA    WORD      ms
      00FFA570H   BLOCK     CODE     NEAR LAB  LVL=1
      00010EB6H   SYMBOL    XDATA    WORD      i
      ---         BLOCKEND  ---      ---       LVL=1
      00FFA56AH   LINE      CODE     ---       #48
      00FFA570H   LINE      CODE     ---       #49
      00FFA570H   LINE      CODE     ---       #51
      00FFA570H   LINE      CODE     ---       #52
      00FFA57CH   LINE      CODE     ---       #54
      00FFA591H   LINE      CODE     ---       #55
      00FFA5A6H   LINE      CODE     ---       #56
      ---         BLOCKEND  ---      ---       LVL=0
      00010DD5H   SYMBOL    XDATA    DWORD     us
      00010DD9H   SYMBOL    XDATA    WORD      i

      ---         MODULE    ---      ---       zf_eeprom
      00010C68H   PUBLIC    XDATA    BYTE      ?iap_read_bytes?BYTE
      00010C72H   PUBLIC    XDATA    BYTE      ?iap_write_bytes?BYTE
      000000D0H   SFRSYM    DATA     BYTE      PSW
      0000009DH   SFRSYM    DATA     BYTE      IRCBAND
      000000D0H.5 SFRSYM    DATA     BIT       F0
      00000097H   SFRSYM    DATA     BYTE      AUXR2
      000000C6H   SFRSYM    DATA     BYTE      IAP_TRIG
      000000EFH   SFRSYM    DATA     BYTE      AUXINTIF
      000000FDH   SFRSYM    DATA     BYTE      S4CON
      000000ACH   SFRSYM    DATA     BYTE      S3CON
      0000009AH   SFRSYM    DATA     BYTE      S2CON
      000000B7H   SFRSYM    DATA     BYTE      IPH
      000000CDH   SFRSYM    DATA     BYTE      SPSTAT
      000000DDH   SFRSYM    DATA     BYTE      T4T3M
      000000C1H   SFRSYM    DATA     BYTE      WDT_CONTR
      000000C2H   SFRSYM    DATA     BYTE      IAP_DATA
      000000DFH   SFRSYM    DATA     BYTE      IP3
      000000F4H   SFRSYM    DATA     BYTE      USBCON
      000000B5H   SFRSYM    DATA     BYTE      IP2
      000000FFH   SFRSYM    DATA     BYTE      RSTCFG
      000000C7H   SFRSYM    DATA     BYTE      IAP_CONTR
      000000F9H   SFRSYM    DATA     BYTE      LINICR
      0000008EH   SFRSYM    DATA     BYTE      AUXR
      000000AFH   SFRSYM    DATA     BYTE      IE2
      00000088H   SFRSYM    DATA     BYTE      TCON
      00000098H   SFRSYM    DATA     BYTE      SCON
      000000F5H   SFRSYM    DATA     BYTE      IAP_TPS
      000000F1H   SFRSYM    DATA     BYTE      CANICR
      00000087H   SFRSYM    DATA     BYTE      PCON
      000000BCH   SFRSYM    DATA     BYTE      ADC_CONTR
      000000E7H   SFRSYM    DATA     BYTE      CMPCR2
      000000E6H   SFRSYM    DATA     BYTE      CMPCR1
      000000C4H   SFRSYM    DATA     BYTE      IAP_ADDRL
      000000C3H   SFRSYM    DATA     BYTE      IAP_ADDRH
      000000F6H   SFRSYM    DATA     BYTE      IAP_ADDRE
      000000B8H   SFRSYM    DATA     BYTE      IP
      0000008FH   SFRSYM    DATA     BYTE      INTCLKO
      000000EEH   SFRSYM    DATA     BYTE      IP3H
      000000B6H   SFRSYM    DATA     BYTE      IP2H
      000000C5H   SFRSYM    DATA     BYTE      IAP_CMD
      000000A8H   SFRSYM    DATA     BYTE      IE
      000000BBH   SFRSYM    DATA     BYTE      P_SW3
      000000BAH   SFRSYM    DATA     BYTE      P_SW2
      000000A2H   SFRSYM    DATA     BYTE      P_SW1
      000000CEH   SFRSYM    DATA     BYTE      SPCTL
      000000F8H   SFRSYM    DATA     BYTE      P7
      000000A8H.7 SFRSYM    DATA     BIT       EA
      000000E8H   SFRSYM    DATA     BYTE      P6
L251 LINKER/LOCATER V4.66.93.0                                                        06/19/2025  15:56:37  PAGE 42


      000000C8H   SFRSYM    DATA     BYTE      P5
      000000C0H   SFRSYM    DATA     BYTE      P4
      000000B0H   SFRSYM    DATA     BYTE      P3
      000000A0H   SFRSYM    DATA     BYTE      P2
      00000090H   SFRSYM    DATA     BYTE      P1
      00000080H   SFRSYM    DATA     BYTE      P0
      00010F4FH   SYMBOL    XDATA    BYTE      write_time
      00010C68H   SYMBOL    XDATA    DWORD     addr
      00010C6CH   SYMBOL    XDATA    ---       buf
      00010C70H   SYMBOL    XDATA    WORD      len
      00010C72H   SYMBOL    XDATA    DWORD     addr
      00010C76H   SYMBOL    XDATA    ---       buf
      00010C7AH   SYMBOL    XDATA    WORD      len
      00010EB8H   SYMBOL    XDATA    DWORD     addr

      ---         MODULE    ---      ---       zf_gpio
      00FF4626H   PUBLIC    CODE     ---       gpio_mode
      00000094H   SFRSYM    DATA     BYTE      P0M0
      000000D0H   SFRSYM    DATA     BYTE      PSW
      0000009DH   SFRSYM    DATA     BYTE      IRCBAND
      00000097H   SFRSYM    DATA     BYTE      AUXR2
      000000EFH   SFRSYM    DATA     BYTE      AUXINTIF
      000000FDH   SFRSYM    DATA     BYTE      S4CON
      000000ACH   SFRSYM    DATA     BYTE      S3CON
      0000009AH   SFRSYM    DATA     BYTE      S2CON
      000000B7H   SFRSYM    DATA     BYTE      IPH
      000000CDH   SFRSYM    DATA     BYTE      SPSTAT
      000000DDH   SFRSYM    DATA     BYTE      T4T3M
      000000C1H   SFRSYM    DATA     BYTE      WDT_CONTR
      000000DFH   SFRSYM    DATA     BYTE      IP3
      000000F4H   SFRSYM    DATA     BYTE      USBCON
      000000B5H   SFRSYM    DATA     BYTE      IP2
      000000FFH   SFRSYM    DATA     BYTE      RSTCFG
      000000F9H   SFRSYM    DATA     BYTE      LINICR
      0000008EH   SFRSYM    DATA     BYTE      AUXR
      000000AFH   SFRSYM    DATA     BYTE      IE2
      00000088H   SFRSYM    DATA     BYTE      TCON
      00000098H   SFRSYM    DATA     BYTE      SCON
      000000F1H   SFRSYM    DATA     BYTE      CANICR
      00000087H   SFRSYM    DATA     BYTE      PCON
      000000BCH   SFRSYM    DATA     BYTE      ADC_CONTR
      000000E7H   SFRSYM    DATA     BYTE      CMPCR2
      000000E6H   SFRSYM    DATA     BYTE      CMPCR1
      000000B8H   SFRSYM    DATA     BYTE      IP
      0000008FH   SFRSYM    DATA     BYTE      INTCLKO
      000000EEH   SFRSYM    DATA     BYTE      IP3H
      000000B6H   SFRSYM    DATA     BYTE      IP2H
      000000A8H   SFRSYM    DATA     BYTE      IE
      000000BBH   SFRSYM    DATA     BYTE      P_SW3
      000000BAH   SFRSYM    DATA     BYTE      P_SW2
      000000A2H   SFRSYM    DATA     BYTE      P_SW1
      000000CEH   SFRSYM    DATA     BYTE      SPCTL
      000000F8H   SFRSYM    DATA     BYTE      P7
      000000E1H   SFRSYM    DATA     BYTE      P7M1
      000000E8H   SFRSYM    DATA     BYTE      P6
      000000C8H   SFRSYM    DATA     BYTE      P5
      000000CBH   SFRSYM    DATA     BYTE      P6M1
      000000E2H   SFRSYM    DATA     BYTE      P7M0
      000000C0H   SFRSYM    DATA     BYTE      P4
      000000C9H   SFRSYM    DATA     BYTE      P5M1
      000000CCH   SFRSYM    DATA     BYTE      P6M0
      000000B0H   SFRSYM    DATA     BYTE      P3
      000000B3H   SFRSYM    DATA     BYTE      P4M1
      000000CAH   SFRSYM    DATA     BYTE      P5M0
      000000A0H   SFRSYM    DATA     BYTE      P2
L251 LINKER/LOCATER V4.66.93.0                                                        06/19/2025  15:56:37  PAGE 43


      000000B1H   SFRSYM    DATA     BYTE      P3M1
      000000B4H   SFRSYM    DATA     BYTE      P4M0
      00000090H   SFRSYM    DATA     BYTE      P1
      00000095H   SFRSYM    DATA     BYTE      P2M1
      000000B2H   SFRSYM    DATA     BYTE      P3M0
      00000080H   SFRSYM    DATA     BYTE      P0
      00000091H   SFRSYM    DATA     BYTE      P1M1
      00000096H   SFRSYM    DATA     BYTE      P2M0
      00000092H   SFRSYM    DATA     BYTE      P1M0
      00000093H   SFRSYM    DATA     BYTE      P0M1
      00010EBCH   SYMBOL    XDATA    INT       pin
      00010EBEH   SYMBOL    XDATA    INT       pull

      00FF4626H   BLOCK     CODE     ---       LVL=0
      00010EC0H   SYMBOL    XDATA    INT       pin
      00010EC2H   SYMBOL    XDATA    INT       mode
      00FF4626H   LINE      CODE     ---       #54
      00FF4632H   LINE      CODE     ---       #56
      00FF4641H   LINE      CODE     ---       #58
      00FF4653H   LINE      CODE     ---       #60
      00FF4670H   LINE      CODE     ---       #61
      00FF468DH   LINE      CODE     ---       #62
      00FF468DH   LINE      CODE     ---       #63
      00FF46A1H   LINE      CODE     ---       #65
      00FF46BEH   LINE      CODE     ---       #66
      00FF46DBH   LINE      CODE     ---       #67
      00FF46DBH   LINE      CODE     ---       #68
      00FF46EFH   LINE      CODE     ---       #70
      00FF470CH   LINE      CODE     ---       #71
      00FF4729H   LINE      CODE     ---       #72
      00FF4729H   LINE      CODE     ---       #74
      00FF473DH   LINE      CODE     ---       #76
      00FF475AH   LINE      CODE     ---       #77
      00FF4777H   LINE      CODE     ---       #78
      00FF4777H   LINE      CODE     ---       #79
      00FF478BH   LINE      CODE     ---       #81
      00FF47A8H   LINE      CODE     ---       #82
      00FF47C5H   LINE      CODE     ---       #83
      00FF47C5H   LINE      CODE     ---       #84
      00FF47D9H   LINE      CODE     ---       #86
      00FF47F6H   LINE      CODE     ---       #87
      00FF4813H   LINE      CODE     ---       #88
      00FF4813H   LINE      CODE     ---       #89
      00FF4827H   LINE      CODE     ---       #91
      00FF4844H   LINE      CODE     ---       #92
      00FF4861H   LINE      CODE     ---       #93
      00FF4861H   LINE      CODE     ---       #94
      00FF4878H   LINE      CODE     ---       #96
      00FF4895H   LINE      CODE     ---       #97
      00FF48B2H   LINE      CODE     ---       #98
      00FF48B5H   LINE      CODE     ---       #100
      00FF48C6H   LINE      CODE     ---       #102
      00FF48D8H   LINE      CODE     ---       #104
      00FF48F5H   LINE      CODE     ---       #105
      00FF4910H   LINE      CODE     ---       #106
      00FF4910H   LINE      CODE     ---       #107
      00FF4924H   LINE      CODE     ---       #109
      00FF4941H   LINE      CODE     ---       #110
      00FF495CH   LINE      CODE     ---       #111
      00FF495CH   LINE      CODE     ---       #112
      00FF4970H   LINE      CODE     ---       #114
      00FF498DH   LINE      CODE     ---       #115
      00FF49A8H   LINE      CODE     ---       #116
      00FF49A8H   LINE      CODE     ---       #118
      00FF49BCH   LINE      CODE     ---       #120
L251 LINKER/LOCATER V4.66.93.0                                                        06/19/2025  15:56:37  PAGE 44


      00FF49D9H   LINE      CODE     ---       #121
      00FF49F4H   LINE      CODE     ---       #122
      00FF49F4H   LINE      CODE     ---       #123
      00FF4A08H   LINE      CODE     ---       #125
      00FF4A25H   LINE      CODE     ---       #126
      00FF4A40H   LINE      CODE     ---       #127
      00FF4A40H   LINE      CODE     ---       #128
      00FF4A54H   LINE      CODE     ---       #130
      00FF4A71H   LINE      CODE     ---       #131
      00FF4A8CH   LINE      CODE     ---       #132
      00FF4A8CH   LINE      CODE     ---       #133
      00FF4AA0H   LINE      CODE     ---       #135
      00FF4ABDH   LINE      CODE     ---       #136
      00FF4AD8H   LINE      CODE     ---       #137
      00FF4AD8H   LINE      CODE     ---       #138
      00FF4AEFH   LINE      CODE     ---       #140
      00FF4B0CH   LINE      CODE     ---       #141
      00FF4B27H   LINE      CODE     ---       #142
      00FF4B2AH   LINE      CODE     ---       #145
      00FF4B3BH   LINE      CODE     ---       #147
      00FF4B4DH   LINE      CODE     ---       #149
      00FF4B68H   LINE      CODE     ---       #150
      00FF4B85H   LINE      CODE     ---       #151
      00FF4B85H   LINE      CODE     ---       #152
      00FF4B99H   LINE      CODE     ---       #154
      00FF4BB4H   LINE      CODE     ---       #155
      00FF4BD1H   LINE      CODE     ---       #156
      00FF4BD1H   LINE      CODE     ---       #157
      00FF4BE5H   LINE      CODE     ---       #159
      00FF4C00H   LINE      CODE     ---       #160
      00FF4C1DH   LINE      CODE     ---       #161
      00FF4C1DH   LINE      CODE     ---       #163
      00FF4C31H   LINE      CODE     ---       #165
      00FF4C4CH   LINE      CODE     ---       #166
      00FF4C69H   LINE      CODE     ---       #167
      00FF4C69H   LINE      CODE     ---       #168
      00FF4C7DH   LINE      CODE     ---       #170
      00FF4C98H   LINE      CODE     ---       #171
      00FF4CB5H   LINE      CODE     ---       #172
      00FF4CB5H   LINE      CODE     ---       #173
      00FF4CC9H   LINE      CODE     ---       #175
      00FF4CE4H   LINE      CODE     ---       #176
      00FF4D01H   LINE      CODE     ---       #177
      00FF4D01H   LINE      CODE     ---       #178
      00FF4D15H   LINE      CODE     ---       #180
      00FF4D30H   LINE      CODE     ---       #181
      00FF4D4DH   LINE      CODE     ---       #182
      00FF4D4DH   LINE      CODE     ---       #183
      00FF4D64H   LINE      CODE     ---       #185
      00FF4D7FH   LINE      CODE     ---       #186
      00FF4D9CH   LINE      CODE     ---       #187
      00FF4D9FH   LINE      CODE     ---       #189
      00FF4DB0H   LINE      CODE     ---       #191
      00FF4DC2H   LINE      CODE     ---       #193
      00FF4DDDH   LINE      CODE     ---       #194
      00FF4DF8H   LINE      CODE     ---       #195
      00FF4DF8H   LINE      CODE     ---       #196
      00FF4E0CH   LINE      CODE     ---       #198
      00FF4E27H   LINE      CODE     ---       #199
      00FF4E42H   LINE      CODE     ---       #200
      00FF4E42H   LINE      CODE     ---       #201
      00FF4E56H   LINE      CODE     ---       #203
      00FF4E71H   LINE      CODE     ---       #204
      00FF4E8CH   LINE      CODE     ---       #205
      00FF4E8CH   LINE      CODE     ---       #207
L251 LINKER/LOCATER V4.66.93.0                                                        06/19/2025  15:56:37  PAGE 45


      00FF4EA0H   LINE      CODE     ---       #209
      00FF4EBBH   LINE      CODE     ---       #210
      00FF4ED6H   LINE      CODE     ---       #211
      00FF4ED6H   LINE      CODE     ---       #212
      00FF4EEAH   LINE      CODE     ---       #214
      00FF4F05H   LINE      CODE     ---       #215
      00FF4F20H   LINE      CODE     ---       #216
      00FF4F20H   LINE      CODE     ---       #217
      00FF4F34H   LINE      CODE     ---       #219
      00FF4F4FH   LINE      CODE     ---       #220
      00FF4F6AH   LINE      CODE     ---       #221
      00FF4F6AH   LINE      CODE     ---       #222
      00FF4F7EH   LINE      CODE     ---       #224
      00FF4F99H   LINE      CODE     ---       #225
      00FF4FB4H   LINE      CODE     ---       #226
      00FF4FB4H   LINE      CODE     ---       #227
      00FF4FC8H   LINE      CODE     ---       #229
      00FF4FE3H   LINE      CODE     ---       #230
      00FF4FFEH   LINE      CODE     ---       #231
      00FF4FFEH   LINE      CODE     ---       #233
      ---         BLOCKEND  ---      ---       LVL=0

      ---         MODULE    ---      ---       zf_nvic
      000000D0H   SFRSYM    DATA     BYTE      PSW
      0000009DH   SFRSYM    DATA     BYTE      IRCBAND
      00000097H   SFRSYM    DATA     BYTE      AUXR2
      000000EFH   SFRSYM    DATA     BYTE      AUXINTIF
      000000FDH   SFRSYM    DATA     BYTE      S4CON
      000000ACH   SFRSYM    DATA     BYTE      S3CON
      0000009AH   SFRSYM    DATA     BYTE      S2CON
      000000B7H   SFRSYM    DATA     BYTE      IPH
      000000CDH   SFRSYM    DATA     BYTE      SPSTAT
      000000DDH   SFRSYM    DATA     BYTE      T4T3M
      000000C1H   SFRSYM    DATA     BYTE      WDT_CONTR
      000000DFH   SFRSYM    DATA     BYTE      IP3
      000000F4H   SFRSYM    DATA     BYTE      USBCON
      000000B5H   SFRSYM    DATA     BYTE      IP2
      000000FFH   SFRSYM    DATA     BYTE      RSTCFG
      000000F9H   SFRSYM    DATA     BYTE      LINICR
      0000008EH   SFRSYM    DATA     BYTE      AUXR
      000000AFH   SFRSYM    DATA     BYTE      IE2
      00000088H   SFRSYM    DATA     BYTE      TCON
      00000098H   SFRSYM    DATA     BYTE      SCON
      000000F1H   SFRSYM    DATA     BYTE      CANICR
      00000087H   SFRSYM    DATA     BYTE      PCON
      000000BCH   SFRSYM    DATA     BYTE      ADC_CONTR
      000000E7H   SFRSYM    DATA     BYTE      CMPCR2
      000000E6H   SFRSYM    DATA     BYTE      CMPCR1
      000000B8H   SFRSYM    DATA     BYTE      IP
      0000008FH   SFRSYM    DATA     BYTE      INTCLKO
      000000EEH   SFRSYM    DATA     BYTE      IP3H
      000000B6H   SFRSYM    DATA     BYTE      IP2H
      000000A8H   SFRSYM    DATA     BYTE      IE
      000000BBH   SFRSYM    DATA     BYTE      P_SW3
      000000BAH   SFRSYM    DATA     BYTE      P_SW2
      000000A2H   SFRSYM    DATA     BYTE      P_SW1
      000000CEH   SFRSYM    DATA     BYTE      SPCTL
      000000F8H   SFRSYM    DATA     BYTE      P7
      000000E8H   SFRSYM    DATA     BYTE      P6
      000000C8H   SFRSYM    DATA     BYTE      P5
      000000C0H   SFRSYM    DATA     BYTE      P4
      000000B0H   SFRSYM    DATA     BYTE      P3
      000000A0H   SFRSYM    DATA     BYTE      P2
      00000090H   SFRSYM    DATA     BYTE      P1
      00000080H   SFRSYM    DATA     BYTE      P0
L251 LINKER/LOCATER V4.66.93.0                                                        06/19/2025  15:56:37  PAGE 46


      00010EECH   SYMBOL    XDATA    INT       irqn
      00010EEEH   SYMBOL    XDATA    BYTE      priority

      ---         MODULE    ---      ---       zf_pwm
      00FF8B63H   PUBLIC    CODE     ---       pwm_duty
      00FFA4A1H   PUBLIC    CODE     ---       Motor_Init
      00FF9C24H   PUBLIC    CODE     ---       Motor_Ctrl
      00FF7126H   PUBLIC    CODE     ---       pwm_set_gpio
      00FF6463H   PUBLIC    CODE     ---       pwm_init
      00FFAD57H   PUBLIC    HCONST   ---       PWM_CCR_ADDR
      00FFAD77H   PUBLIC    HCONST   ---       PWM_ARR_ADDR
      00FFAD7FH   PUBLIC    HCONST   ---       PWM_CCER_ADDR
      00FFAD8FH   PUBLIC    HCONST   ---       PWM_CCMR_ADDR
      00010A54H   PUBLIC    XDATA    BYTE      ?pwm_init?BYTE
      00010A68H   PUBLIC    XDATA    BYTE      ?pwm_freq?BYTE
      000000D0H   SFRSYM    DATA     BYTE      PSW
      0000009DH   SFRSYM    DATA     BYTE      IRCBAND
      00000097H   SFRSYM    DATA     BYTE      AUXR2
      000000EFH   SFRSYM    DATA     BYTE      AUXINTIF
      000000FDH   SFRSYM    DATA     BYTE      S4CON
      000000ACH   SFRSYM    DATA     BYTE      S3CON
      0000009AH   SFRSYM    DATA     BYTE      S2CON
      000000B7H   SFRSYM    DATA     BYTE      IPH
      000000CDH   SFRSYM    DATA     BYTE      SPSTAT
      000000DDH   SFRSYM    DATA     BYTE      T4T3M
      000000C1H   SFRSYM    DATA     BYTE      WDT_CONTR
      000000DFH   SFRSYM    DATA     BYTE      IP3
      000000F4H   SFRSYM    DATA     BYTE      USBCON
      000000B5H   SFRSYM    DATA     BYTE      IP2
      000000FFH   SFRSYM    DATA     BYTE      RSTCFG
      000000F9H   SFRSYM    DATA     BYTE      LINICR
      0000008EH   SFRSYM    DATA     BYTE      AUXR
      000000AFH   SFRSYM    DATA     BYTE      IE2
      000000C0H.2 SFRSYM    DATA     BIT       P42
      00000088H   SFRSYM    DATA     BYTE      TCON
      000000C0H.1 SFRSYM    DATA     BIT       P41
      00000098H   SFRSYM    DATA     BYTE      SCON
      000000F1H   SFRSYM    DATA     BYTE      CANICR
      00000087H   SFRSYM    DATA     BYTE      PCON
      000000BCH   SFRSYM    DATA     BYTE      ADC_CONTR
      000000E7H   SFRSYM    DATA     BYTE      CMPCR2
      000000E6H   SFRSYM    DATA     BYTE      CMPCR1
      000000B8H   SFRSYM    DATA     BYTE      IP
      0000008FH   SFRSYM    DATA     BYTE      INTCLKO
      000000EEH   SFRSYM    DATA     BYTE      IP3H
      000000B6H   SFRSYM    DATA     BYTE      IP2H
      000000A8H   SFRSYM    DATA     BYTE      IE
      000000BBH   SFRSYM    DATA     BYTE      P_SW3
      000000BAH   SFRSYM    DATA     BYTE      P_SW2
      000000A2H   SFRSYM    DATA     BYTE      P_SW1
      000000CEH   SFRSYM    DATA     BYTE      SPCTL
      000000F8H   SFRSYM    DATA     BYTE      P7
      000000E8H   SFRSYM    DATA     BYTE      P6
      000000C8H   SFRSYM    DATA     BYTE      P5
      000000C0H   SFRSYM    DATA     BYTE      P4
      000000B0H   SFRSYM    DATA     BYTE      P3
      000000A0H   SFRSYM    DATA     BYTE      P2
      00000090H   SFRSYM    DATA     BYTE      P1
      00000080H   SFRSYM    DATA     BYTE      P0

      00FF7126H   BLOCK     CODE     ---       LVL=0
      00010F14H   SYMBOL    XDATA    INT       pwmch
      00FF7126H   LINE      CODE     ---       #49
      00FF712CH   LINE      CODE     ---       #51
      00FF72A3H   LINE      CODE     ---       #53
L251 LINKER/LOCATER V4.66.93.0                                                        06/19/2025  15:56:37  PAGE 47


      00FF72A3H   LINE      CODE     ---       #55
      00FF72AEH   LINE      CODE     ---       #56
      00FF72B1H   LINE      CODE     ---       #58
      00FF72B1H   LINE      CODE     ---       #60
      00FF72BCH   LINE      CODE     ---       #61
      00FF72BFH   LINE      CODE     ---       #63
      00FF72BFH   LINE      CODE     ---       #65
      00FF72CAH   LINE      CODE     ---       #66
      00FF72CDH   LINE      CODE     ---       #68
      00FF72CDH   LINE      CODE     ---       #70
      00FF72D8H   LINE      CODE     ---       #71
      00FF72DBH   LINE      CODE     ---       #73
      00FF72DBH   LINE      CODE     ---       #75
      00FF72E6H   LINE      CODE     ---       #76
      00FF72E9H   LINE      CODE     ---       #78
      00FF72E9H   LINE      CODE     ---       #80
      00FF72F4H   LINE      CODE     ---       #81
      00FF72F7H   LINE      CODE     ---       #84
      00FF72F7H   LINE      CODE     ---       #86
      00FF7302H   LINE      CODE     ---       #87
      00FF7305H   LINE      CODE     ---       #89
      00FF7305H   LINE      CODE     ---       #91
      00FF7310H   LINE      CODE     ---       #92
      00FF7313H   LINE      CODE     ---       #94
      00FF7313H   LINE      CODE     ---       #96
      00FF731EH   LINE      CODE     ---       #97
      00FF7321H   LINE      CODE     ---       #99
      00FF7321H   LINE      CODE     ---       #101
      00FF732CH   LINE      CODE     ---       #102
      00FF732FH   LINE      CODE     ---       #104
      00FF732FH   LINE      CODE     ---       #106
      00FF733AH   LINE      CODE     ---       #107
      00FF733DH   LINE      CODE     ---       #109
      00FF733DH   LINE      CODE     ---       #111
      00FF7348H   LINE      CODE     ---       #112
      00FF734BH   LINE      CODE     ---       #115
      00FF734BH   LINE      CODE     ---       #117
      00FF7356H   LINE      CODE     ---       #118
      00FF7359H   LINE      CODE     ---       #120
      00FF7359H   LINE      CODE     ---       #122
      00FF7364H   LINE      CODE     ---       #123
      00FF7367H   LINE      CODE     ---       #125
      00FF7367H   LINE      CODE     ---       #127
      00FF7372H   LINE      CODE     ---       #128
      00FF7375H   LINE      CODE     ---       #130
      00FF7375H   LINE      CODE     ---       #132
      00FF7380H   LINE      CODE     ---       #133
      00FF7383H   LINE      CODE     ---       #135
      00FF7383H   LINE      CODE     ---       #137
      00FF738EH   LINE      CODE     ---       #138
      00FF7391H   LINE      CODE     ---       #140
      00FF7391H   LINE      CODE     ---       #142
      00FF739CH   LINE      CODE     ---       #143
      00FF739FH   LINE      CODE     ---       #147
      00FF739FH   LINE      CODE     ---       #149
      00FF73AAH   LINE      CODE     ---       #150
      00FF73ADH   LINE      CODE     ---       #152
      00FF73ADH   LINE      CODE     ---       #154
      00FF73B8H   LINE      CODE     ---       #155
      00FF73BBH   LINE      CODE     ---       #157
      00FF73BBH   LINE      CODE     ---       #159
      00FF73C6H   LINE      CODE     ---       #160
      00FF73C9H   LINE      CODE     ---       #162
      00FF73C9H   LINE      CODE     ---       #164
      00FF73D4H   LINE      CODE     ---       #165
L251 LINKER/LOCATER V4.66.93.0                                                        06/19/2025  15:56:37  PAGE 48


      00FF73D7H   LINE      CODE     ---       #167
      00FF73D7H   LINE      CODE     ---       #169
      00FF73E2H   LINE      CODE     ---       #170
      00FF73E5H   LINE      CODE     ---       #172
      00FF73E5H   LINE      CODE     ---       #174
      00FF73F0H   LINE      CODE     ---       #175
      00FF73F3H   LINE      CODE     ---       #177
      00FF73F3H   LINE      CODE     ---       #179
      00FF73FEH   LINE      CODE     ---       #180
      00FF7401H   LINE      CODE     ---       #182
      00FF7401H   LINE      CODE     ---       #184
      00FF740CH   LINE      CODE     ---       #185
      00FF740FH   LINE      CODE     ---       #189
      00FF740FH   LINE      CODE     ---       #191
      00FF741AH   LINE      CODE     ---       #192
      00FF741DH   LINE      CODE     ---       #194
      00FF741DH   LINE      CODE     ---       #196
      00FF7428H   LINE      CODE     ---       #197
      00FF742BH   LINE      CODE     ---       #199
      00FF742BH   LINE      CODE     ---       #201
      00FF7434H   LINE      CODE     ---       #202
      00FF7437H   LINE      CODE     ---       #204
      00FF7437H   LINE      CODE     ---       #206
      00FF7442H   LINE      CODE     ---       #207
      00FF7445H   LINE      CODE     ---       #210
      00FF7445H   LINE      CODE     ---       #212
      00FF7450H   LINE      CODE     ---       #213
      00FF7453H   LINE      CODE     ---       #215
      00FF7453H   LINE      CODE     ---       #217
      00FF745EH   LINE      CODE     ---       #218
      00FF7461H   LINE      CODE     ---       #220
      00FF7461H   LINE      CODE     ---       #222
      00FF746CH   LINE      CODE     ---       #223
      00FF746EH   LINE      CODE     ---       #225
      00FF746EH   LINE      CODE     ---       #227
      00FF7479H   LINE      CODE     ---       #228
      00FF747BH   LINE      CODE     ---       #232
      00FF747BH   LINE      CODE     ---       #234
      00FF7486H   LINE      CODE     ---       #235
      00FF7488H   LINE      CODE     ---       #237
      00FF7488H   LINE      CODE     ---       #239
      00FF7493H   LINE      CODE     ---       #240
      00FF7495H   LINE      CODE     ---       #242
      00FF7495H   LINE      CODE     ---       #244
      00FF74A0H   LINE      CODE     ---       #245
      00FF74A2H   LINE      CODE     ---       #247
      00FF74A2H   LINE      CODE     ---       #249
      00FF74ADH   LINE      CODE     ---       #250
      00FF74AFH   LINE      CODE     ---       #254
      00FF74AFH   LINE      CODE     ---       #256
      00FF74BAH   LINE      CODE     ---       #257
      00FF74BCH   LINE      CODE     ---       #259
      00FF74BCH   LINE      CODE     ---       #261
      00FF74C7H   LINE      CODE     ---       #262
      00FF74C9H   LINE      CODE     ---       #264
      00FF74C9H   LINE      CODE     ---       #266
      00FF74D4H   LINE      CODE     ---       #267
      00FF74D6H   LINE      CODE     ---       #269
      00FF74D6H   LINE      CODE     ---       #271
      00FF74E1H   LINE      CODE     ---       #272
      00FF74E1H   LINE      CODE     ---       #275
      00FF74E1H   LINE      CODE     ---       #277
      ---         BLOCKEND  ---      ---       LVL=0

      00FF6463H   BLOCK     CODE     ---       LVL=0
L251 LINKER/LOCATER V4.66.93.0                                                        06/19/2025  15:56:37  PAGE 49


      00010A54H   SYMBOL    XDATA    INT       pwmch
      00010A56H   SYMBOL    XDATA    DWORD     freq
      00010A5AH   SYMBOL    XDATA    DWORD     duty
      00FF6473H   BLOCK     CODE     NEAR LAB  LVL=1
      00010A5EH   SYMBOL    XDATA    DWORD     match_temp
      00010A62H   SYMBOL    XDATA    DWORD     period_temp
      00010A66H   SYMBOL    XDATA    WORD      freq_div
      ---         BLOCKEND  ---      ---       LVL=1
      00FF6463H   LINE      CODE     ---       #290
      00FF6473H   LINE      CODE     ---       #291
      00FF6473H   LINE      CODE     ---       #295
      00FF647BH   LINE      CODE     ---       #298
      00FF647EH   LINE      CODE     ---       #301
      00FF6487H   LINE      CODE     ---       #305
      00FF64A8H   LINE      CODE     ---       #306
      00FF64C9H   LINE      CODE     ---       #307
      00FF64F2H   LINE      CODE     ---       #309
      00FF6502H   LINE      CODE     ---       #311
      00FF653BH   LINE      CODE     ---       #312
      00FF653DH   LINE      CODE     ---       #315
      00FF6557H   LINE      CODE     ---       #316
      00FF6557H   LINE      CODE     ---       #319
      00FF6568H   LINE      CODE     ---       #322
      00FF659BH   LINE      CODE     ---       #323
      00FF65D6H   LINE      CODE     ---       #326
      00FF662CH   LINE      CODE     ---       #329
      00FF6641H   LINE      CODE     ---       #330
      00FF6652H   LINE      CODE     ---       #332
      00FF665FH   LINE      CODE     ---       #333
      00FF666CH   LINE      CODE     ---       #334
      00FF666FH   LINE      CODE     ---       #337
      00FF66B1H   LINE      CODE     ---       #338
      00FF66E8H   LINE      CODE     ---       #341
      00FF674EH   LINE      CODE     ---       #345
      00FF6763H   LINE      CODE     ---       #346
      00FF6774H   LINE      CODE     ---       #348
      00FF6781H   LINE      CODE     ---       #349
      00FF678EH   LINE      CODE     ---       #350
      00FF678EH   LINE      CODE     ---       #353
      00FF67C8H   LINE      CODE     ---       #354
      00FF6808H   LINE      CODE     ---       #357
      00FF683EH   LINE      CODE     ---       #358
      00FF687AH   LINE      CODE     ---       #361
      00FF68ADH   LINE      CODE     ---       #362
      00FF68E0H   LINE      CODE     ---       #367
      ---         BLOCKEND  ---      ---       LVL=0

      00FF8B63H   BLOCK     CODE     ---       LVL=0
      00010B55H   SYMBOL    XDATA    INT       pwmch
      00010B57H   SYMBOL    XDATA    DWORD     duty
      00FF8B73H   BLOCK     CODE     NEAR LAB  LVL=1
      00010B5BH   SYMBOL    XDATA    DWORD     match_temp
      00010B5FH   SYMBOL    XDATA    DWORD     arr
      ---         BLOCKEND  ---      ---       LVL=1
      00FF8B63H   LINE      CODE     ---       #377
      00FF8B73H   LINE      CODE     ---       #378
      00FF8B73H   LINE      CODE     ---       #380
      00FF8BEDH   LINE      CODE     ---       #384
      00FF8BFDH   LINE      CODE     ---       #386
      00FF8C36H   LINE      CODE     ---       #387
      00FF8C38H   LINE      CODE     ---       #390
      00FF8C52H   LINE      CODE     ---       #391
      00FF8C52H   LINE      CODE     ---       #396
      00FF8C88H   LINE      CODE     ---       #397
      00FF8CC4H   LINE      CODE     ---       #401
L251 LINKER/LOCATER V4.66.93.0                                                        06/19/2025  15:56:37  PAGE 50


      ---         BLOCKEND  ---      ---       LVL=0
      00010A68H   SYMBOL    XDATA    INT       pwmch
      00010A6AH   SYMBOL    XDATA    DWORD     freq
      00010A6EH   SYMBOL    XDATA    DWORD     duty
      00010A72H   SYMBOL    XDATA    DWORD     match_temp
      00010A76H   SYMBOL    XDATA    DWORD     period_temp
      00010A7AH   SYMBOL    XDATA    WORD      freq_div

      00FF9C24H   BLOCK     CODE     ---       LVL=0
      00010EC4H   SYMBOL    XDATA    INT       motor1
      00010EC6H   SYMBOL    XDATA    INT       motor2
      00FF9C24H   LINE      CODE     ---       #471
      00FF9C30H   LINE      CODE     ---       #473
      00FF9C3CH   LINE      CODE     ---       #475
      00FF9C4DH   LINE      CODE     ---       #476
      00FF9C50H   LINE      CODE     ---       #478
      00FF9C52H   LINE      CODE     ---       #481
      00FF9C6DH   LINE      CODE     ---       #482
      00FF9C70H   LINE      CODE     ---       #483
      00FF9C70H   LINE      CODE     ---       #485
      00FF9C7CH   LINE      CODE     ---       #487
      00FF9C8DH   LINE      CODE     ---       #488
      00FF9C90H   LINE      CODE     ---       #489
      00FF9C92H   LINE      CODE     ---       #492
      00FF9CADH   LINE      CODE     ---       #493
      00FF9CB0H   LINE      CODE     ---       #494
      00FF9CB0H   LINE      CODE     ---       #495
      ---         BLOCKEND  ---      ---       LVL=0

      00FFA4A1H   BLOCK     CODE     ---       LVL=0
      00FFA4A1H   LINE      CODE     ---       #506
      00FFA4A1H   LINE      CODE     ---       #508
      00FFA4B8H   LINE      CODE     ---       #509
      00FFA4CFH   LINE      CODE     ---       #511
      00FFA4DAH   LINE      CODE     ---       #512
      00FFA4E5H   LINE      CODE     ---       #513
      ---         BLOCKEND  ---      ---       LVL=0

      ---         MODULE    ---      ---       zf_spi
      00FF9161H   PUBLIC    CODE     ---       spi_init
      00FF0066H   PUBLIC    CODE     ---       spi_mosi
      00010BB7H   PUBLIC    XDATA    BYTE      ?spi_init?BYTE
      000000CFH   SFRSYM    DATA     BYTE      SPDAT
      000000D0H   SFRSYM    DATA     BYTE      PSW
      0000009DH   SFRSYM    DATA     BYTE      IRCBAND
      00000097H   SFRSYM    DATA     BYTE      AUXR2
      000000EFH   SFRSYM    DATA     BYTE      AUXINTIF
      000000FDH   SFRSYM    DATA     BYTE      S4CON
      000000ACH   SFRSYM    DATA     BYTE      S3CON
      0000009AH   SFRSYM    DATA     BYTE      S2CON
      000000B7H   SFRSYM    DATA     BYTE      IPH
      000000CDH   SFRSYM    DATA     BYTE      SPSTAT
      000000DDH   SFRSYM    DATA     BYTE      T4T3M
      000000C1H   SFRSYM    DATA     BYTE      WDT_CONTR
      000000DFH   SFRSYM    DATA     BYTE      IP3
      000000F4H   SFRSYM    DATA     BYTE      USBCON
      000000B5H   SFRSYM    DATA     BYTE      IP2
      000000FFH   SFRSYM    DATA     BYTE      RSTCFG
      000000F9H   SFRSYM    DATA     BYTE      LINICR
      0000008EH   SFRSYM    DATA     BYTE      AUXR
      000000AFH   SFRSYM    DATA     BYTE      IE2
      00000088H   SFRSYM    DATA     BYTE      TCON
      00000098H   SFRSYM    DATA     BYTE      SCON
      000000F1H   SFRSYM    DATA     BYTE      CANICR
      00000087H   SFRSYM    DATA     BYTE      PCON
L251 LINKER/LOCATER V4.66.93.0                                                        06/19/2025  15:56:37  PAGE 51


      000000BCH   SFRSYM    DATA     BYTE      ADC_CONTR
      000000E7H   SFRSYM    DATA     BYTE      CMPCR2
      000000E6H   SFRSYM    DATA     BYTE      CMPCR1
      000000B8H   SFRSYM    DATA     BYTE      IP
      0000008FH   SFRSYM    DATA     BYTE      INTCLKO
      000000EEH   SFRSYM    DATA     BYTE      IP3H
      000000B6H   SFRSYM    DATA     BYTE      IP2H
      000000A8H   SFRSYM    DATA     BYTE      IE
      000000BBH   SFRSYM    DATA     BYTE      P_SW3
      000000BAH   SFRSYM    DATA     BYTE      P_SW2
      000000A2H   SFRSYM    DATA     BYTE      P_SW1
      000000CEH   SFRSYM    DATA     BYTE      SPCTL
      000000F8H   SFRSYM    DATA     BYTE      P7
      000000E8H   SFRSYM    DATA     BYTE      P6
      000000C8H   SFRSYM    DATA     BYTE      P5
      000000C0H   SFRSYM    DATA     BYTE      P4
      000000B0H   SFRSYM    DATA     BYTE      P3
      000000A0H   SFRSYM    DATA     BYTE      P2
      00000090H   SFRSYM    DATA     BYTE      P1
      00000080H   SFRSYM    DATA     BYTE      P0

      00FF9161H   BLOCK     CODE     ---       LVL=0
      00010BB7H   SYMBOL    XDATA    INT       spi_n
      00010BB9H   SYMBOL    XDATA    INT       sck_pin
      00010BBBH   SYMBOL    XDATA    INT       mosi_pin
      00010BBDH   SYMBOL    XDATA    INT       miso_pin
      00010BBFH   SYMBOL    XDATA    BYTE      mode
      00010BC0H   SYMBOL    XDATA    INT       mstr
      00010BC2H   SYMBOL    XDATA    INT       baud
      00FF9161H   LINE      CODE     ---       #39
      00FF917DH   LINE      CODE     ---       #48
      00FF918BH   LINE      CODE     ---       #50
      00FF919CH   LINE      CODE     ---       #51
      00FF919CH   LINE      CODE     ---       #53
      00FF91AAH   LINE      CODE     ---       #55
      00FF91BBH   LINE      CODE     ---       #56
      00FF91BBH   LINE      CODE     ---       #58
      00FF91C9H   LINE      CODE     ---       #60
      00FF91DAH   LINE      CODE     ---       #61
      00FF91DAH   LINE      CODE     ---       #64
      00FF91DDH   LINE      CODE     ---       #65
      00FF91F5H   LINE      CODE     ---       #67
      00FF91F5H   LINE      CODE     ---       #68
      00FF91F9H   LINE      CODE     ---       #69
      00FF91FBH   LINE      CODE     ---       #70
      00FF91FBH   LINE      CODE     ---       #71
      00FF91FEH   LINE      CODE     ---       #72
      00FF9200H   LINE      CODE     ---       #73
      00FF9200H   LINE      CODE     ---       #74
      00FF9203H   LINE      CODE     ---       #75
      00FF9205H   LINE      CODE     ---       #76
      00FF9205H   LINE      CODE     ---       #77
      00FF9208H   LINE      CODE     ---       #78
      00FF9208H   LINE      CODE     ---       #79
      00FF9208H   LINE      CODE     ---       #81
      00FF920BH   LINE      CODE     ---       #82
      00FF921AH   LINE      CODE     ---       #84
      00FF921AH   LINE      CODE     ---       #86
      00FF921CH   LINE      CODE     ---       #87
      00FF921CH   LINE      CODE     ---       #88
      00FF921FH   LINE      CODE     ---       #89
      00FF9221H   LINE      CODE     ---       #90
      00FF9221H   LINE      CODE     ---       #91
      00FF9224H   LINE      CODE     ---       #92
      00FF9226H   LINE      CODE     ---       #93
L251 LINKER/LOCATER V4.66.93.0                                                        06/19/2025  15:56:37  PAGE 52


      00FF9226H   LINE      CODE     ---       #94
      00FF9229H   LINE      CODE     ---       #95
      00FF9229H   LINE      CODE     ---       #96
      00FF9229H   LINE      CODE     ---       #99
      00FF9233H   LINE      CODE     ---       #101
      00FF923FH   LINE      CODE     ---       #103
      00FF9242H   LINE      CODE     ---       #104
      00FF9245H   LINE      CODE     ---       #105
      00FF9245H   LINE      CODE     ---       #109
      00FF9245H   LINE      CODE     ---       #110
      00FF9248H   LINE      CODE     ---       #111
      ---         BLOCKEND  ---      ---       LVL=0

      00FF0066H   BLOCK     CODE     ---       LVL=0
      00010F50H   SYMBOL    XDATA    BYTE      dat
      00FF0066H   LINE      CODE     ---       #121
      00FF006AH   LINE      CODE     ---       #123
      00FF0070H   LINE      CODE     ---       #124
      00FF0075H   LINE      CODE     ---       #125
      00FF0079H   LINE      CODE     ---       #126
      00FF007BH   LINE      CODE     ---       #127
      ---         BLOCKEND  ---      ---       LVL=0
      00010F16H   SYMBOL    XDATA    INT       spi_n
      00010F51H   SYMBOL    XDATA    BYTE      mode

      ---         MODULE    ---      ---       zf_tim
      00FF932CH   PUBLIC    CODE     ---       ctimer_count_read
      00FF8F57H   PUBLIC    CODE     ---       pit_timer_ms
      00FF97D7H   PUBLIC    CODE     ---       Read_Encoder
      00FFA107H   PUBLIC    CODE     ---       ctimer_count_init
      00FF9EBDH   PUBLIC    CODE     ---       ctimer_count_clean
      000000D0H   SFRSYM    DATA     BYTE      PSW
      0000009DH   SFRSYM    DATA     BYTE      IRCBAND
      00000097H   SFRSYM    DATA     BYTE      AUXR2
      000000EFH   SFRSYM    DATA     BYTE      AUXINTIF
      000000FDH   SFRSYM    DATA     BYTE      S4CON
      000000ACH   SFRSYM    DATA     BYTE      S3CON
      0000009AH   SFRSYM    DATA     BYTE      S2CON
      000000B7H   SFRSYM    DATA     BYTE      IPH
      000000CDH   SFRSYM    DATA     BYTE      SPSTAT
      000000DDH   SFRSYM    DATA     BYTE      T4T3M
      000000C1H   SFRSYM    DATA     BYTE      WDT_CONTR
      00000088H.6 SFRSYM    DATA     BIT       TR1
      00000088H.4 SFRSYM    DATA     BIT       TR0
      000000D3H   SFRSYM    DATA     BYTE      T4L
      000000D5H   SFRSYM    DATA     BYTE      T3L
      000000D7H   SFRSYM    DATA     BYTE      T2L
      0000008BH   SFRSYM    DATA     BYTE      TL1
      0000008AH   SFRSYM    DATA     BYTE      TL0
      000000D2H   SFRSYM    DATA     BYTE      T4H
      000000D4H   SFRSYM    DATA     BYTE      T3H
      000000D6H   SFRSYM    DATA     BYTE      T2H
      0000008DH   SFRSYM    DATA     BYTE      TH1
      0000008CH   SFRSYM    DATA     BYTE      TH0
      000000DFH   SFRSYM    DATA     BYTE      IP3
      000000F4H   SFRSYM    DATA     BYTE      USBCON
      000000B5H   SFRSYM    DATA     BYTE      IP2
      000000FFH   SFRSYM    DATA     BYTE      RSTCFG
      000000A8H.3 SFRSYM    DATA     BIT       ET1
      000000A8H.1 SFRSYM    DATA     BIT       ET0
      000000F9H   SFRSYM    DATA     BYTE      LINICR
      0000008EH   SFRSYM    DATA     BYTE      AUXR
      000000AFH   SFRSYM    DATA     BYTE      IE2
      000000F8H.7 SFRSYM    DATA     BIT       P77
      000000C0H.6 SFRSYM    DATA     BIT       P46
L251 LINKER/LOCATER V4.66.93.0                                                        06/19/2025  15:56:37  PAGE 53


      00000088H   SFRSYM    DATA     BYTE      TCON
      00000089H   SFRSYM    DATA     BYTE      TMOD
      00000098H   SFRSYM    DATA     BYTE      SCON
      000000F1H   SFRSYM    DATA     BYTE      CANICR
      00000087H   SFRSYM    DATA     BYTE      PCON
      000000BCH   SFRSYM    DATA     BYTE      ADC_CONTR
      000000E7H   SFRSYM    DATA     BYTE      CMPCR2
      000000E6H   SFRSYM    DATA     BYTE      CMPCR1
      000000B8H   SFRSYM    DATA     BYTE      IP
      0000008FH   SFRSYM    DATA     BYTE      INTCLKO
      000000EEH   SFRSYM    DATA     BYTE      IP3H
      000000B6H   SFRSYM    DATA     BYTE      IP2H
      000000A8H   SFRSYM    DATA     BYTE      IE
      000000BBH   SFRSYM    DATA     BYTE      P_SW3
      000000BAH   SFRSYM    DATA     BYTE      P_SW2
      000000A2H   SFRSYM    DATA     BYTE      P_SW1
      000000CEH   SFRSYM    DATA     BYTE      SPCTL
      000000F8H   SFRSYM    DATA     BYTE      P7
      000000E8H   SFRSYM    DATA     BYTE      P6
      000000C8H   SFRSYM    DATA     BYTE      P5
      000000C0H   SFRSYM    DATA     BYTE      P4
      000000B0H   SFRSYM    DATA     BYTE      P3
      000000A0H   SFRSYM    DATA     BYTE      P2
      00000090H   SFRSYM    DATA     BYTE      P1
      00000080H   SFRSYM    DATA     BYTE      P0

      00FFA107H   BLOCK     CODE     ---       LVL=0
      00010F18H   SYMBOL    XDATA    INT       tim_n
      00FFA107H   LINE      CODE     ---       #39
      00FFA10DH   LINE      CODE     ---       #42
      00FFA127H   LINE      CODE     ---       #44
      00FFA127H   LINE      CODE     ---       #46
      00FFA12AH   LINE      CODE     ---       #47
      00FFA12DH   LINE      CODE     ---       #48
      00FFA130H   LINE      CODE     ---       #49
      00FFA133H   LINE      CODE     ---       #50
      00FFA135H   LINE      CODE     ---       #53
      00FFA135H   LINE      CODE     ---       #55
      00FFA138H   LINE      CODE     ---       #56
      00FFA13BH   LINE      CODE     ---       #57
      00FFA13EH   LINE      CODE     ---       #58
      00FFA141H   LINE      CODE     ---       #59
      00FFA143H   LINE      CODE     ---       #62
      00FFA143H   LINE      CODE     ---       #64
      00FFA146H   LINE      CODE     ---       #65
      00FFA149H   LINE      CODE     ---       #66
      00FFA14CH   LINE      CODE     ---       #67
      00FFA14EH   LINE      CODE     ---       #70
      00FFA14EH   LINE      CODE     ---       #72
      00FFA151H   LINE      CODE     ---       #73
      00FFA154H   LINE      CODE     ---       #74
      00FFA157H   LINE      CODE     ---       #75
      00FFA159H   LINE      CODE     ---       #78
      00FFA159H   LINE      CODE     ---       #80
      00FFA15CH   LINE      CODE     ---       #81
      00FFA15FH   LINE      CODE     ---       #82
      00FFA162H   LINE      CODE     ---       #83
      00FFA162H   LINE      CODE     ---       #86
      00FFA162H   LINE      CODE     ---       #87
      ---         BLOCKEND  ---      ---       LVL=0

      00FF932CH   BLOCK     CODE     ---       LVL=0
      00010EC8H   SYMBOL    XDATA    INT       tim_n
      00FF9332H   BLOCK     CODE     NEAR LAB  LVL=1
      00010ECAH   SYMBOL    XDATA    WORD      dat
L251 LINKER/LOCATER V4.66.93.0                                                        06/19/2025  15:56:37  PAGE 54


      ---         BLOCKEND  ---      ---       LVL=1
      00FF932CH   LINE      CODE     ---       #95
      00FF9332H   LINE      CODE     ---       #96
      00FF9332H   LINE      CODE     ---       #97
      00FF933AH   LINE      CODE     ---       #99
      00FF935AH   LINE      CODE     ---       #101
      00FF935AH   LINE      CODE     ---       #103
      00FF9368H   LINE      CODE     ---       #104
      00FF937AH   LINE      CODE     ---       #105
      00FF937DH   LINE      CODE     ---       #107
      00FF937DH   LINE      CODE     ---       #109
      00FF938BH   LINE      CODE     ---       #110
      00FF939DH   LINE      CODE     ---       #111
      00FF939FH   LINE      CODE     ---       #113
      00FF939FH   LINE      CODE     ---       #115
      00FF93ADH   LINE      CODE     ---       #116
      00FF93BFH   LINE      CODE     ---       #117
      00FF93C1H   LINE      CODE     ---       #119
      00FF93C1H   LINE      CODE     ---       #121
      00FF93CFH   LINE      CODE     ---       #122
      00FF93E1H   LINE      CODE     ---       #123
      00FF93E3H   LINE      CODE     ---       #125
      00FF93E3H   LINE      CODE     ---       #127
      00FF93F1H   LINE      CODE     ---       #128
      00FF9403H   LINE      CODE     ---       #129
      00FF9403H   LINE      CODE     ---       #132
      00FF9403H   LINE      CODE     ---       #133
      00FF9409H   LINE      CODE     ---       #134
      ---         BLOCKEND  ---      ---       LVL=0

      00FF9EBDH   BLOCK     CODE     ---       LVL=0
      00010F1AH   SYMBOL    XDATA    INT       tim_n
      00FF9EBDH   LINE      CODE     ---       #143
      00FF9EC3H   LINE      CODE     ---       #145
      00FF9EDDH   LINE      CODE     ---       #147
      00FF9EDDH   LINE      CODE     ---       #149
      00FF9EE0H   LINE      CODE     ---       #150
      00FF9EE3H   LINE      CODE     ---       #151
      00FF9EE6H   LINE      CODE     ---       #152
      00FF9EE9H   LINE      CODE     ---       #153
      00FF9EEBH   LINE      CODE     ---       #155
      00FF9EEBH   LINE      CODE     ---       #157
      00FF9EEEH   LINE      CODE     ---       #158
      00FF9EF1H   LINE      CODE     ---       #159
      00FF9EF4H   LINE      CODE     ---       #160
      00FF9EF7H   LINE      CODE     ---       #161
      00FF9EF9H   LINE      CODE     ---       #163
      00FF9EF9H   LINE      CODE     ---       #165
      00FF9EFCH   LINE      CODE     ---       #166
      00FF9EFFH   LINE      CODE     ---       #167
      00FF9F02H   LINE      CODE     ---       #168
      00FF9F05H   LINE      CODE     ---       #169
      00FF9F07H   LINE      CODE     ---       #171
      00FF9F07H   LINE      CODE     ---       #173
      00FF9F0AH   LINE      CODE     ---       #174
      00FF9F0DH   LINE      CODE     ---       #175
      00FF9F10H   LINE      CODE     ---       #176
      00FF9F13H   LINE      CODE     ---       #177
      00FF9F15H   LINE      CODE     ---       #179
      00FF9F15H   LINE      CODE     ---       #181
      00FF9F18H   LINE      CODE     ---       #182
      00FF9F1BH   LINE      CODE     ---       #183
      00FF9F1EH   LINE      CODE     ---       #184
      00FF9F21H   LINE      CODE     ---       #185
      00FF9F21H   LINE      CODE     ---       #187
L251 LINKER/LOCATER V4.66.93.0                                                        06/19/2025  15:56:37  PAGE 55


      00FF9F21H   LINE      CODE     ---       #188
      ---         BLOCKEND  ---      ---       LVL=0

      00FF8F57H   BLOCK     CODE     ---       LVL=0
      00010DDBH   SYMBOL    XDATA    INT       tim_n
      00010DDDH   SYMBOL    XDATA    WORD      time_ms
      00FF8F63H   BLOCK     CODE     NEAR LAB  LVL=1
      00010DDFH   SYMBOL    XDATA    WORD      temp
      ---         BLOCKEND  ---      ---       LVL=1
      00FF8F57H   LINE      CODE     ---       #198
      00FF8F63H   LINE      CODE     ---       #199
      00FF8F63H   LINE      CODE     ---       #201
      00FF8F90H   LINE      CODE     ---       #203
      00FF8F9CH   LINE      CODE     ---       #205
      00FF8FA0H   LINE      CODE     ---       #206
      00FF8FA8H   LINE      CODE     ---       #207
      00FF8FB4H   LINE      CODE     ---       #208
      00FF8FB7H   LINE      CODE     ---       #209
      00FF8FBAH   LINE      CODE     ---       #210
      00FF8FBDH   LINE      CODE     ---       #211
      00FF8FCBH   LINE      CODE     ---       #213
      00FF8FCFH   LINE      CODE     ---       #214
      00FF8FD7H   LINE      CODE     ---       #215
      00FF8FE3H   LINE      CODE     ---       #216
      00FF8FE6H   LINE      CODE     ---       #217
      00FF8FE9H   LINE      CODE     ---       #218
      00FF8FEBH   LINE      CODE     ---       #219
      00FF8FF9H   LINE      CODE     ---       #221
      00FF9001H   LINE      CODE     ---       #222
      00FF900DH   LINE      CODE     ---       #223
      00FF9010H   LINE      CODE     ---       #224
      00FF9013H   LINE      CODE     ---       #225
      00FF9015H   LINE      CODE     ---       #226
      00FF9023H   LINE      CODE     ---       #228
      00FF902BH   LINE      CODE     ---       #229
      00FF9037H   LINE      CODE     ---       #230
      00FF903AH   LINE      CODE     ---       #231
      00FF903DH   LINE      CODE     ---       #232
      00FF903FH   LINE      CODE     ---       #233
      00FF904DH   LINE      CODE     ---       #235
      00FF9055H   LINE      CODE     ---       #236
      00FF9061H   LINE      CODE     ---       #237
      00FF9064H   LINE      CODE     ---       #238
      00FF9067H   LINE      CODE     ---       #239
      ---         BLOCKEND  ---      ---       LVL=0

      00FF97D7H   BLOCK     CODE     ---       LVL=0
      00010E77H   SYMBOL    XDATA    BYTE      encoder
      00FF97DBH   BLOCK     CODE     NEAR LAB  LVL=1
      00010E78H   SYMBOL    XDATA    LONG      tm
      ---         BLOCKEND  ---      ---       LVL=1
      00FF97D7H   LINE      CODE     ---       #248
      00FF97DBH   LINE      CODE     ---       #249
      00FF97DBH   LINE      CODE     ---       #250
      00FF97E7H   LINE      CODE     ---       #251
      00FF97F0H   LINE      CODE     ---       #254
      00FF9803H   LINE      CODE     ---       #256
      00FF9806H   LINE      CODE     ---       #258
      00FF9824H   LINE      CODE     ---       #259
      00FF9824H   LINE      CODE     ---       #261
      00FF9824H   LINE      CODE     ---       #262
      00FF9824H   LINE      CODE     ---       #264
      00FF982BH   LINE      CODE     ---       #265
      00FF982DH   LINE      CODE     ---       #266
      00FF9836H   LINE      CODE     ---       #268
L251 LINKER/LOCATER V4.66.93.0                                                        06/19/2025  15:56:37  PAGE 56


      00FF9849H   LINE      CODE     ---       #269
      00FF984CH   LINE      CODE     ---       #271
      00FF984CH   LINE      CODE     ---       #272
      00FF984EH   LINE      CODE     ---       #275
      00FF986CH   LINE      CODE     ---       #276
      00FF986CH   LINE      CODE     ---       #277
      00FF9873H   LINE      CODE     ---       #278
      00FF9873H   LINE      CODE     ---       #279
      00FF987DH   LINE      CODE     ---       #280
      ---         BLOCKEND  ---      ---       LVL=0

      ---         MODULE    ---      ---       zf_uart
      00FF9E40H   PUBLIC    CODE     ---       uart_putchar
      00FFA3C5H   PUBLIC    CODE     ---       uart_putbuff
      00FF74E2H   PUBLIC    CODE     ---       uart_init
      00010E7CH   PUBLIC    XDATA    ---       busy
      00010B63H   PUBLIC    XDATA    BYTE      ?uart_init?BYTE
      00010C7CH   PUBLIC    XDATA    BYTE      ?uart_putbuff?BYTE
      000000D0H   SFRSYM    DATA     BYTE      PSW
      0000009DH   SFRSYM    DATA     BYTE      IRCBAND
      00000097H   SFRSYM    DATA     BYTE      AUXR2
      000000EFH   SFRSYM    DATA     BYTE      AUXINTIF
      000000FDH   SFRSYM    DATA     BYTE      S4CON
      000000ACH   SFRSYM    DATA     BYTE      S3CON
      0000009AH   SFRSYM    DATA     BYTE      S2CON
      000000FEH   SFRSYM    DATA     BYTE      S4BUF
      000000ADH   SFRSYM    DATA     BYTE      S3BUF
      0000009BH   SFRSYM    DATA     BYTE      S2BUF
      000000B7H   SFRSYM    DATA     BYTE      IPH
      000000CDH   SFRSYM    DATA     BYTE      SPSTAT
      000000DDH   SFRSYM    DATA     BYTE      T4T3M
      000000C1H   SFRSYM    DATA     BYTE      WDT_CONTR
      00000088H.6 SFRSYM    DATA     BIT       TR1
      000000D3H   SFRSYM    DATA     BYTE      T4L
      000000D5H   SFRSYM    DATA     BYTE      T3L
      000000D7H   SFRSYM    DATA     BYTE      T2L
      0000008BH   SFRSYM    DATA     BYTE      TL1
      000000D2H   SFRSYM    DATA     BYTE      T4H
      000000D4H   SFRSYM    DATA     BYTE      T3H
      000000D6H   SFRSYM    DATA     BYTE      T2H
      0000008DH   SFRSYM    DATA     BYTE      TH1
      000000DFH   SFRSYM    DATA     BYTE      IP3
      000000F4H   SFRSYM    DATA     BYTE      USBCON
      000000B5H   SFRSYM    DATA     BYTE      IP2
      000000FFH   SFRSYM    DATA     BYTE      RSTCFG
      000000F9H   SFRSYM    DATA     BYTE      LINICR
      0000008EH   SFRSYM    DATA     BYTE      AUXR
      000000AFH   SFRSYM    DATA     BYTE      IE2
      00000088H   SFRSYM    DATA     BYTE      TCON
      00000089H   SFRSYM    DATA     BYTE      TMOD
      00000098H   SFRSYM    DATA     BYTE      SCON
      000000F1H   SFRSYM    DATA     BYTE      CANICR
      00000087H   SFRSYM    DATA     BYTE      PCON
      00000099H   SFRSYM    DATA     BYTE      SBUF
      000000BCH   SFRSYM    DATA     BYTE      ADC_CONTR
      000000E7H   SFRSYM    DATA     BYTE      CMPCR2
      000000E6H   SFRSYM    DATA     BYTE      CMPCR1
      000000B8H   SFRSYM    DATA     BYTE      IP
      000000A8H.4 SFRSYM    DATA     BIT       ES
      0000008FH   SFRSYM    DATA     BYTE      INTCLKO
      000000EEH   SFRSYM    DATA     BYTE      IP3H
      000000B6H   SFRSYM    DATA     BYTE      IP2H
      000000A8H   SFRSYM    DATA     BYTE      IE
      000000BBH   SFRSYM    DATA     BYTE      P_SW3
      000000BAH   SFRSYM    DATA     BYTE      P_SW2
L251 LINKER/LOCATER V4.66.93.0                                                        06/19/2025  15:56:37  PAGE 57


      000000A2H   SFRSYM    DATA     BYTE      P_SW1
      000000CEH   SFRSYM    DATA     BYTE      SPCTL
      000000F8H   SFRSYM    DATA     BYTE      P7
      000000E8H   SFRSYM    DATA     BYTE      P6
      000000C8H   SFRSYM    DATA     BYTE      P5
      000000C0H   SFRSYM    DATA     BYTE      P4
      000000C9H   SFRSYM    DATA     BYTE      P5M1
      000000B0H   SFRSYM    DATA     BYTE      P3
      000000CAH   SFRSYM    DATA     BYTE      P5M0
      000000A0H   SFRSYM    DATA     BYTE      P2
      00000090H   SFRSYM    DATA     BYTE      P1
      00000080H   SFRSYM    DATA     BYTE      P0

      00FF74E2H   BLOCK     CODE     ---       LVL=0
      00010B63H   SYMBOL    XDATA    INT       uart_n
      00010B65H   SYMBOL    XDATA    INT       uart_rx_pin
      00010B67H   SYMBOL    XDATA    INT       uart_tx_pin
      00010B69H   SYMBOL    XDATA    DWORD     baud
      00010B6DH   SYMBOL    XDATA    INT       tim_n
      00FF74FAH   BLOCK     CODE     NEAR LAB  LVL=1
      00010B6FH   SYMBOL    XDATA    WORD      brt
      ---         BLOCKEND  ---      ---       LVL=1
      00FF74E2H   LINE      CODE     ---       #42
      00FF74FAH   LINE      CODE     ---       #43
      00FF74FAH   LINE      CODE     ---       #46
      00FF752FH   LINE      CODE     ---       #49
      00FF7553H   LINE      CODE     ---       #51
      00FF7553H   LINE      CODE     ---       #53
      00FF7561H   LINE      CODE     ---       #55
      00FF7564H   LINE      CODE     ---       #56
      00FF7568H   LINE      CODE     ---       #57
      00FF7570H   LINE      CODE     ---       #58
      00FF757CH   LINE      CODE     ---       #59
      00FF757FH   LINE      CODE     ---       #60
      00FF7582H   LINE      CODE     ---       #61
      00FF7587H   LINE      CODE     ---       #62
      00FF7589H   LINE      CODE     ---       #63
      00FF7597H   LINE      CODE     ---       #65
      00FF759AH   LINE      CODE     ---       #66
      00FF75A2H   LINE      CODE     ---       #67
      00FF75AEH   LINE      CODE     ---       #68
      00FF75B1H   LINE      CODE     ---       #69
      00FF75B1H   LINE      CODE     ---       #70
      00FF75B4H   LINE      CODE     ---       #71
      00FF75CEH   LINE      CODE     ---       #73
      00FF75D2H   LINE      CODE     ---       #74
      00FF75D4H   LINE      CODE     ---       #75
      00FF75F0H   LINE      CODE     ---       #77
      00FF75F3H   LINE      CODE     ---       #78
      00FF75F5H   LINE      CODE     ---       #79
      00FF7611H   LINE      CODE     ---       #81
      00FF7614H   LINE      CODE     ---       #82
      00FF7616H   LINE      CODE     ---       #83
      00FF7632H   LINE      CODE     ---       #85
      00FF7635H   LINE      CODE     ---       #86
      00FF7635H   LINE      CODE     ---       #87
      00FF763AH   LINE      CODE     ---       #88
      00FF763DH   LINE      CODE     ---       #89
      00FF7640H   LINE      CODE     ---       #92
      00FF7640H   LINE      CODE     ---       #94
      00FF764EH   LINE      CODE     ---       #96
      00FF7651H   LINE      CODE     ---       #97
      00FF7659H   LINE      CODE     ---       #98
      00FF7665H   LINE      CODE     ---       #99
      00FF7668H   LINE      CODE     ---       #100
L251 LINKER/LOCATER V4.66.93.0                                                        06/19/2025  15:56:37  PAGE 58


      00FF7668H   LINE      CODE     ---       #102
      00FF766BH   LINE      CODE     ---       #103
      00FF7687H   LINE      CODE     ---       #105
      00FF768BH   LINE      CODE     ---       #106
      00FF768DH   LINE      CODE     ---       #107
      00FF76A9H   LINE      CODE     ---       #109
      00FF76ACH   LINE      CODE     ---       #110
      00FF76ACH   LINE      CODE     ---       #112
      00FF76AFH   LINE      CODE     ---       #113
      00FF76B4H   LINE      CODE     ---       #114
      00FF76B7H   LINE      CODE     ---       #117
      00FF76B7H   LINE      CODE     ---       #119
      00FF76C5H   LINE      CODE     ---       #121
      00FF76C8H   LINE      CODE     ---       #122
      00FF76D0H   LINE      CODE     ---       #123
      00FF76DCH   LINE      CODE     ---       #124
      00FF76DFH   LINE      CODE     ---       #125
      00FF76E1H   LINE      CODE     ---       #126
      00FF76EFH   LINE      CODE     ---       #128
      00FF76F2H   LINE      CODE     ---       #129
      00FF76FAH   LINE      CODE     ---       #130
      00FF7706H   LINE      CODE     ---       #131
      00FF7709H   LINE      CODE     ---       #132
      00FF7709H   LINE      CODE     ---       #134
      00FF770CH   LINE      CODE     ---       #135
      00FF7728H   LINE      CODE     ---       #137
      00FF772CH   LINE      CODE     ---       #138
      00FF772EH   LINE      CODE     ---       #139
      00FF774AH   LINE      CODE     ---       #141
      00FF774DH   LINE      CODE     ---       #142
      00FF774DH   LINE      CODE     ---       #144
      00FF7750H   LINE      CODE     ---       #145
      00FF7755H   LINE      CODE     ---       #146
      00FF7758H   LINE      CODE     ---       #149
      00FF7758H   LINE      CODE     ---       #151
      00FF7766H   LINE      CODE     ---       #153
      00FF7769H   LINE      CODE     ---       #154
      00FF7771H   LINE      CODE     ---       #155
      00FF777DH   LINE      CODE     ---       #156
      00FF7780H   LINE      CODE     ---       #157
      00FF7782H   LINE      CODE     ---       #158
      00FF7790H   LINE      CODE     ---       #160
      00FF7793H   LINE      CODE     ---       #161
      00FF779BH   LINE      CODE     ---       #162
      00FF77A7H   LINE      CODE     ---       #163
      00FF77AAH   LINE      CODE     ---       #164
      00FF77AAH   LINE      CODE     ---       #166
      00FF77ADH   LINE      CODE     ---       #167
      00FF77C9H   LINE      CODE     ---       #169
      00FF77CDH   LINE      CODE     ---       #170
      00FF77CFH   LINE      CODE     ---       #171
      00FF77EBH   LINE      CODE     ---       #173
      00FF77EEH   LINE      CODE     ---       #174
      00FF77F2H   LINE      CODE     ---       #175
      00FF77F5H   LINE      CODE     ---       #176
      00FF77F5H   LINE      CODE     ---       #177
      00FF77F8H   LINE      CODE     ---       #178
      00FF77FDH   LINE      CODE     ---       #179
      00FF77FDH   LINE      CODE     ---       #182
      00FF77FDH   LINE      CODE     ---       #184
      ---         BLOCKEND  ---      ---       LVL=0

      00FF9E40H   BLOCK     CODE     ---       LVL=0
      00010EEFH   SYMBOL    XDATA    INT       uart_n
      00010EF1H   SYMBOL    XDATA    BYTE      dat
L251 LINKER/LOCATER V4.66.93.0                                                        06/19/2025  15:56:37  PAGE 59


      00FF9E40H   LINE      CODE     ---       #193
      00FF9E4AH   LINE      CODE     ---       #195
      00FF9E62H   LINE      CODE     ---       #197
      00FF9E62H   LINE      CODE     ---       #198
      00FF9E6BH   LINE      CODE     ---       #199
      00FF9E71H   LINE      CODE     ---       #200
      00FF9E77H   LINE      CODE     ---       #201
      00FF9E79H   LINE      CODE     ---       #202
      00FF9E79H   LINE      CODE     ---       #203
      00FF9E82H   LINE      CODE     ---       #204
      00FF9E88H   LINE      CODE     ---       #205
      00FF9E8EH   LINE      CODE     ---       #206
      00FF9E90H   LINE      CODE     ---       #207
      00FF9E90H   LINE      CODE     ---       #208
      00FF9E99H   LINE      CODE     ---       #209
      00FF9E9FH   LINE      CODE     ---       #210
      00FF9EA5H   LINE      CODE     ---       #211
      00FF9EA7H   LINE      CODE     ---       #212
      00FF9EA7H   LINE      CODE     ---       #213
      00FF9EB0H   LINE      CODE     ---       #214
      00FF9EB6H   LINE      CODE     ---       #215
      00FF9EBCH   LINE      CODE     ---       #216
      00FF9EBCH   LINE      CODE     ---       #217
      00FF9EBCH   LINE      CODE     ---       #218
      ---         BLOCKEND  ---      ---       LVL=0

      00FFA3C5H   BLOCK     CODE     ---       LVL=0
      00010C7CH   SYMBOL    XDATA    INT       uart_n
      00010C7EH   SYMBOL    XDATA    ---       p
      00010C82H   SYMBOL    XDATA    DWORD     len
      00FFA3C5H   LINE      CODE     ---       #229
      00FFA3D5H   LINE      CODE     ---       #231
      00FFA413H   LINE      CODE     ---       #233
      ---         BLOCKEND  ---      ---       LVL=0
      00010DE1H   SYMBOL    XDATA    INT       uart_n
      00010DE3H   SYMBOL    XDATA    ---       str

      ---         MODULE    ---      ---       zf_fifo
      00FF5EF8H   PUBLIC    CODE     ---       fifo_read_buffer
      00FF8E12H   PUBLIC    CODE     ---       fifo_clear
      00FF5976H   PUBLIC    CODE     ---       fifo_write_buffer
      00FFA620H   PUBLIC    CODE     ---       fifo_used
      00FF940AH   PUBLIC    CODE     ---       fifo_init
      00010A90H   PUBLIC    XDATA    BYTE      ?fifo_write_buffer?BYTE
      00010BDEH   PUBLIC    XDATA    BYTE      ?fifo_read_element?BYTE
      000109C6H   PUBLIC    XDATA    BYTE      ?fifo_read_buffer?BYTE
      000109DEH   PUBLIC    XDATA    BYTE      ?fifo_read_tail_buffer?BYTE
      00010AE6H   PUBLIC    XDATA    BYTE      ?fifo_init?BYTE
      000000D0H   SFRSYM    DATA     BYTE      PSW
      0000009DH   SFRSYM    DATA     BYTE      IRCBAND
      00000097H   SFRSYM    DATA     BYTE      AUXR2
      000000EFH   SFRSYM    DATA     BYTE      AUXINTIF
      000000FDH   SFRSYM    DATA     BYTE      S4CON
      000000ACH   SFRSYM    DATA     BYTE      S3CON
      0000009AH   SFRSYM    DATA     BYTE      S2CON
      000000B7H   SFRSYM    DATA     BYTE      IPH
      000000CDH   SFRSYM    DATA     BYTE      SPSTAT
      000000DDH   SFRSYM    DATA     BYTE      T4T3M
      000000C1H   SFRSYM    DATA     BYTE      WDT_CONTR
      000000DFH   SFRSYM    DATA     BYTE      IP3
      000000F4H   SFRSYM    DATA     BYTE      USBCON
      000000B5H   SFRSYM    DATA     BYTE      IP2
      000000FFH   SFRSYM    DATA     BYTE      RSTCFG
      000000F9H   SFRSYM    DATA     BYTE      LINICR
      0000008EH   SFRSYM    DATA     BYTE      AUXR
L251 LINKER/LOCATER V4.66.93.0                                                        06/19/2025  15:56:37  PAGE 60


      000000AFH   SFRSYM    DATA     BYTE      IE2
      00000088H   SFRSYM    DATA     BYTE      TCON
      00000098H   SFRSYM    DATA     BYTE      SCON
      000000F1H   SFRSYM    DATA     BYTE      CANICR
      00000087H   SFRSYM    DATA     BYTE      PCON
      000000BCH   SFRSYM    DATA     BYTE      ADC_CONTR
      000000E7H   SFRSYM    DATA     BYTE      CMPCR2
      000000E6H   SFRSYM    DATA     BYTE      CMPCR1
      000000B8H   SFRSYM    DATA     BYTE      IP
      0000008FH   SFRSYM    DATA     BYTE      INTCLKO
      000000EEH   SFRSYM    DATA     BYTE      IP3H
      000000B6H   SFRSYM    DATA     BYTE      IP2H
      000000A8H   SFRSYM    DATA     BYTE      IE
      000000BBH   SFRSYM    DATA     BYTE      P_SW3
      000000BAH   SFRSYM    DATA     BYTE      P_SW2
      000000A2H   SFRSYM    DATA     BYTE      P_SW1
      000000CEH   SFRSYM    DATA     BYTE      SPCTL
      000000F8H   SFRSYM    DATA     BYTE      P7
      000000E8H   SFRSYM    DATA     BYTE      P6
      000000C8H   SFRSYM    DATA     BYTE      P5
      000000C0H   SFRSYM    DATA     BYTE      P4
      000000B0H   SFRSYM    DATA     BYTE      P3
      000000A0H   SFRSYM    DATA     BYTE      P2
      00000090H   SFRSYM    DATA     BYTE      P1
      00000080H   SFRSYM    DATA     BYTE      P0
      00FF9921H   SYMBOL    CODE     ---       fifo_head_offset
      00FF99C1H   SYMBOL    CODE     ---       fifo_end_offset

      00FF9921H   BLOCK     CODE     ---       LVL=0
      00010D2AH   SYMBOL    XDATA    ---       fifo
      00010D2EH   SYMBOL    XDATA    DWORD     offset
      00FF9921H   LINE      CODE     ---       #42
      00FF9935H   LINE      CODE     ---       #44
      00FF995DH   LINE      CODE     ---       #46
      00FF995FH   LINE      CODE     ---       #48
      00FF9992H   LINE      CODE     ---       #49
      00FF99C0H   LINE      CODE     ---       #50
      ---         BLOCKEND  ---      ---       LVL=0

      00FF99C1H   BLOCK     CODE     ---       LVL=0
      00010D32H   SYMBOL    XDATA    ---       fifo
      00010D36H   SYMBOL    XDATA    DWORD     offset
      00FF99C1H   LINE      CODE     ---       #60
      00FF99D5H   LINE      CODE     ---       #62
      00FF99FDH   LINE      CODE     ---       #64
      00FF99FFH   LINE      CODE     ---       #66
      00FF9A32H   LINE      CODE     ---       #67
      00FF9A60H   LINE      CODE     ---       #68
      ---         BLOCKEND  ---      ---       LVL=0

      00FF8E12H   BLOCK     CODE     ---       LVL=0
      00010DE7H   SYMBOL    XDATA    ---       fifo
      00FF8E1CH   BLOCK     CODE     NEAR LAB  LVL=1
      00010DEBH   SYMBOL    XDATA    INT       return_state
      ---         BLOCKEND  ---      ---       LVL=1
      00FF8E12H   LINE      CODE     ---       #77
      00FF8E1CH   LINE      CODE     ---       #78
      00FF8E1CH   LINE      CODE     ---       #80
      00FF8E24H   LINE      CODE     ---       #81
      00FF8E24H   LINE      CODE     ---       #88
      00FF8E38H   LINE      CODE     ---       #89
      00FF8E4FH   LINE      CODE     ---       #90
      00FF8E66H   LINE      CODE     ---       #91
      00FF8E90H   LINE      CODE     ---       #92
      00FF8EAEH   LINE      CODE     ---       #94
L251 LINKER/LOCATER V4.66.93.0                                                        06/19/2025  15:56:37  PAGE 61


      00FF8EDEH   LINE      CODE     ---       #95
      00FF8F10H   LINE      CODE     ---       #96
      00FF8F42H   LINE      CODE     ---       #97
      00FF8F42H   LINE      CODE     ---       #98
      00FF8F50H   LINE      CODE     ---       #99
      00FF8F50H   LINE      CODE     ---       #100
      00FF8F56H   LINE      CODE     ---       #101
      ---         BLOCKEND  ---      ---       LVL=0

      00FFA620H   BLOCK     CODE     ---       LVL=0
      00010ECCH   SYMBOL    XDATA    ---       fifo
      00FFA620H   LINE      CODE     ---       #110
      00FFA62AH   LINE      CODE     ---       #113
      00FFA656H   LINE      CODE     ---       #114
      ---         BLOCKEND  ---      ---       LVL=0
      00010C86H   SYMBOL    XDATA    ---       fifo
      00010C8AH   SYMBOL    XDATA    DWORD     dat
      00010C8EH   SYMBOL    XDATA    INT       return_state

      00FF5976H   BLOCK     CODE     ---       LVL=0
      00010A90H   SYMBOL    XDATA    ---       fifo
      00010A94H   SYMBOL    XDATA    ---       dat
      00010A98H   SYMBOL    XDATA    DWORD     length
      00FF598AH   BLOCK     CODE     NEAR LAB  LVL=1
      00010A9CH   SYMBOL    XDATA    INT       return_state
      00010A9EH   SYMBOL    XDATA    DWORD     temp_length
      ---         BLOCKEND  ---      ---       LVL=1
      00FF5976H   LINE      CODE     ---       #168
      00FF598AH   LINE      CODE     ---       #169
      00FF598AH   LINE      CODE     ---       #171
      00FF5992H   LINE      CODE     ---       #172
      00FF599EH   LINE      CODE     ---       #174
      00FF599EH   LINE      CODE     ---       #176
      00FF59ACH   LINE      CODE     ---       #178
      00FF59B6H   LINE      CODE     ---       #179
      00FF59B9H   LINE      CODE     ---       #180
      00FF59B9H   LINE      CODE     ---       #181
      00FF59D4H   LINE      CODE     ---       #183
      00FF59DEH   LINE      CODE     ---       #184
      00FF59E1H   LINE      CODE     ---       #185
      00FF59E1H   LINE      CODE     ---       #186
      00FF59F5H   LINE      CODE     ---       #188
      00FF5A1BH   LINE      CODE     ---       #190
      00FF5A51H   LINE      CODE     ---       #192
      00FF5A6CH   LINE      CODE     ---       #194
      00FF5A90H   LINE      CODE     ---       #196
      00FF5A90H   LINE      CODE     ---       #198
      00FF5AD7H   LINE      CODE     ---       #201
      00FF5AEEH   LINE      CODE     ---       #202
      00FF5B4FH   LINE      CODE     ---       #206
      00FF5B72H   LINE      CODE     ---       #207
      00FF5B75H   LINE      CODE     ---       #208
      00FF5B75H   LINE      CODE     ---       #210
      00FF5BC0H   LINE      CODE     ---       #213
      00FF5BD7H   LINE      CODE     ---       #214
      00FF5C3EH   LINE      CODE     ---       #218
      00FF5C61H   LINE      CODE     ---       #219
      00FF5C64H   LINE      CODE     ---       #220
      00FF5C64H   LINE      CODE     ---       #222
      00FF5CB3H   LINE      CODE     ---       #225
      00FF5CCAH   LINE      CODE     ---       #226
      00FF5D37H   LINE      CODE     ---       #230
      00FF5D5AH   LINE      CODE     ---       #231
      00FF5D5AH   LINE      CODE     ---       #232
      00FF5D5AH   LINE      CODE     ---       #233
L251 LINKER/LOCATER V4.66.93.0                                                        06/19/2025  15:56:37  PAGE 62


      00FF5D5DH   LINE      CODE     ---       #236
      00FF5D7EH   LINE      CODE     ---       #238
      00FF5D7EH   LINE      CODE     ---       #240
      00FF5DC5H   LINE      CODE     ---       #243
      00FF5DDCH   LINE      CODE     ---       #244
      00FF5DDFH   LINE      CODE     ---       #245
      00FF5DDFH   LINE      CODE     ---       #247
      00FF5E2AH   LINE      CODE     ---       #250
      00FF5E41H   LINE      CODE     ---       #251
      00FF5E43H   LINE      CODE     ---       #252
      00FF5E43H   LINE      CODE     ---       #254
      00FF5E92H   LINE      CODE     ---       #257
      00FF5EA9H   LINE      CODE     ---       #258
      00FF5EA9H   LINE      CODE     ---       #259
      00FF5EA9H   LINE      CODE     ---       #260
      00FF5EA9H   LINE      CODE     ---       #262
      00FF5ED1H   LINE      CODE     ---       #263
      00FF5ED3H   LINE      CODE     ---       #266
      00FF5EDDH   LINE      CODE     ---       #267
      00FF5EDDH   LINE      CODE     ---       #268
      00FF5EF1H   LINE      CODE     ---       #269
      00FF5EF1H   LINE      CODE     ---       #271
      00FF5EF7H   LINE      CODE     ---       #272
      ---         BLOCKEND  ---      ---       LVL=0
      00010BDEH   SYMBOL    XDATA    ---       fifo
      00010BE2H   SYMBOL    XDATA    ---       dat
      00010BE6H   SYMBOL    XDATA    INT       flag
      00010BE8H   SYMBOL    XDATA    INT       return_state

      00FF5EF8H   BLOCK     CODE     ---       LVL=0
      000109C6H   SYMBOL    XDATA    ---       fifo
      000109CAH   SYMBOL    XDATA    ---       dat
      000109CEH   SYMBOL    XDATA    ---       length
      000109D2H   SYMBOL    XDATA    INT       flag
      00FF5F0CH   BLOCK     CODE     NEAR LAB  LVL=1
      000109D4H   SYMBOL    XDATA    INT       return_state
      000109D6H   SYMBOL    XDATA    DWORD     temp_length
      000109DAH   SYMBOL    XDATA    DWORD     fifo_data_length
      ---         BLOCKEND  ---      ---       LVL=1
      00FF5EF8H   LINE      CODE     ---       #345
      00FF5F0CH   LINE      CODE     ---       #346
      00FF5F0CH   LINE      CODE     ---       #349
      00FF5F14H   LINE      CODE     ---       #350
      00FF5F20H   LINE      CODE     ---       #351
      00FF5F2CH   LINE      CODE     ---       #353
      00FF5F2CH   LINE      CODE     ---       #355
      00FF5F3AH   LINE      CODE     ---       #357
      00FF5F44H   LINE      CODE     ---       #358
      00FF5F47H   LINE      CODE     ---       #361
      00FF5F62H   LINE      CODE     ---       #363
      00FF5F7DH   LINE      CODE     ---       #364
      00FF5F87H   LINE      CODE     ---       #365
      00FF5F8AH   LINE      CODE     ---       #366
      00FF5F8AH   LINE      CODE     ---       #368
      00FF5FA1H   LINE      CODE     ---       #369
      00FF5FC0H   LINE      CODE     ---       #371
      00FF5FDBH   LINE      CODE     ---       #372
      00FF5FE5H   LINE      CODE     ---       #373
      00FF5FF3H   LINE      CODE     ---       #375
      00FF6007H   LINE      CODE     ---       #376
      00FF600AH   LINE      CODE     ---       #377
      00FF600AH   LINE      CODE     ---       #380
      00FF601EH   LINE      CODE     ---       #381
      00FF6054H   LINE      CODE     ---       #382
      00FF6076H   LINE      CODE     ---       #384
L251 LINKER/LOCATER V4.66.93.0                                                        06/19/2025  15:56:37  PAGE 63


      00FF6097H   LINE      CODE     ---       #386
      00FF60EAH   LINE      CODE     ---       #387
      00FF6141H   LINE      CODE     ---       #388
      00FF6199H   LINE      CODE     ---       #389
      00FF6199H   LINE      CODE     ---       #390
      00FF619CH   LINE      CODE     ---       #393
      00FF61C0H   LINE      CODE     ---       #395
      00FF61C0H   LINE      CODE     ---       #397
      00FF6209H   LINE      CODE     ---       #398
      00FF6258H   LINE      CODE     ---       #399
      00FF625BH   LINE      CODE     ---       #400
      00FF625BH   LINE      CODE     ---       #402
      00FF62A8H   LINE      CODE     ---       #403
      00FF62FBH   LINE      CODE     ---       #404
      00FF62FEH   LINE      CODE     ---       #405
      00FF62FEH   LINE      CODE     ---       #407
      00FF634FH   LINE      CODE     ---       #408
      00FF63A6H   LINE      CODE     ---       #409
      00FF63A6H   LINE      CODE     ---       #410
      00FF63A6H   LINE      CODE     ---       #411
      00FF63A6H   LINE      CODE     ---       #412
      00FF63BAH   LINE      CODE     ---       #413
      00FF63BAH   LINE      CODE     ---       #415
      00FF63C9H   LINE      CODE     ---       #417
      00FF63DBH   LINE      CODE     ---       #419
      00FF63E5H   LINE      CODE     ---       #420
      00FF63E7H   LINE      CODE     ---       #421
      00FF63E7H   LINE      CODE     ---       #422
      00FF63FBH   LINE      CODE     ---       #423
      00FF6419H   LINE      CODE     ---       #424
      00FF6448H   LINE      CODE     ---       #425
      00FF645CH   LINE      CODE     ---       #426
      00FF645CH   LINE      CODE     ---       #429
      00FF6462H   LINE      CODE     ---       #430
      ---         BLOCKEND  ---      ---       LVL=0
      000109DEH   SYMBOL    XDATA    ---       fifo
      000109E2H   SYMBOL    XDATA    ---       dat
      000109E6H   SYMBOL    XDATA    ---       length
      000109EAH   SYMBOL    XDATA    INT       flag
      000109ECH   SYMBOL    XDATA    INT       return_state
      000109EEH   SYMBOL    XDATA    DWORD     temp_length
      000109F2H   SYMBOL    XDATA    DWORD     fifo_data_length

      00FF940AH   BLOCK     CODE     ---       LVL=0
      00010AE6H   SYMBOL    XDATA    ---       fifo
      00010AEAH   SYMBOL    XDATA    INT       type
      00010AECH   SYMBOL    XDATA    ---       buffer_addr
      00010AF0H   SYMBOL    XDATA    DWORD     len
      00FF941AH   BLOCK     CODE     NEAR LAB  LVL=1
      00010AF4H   SYMBOL    XDATA    INT       return_state
      ---         BLOCKEND  ---      ---       LVL=1
      00FF940AH   LINE      CODE     ---       #538
      00FF941AH   LINE      CODE     ---       #539
      00FF941AH   LINE      CODE     ---       #541
      00FF9422H   LINE      CODE     ---       #542
      00FF9422H   LINE      CODE     ---       #544
      00FF9441H   LINE      CODE     ---       #545
      00FF944FH   LINE      CODE     ---       #546
      00FF9464H   LINE      CODE     ---       #547
      00FF947BH   LINE      CODE     ---       #548
      00FF9492H   LINE      CODE     ---       #549
      00FF94B1H   LINE      CODE     ---       #550
      00FF94D0H   LINE      CODE     ---       #551
      00FF94D0H   LINE      CODE     ---       #552
      00FF94D6H   LINE      CODE     ---       #553
L251 LINKER/LOCATER V4.66.93.0                                                        06/19/2025  15:56:37  PAGE 64


      ---         BLOCKEND  ---      ---       LVL=0

      ---         MODULE    ---      ---       zf_function
      000106A1H   PUBLIC    XDATA    BYTE      ?func_double_to_str?BYTE
      000000D0H   SFRSYM    DATA     BYTE      PSW
      0000009DH   SFRSYM    DATA     BYTE      IRCBAND
      00000097H   SFRSYM    DATA     BYTE      AUXR2
      000000EFH   SFRSYM    DATA     BYTE      AUXINTIF
      000000FDH   SFRSYM    DATA     BYTE      S4CON
      000000ACH   SFRSYM    DATA     BYTE      S3CON
      0000009AH   SFRSYM    DATA     BYTE      S2CON
      000000B7H   SFRSYM    DATA     BYTE      IPH
      000000CDH   SFRSYM    DATA     BYTE      SPSTAT
      000000DDH   SFRSYM    DATA     BYTE      T4T3M
      000000C1H   SFRSYM    DATA     BYTE      WDT_CONTR
      000000DFH   SFRSYM    DATA     BYTE      IP3
      000000F4H   SFRSYM    DATA     BYTE      USBCON
      000000B5H   SFRSYM    DATA     BYTE      IP2
      000000FFH   SFRSYM    DATA     BYTE      RSTCFG
      000000F9H   SFRSYM    DATA     BYTE      LINICR
      0000008EH   SFRSYM    DATA     BYTE      AUXR
      000000AFH   SFRSYM    DATA     BYTE      IE2
      00000088H   SFRSYM    DATA     BYTE      TCON
      00000098H   SFRSYM    DATA     BYTE      SCON
      000000F1H   SFRSYM    DATA     BYTE      CANICR
      00000087H   SFRSYM    DATA     BYTE      PCON
      000000BCH   SFRSYM    DATA     BYTE      ADC_CONTR
      000000E7H   SFRSYM    DATA     BYTE      CMPCR2
      000000E6H   SFRSYM    DATA     BYTE      CMPCR1
      000000B8H   SFRSYM    DATA     BYTE      IP
      0000008FH   SFRSYM    DATA     BYTE      INTCLKO
      000000EEH   SFRSYM    DATA     BYTE      IP3H
      000000B6H   SFRSYM    DATA     BYTE      IP2H
      000000A8H   SFRSYM    DATA     BYTE      IE
      000000BBH   SFRSYM    DATA     BYTE      P_SW3
      000000BAH   SFRSYM    DATA     BYTE      P_SW2
      000000A2H   SFRSYM    DATA     BYTE      P_SW1
      000000CEH   SFRSYM    DATA     BYTE      SPCTL
      000000F8H   SFRSYM    DATA     BYTE      P7
      000000E8H   SFRSYM    DATA     BYTE      P6
      000000C8H   SFRSYM    DATA     BYTE      P5
      000000C0H   SFRSYM    DATA     BYTE      P4
      000000B0H   SFRSYM    DATA     BYTE      P3
      000000A0H   SFRSYM    DATA     BYTE      P2
      00000090H   SFRSYM    DATA     BYTE      P1
      00000080H   SFRSYM    DATA     BYTE      P0
      00FFAECDH   SYMBOL    HCONST   ---       ?tpl?0001
      00010D3AH   SYMBOL    XDATA    DWORD     num1
      00010D3EH   SYMBOL    XDATA    DWORD     num2
      00010ED0H   SYMBOL    XDATA    LONG      t
      00010CADH   SYMBOL    XDATA    ---       str
      00010CB1H   SYMBOL    XDATA    BYTE      sign
      00010CB2H   SYMBOL    XDATA    LONG      temp
      00010904H   SYMBOL    XDATA    ---       str
      00010908H   SYMBOL    XDATA    LONG      number
      0001090CH   SYMBOL    XDATA    ---       data_temp
      0001091CH   SYMBOL    XDATA    BYTE      temp_bit
      0001091DH   SYMBOL    XDATA    LONG      number_temp
      00010D42H   SYMBOL    XDATA    ---       str
      00010D46H   SYMBOL    XDATA    DWORD     temp
      00010994H   SYMBOL    XDATA    ---       str
      00010998H   SYMBOL    XDATA    DWORD     number
      0001099CH   SYMBOL    XDATA    ---       data_temp
      000109ACH   SYMBOL    XDATA    BYTE      temp_bit
      00010AB4H   SYMBOL    XDATA    ---       str
L251 LINKER/LOCATER V4.66.93.0                                                        06/19/2025  15:56:37  PAGE 65


      00010AB8H   SYMBOL    XDATA    BYTE      sign
      00010AB9H   SYMBOL    XDATA    FLOAT     temp
      00010ABDH   SYMBOL    XDATA    FLOAT     temp_point
      00010AC1H   SYMBOL    XDATA    FLOAT     point_bit
      00010804H   SYMBOL    XDATA    ---       str
      00010808H   SYMBOL    XDATA    FLOAT     number
      0001080CH   SYMBOL    XDATA    BYTE      point_bit
      0001080DH   SYMBOL    XDATA    INT       data_int
      0001080FH   SYMBOL    XDATA    INT       data_float
      00010811H   SYMBOL    XDATA    ---       data_temp
      00010821H   SYMBOL    XDATA    ---       data_temp_point
      0001082DH   SYMBOL    XDATA    BYTE      temp_bit
      00010921H   SYMBOL    XDATA    ---       str
      00010925H   SYMBOL    XDATA    BYTE      sign
      00010926H   SYMBOL    XDATA    DOUBLE    temp
      0001092EH   SYMBOL    XDATA    DOUBLE    temp_point
      00010936H   SYMBOL    XDATA    DOUBLE    point_bit
      000106A1H   SYMBOL    XDATA    ---       str
      000106A5H   SYMBOL    XDATA    DOUBLE    number
      000106ADH   SYMBOL    XDATA    BYTE      point_bit
      000106AEH   SYMBOL    XDATA    INT       data_int
      000106B0H   SYMBOL    XDATA    INT       data_float
      000106B2H   SYMBOL    XDATA    ---       data_temp
      000106CAH   SYMBOL    XDATA    ---       data_temp_point
      000106DCH   SYMBOL    XDATA    BYTE      temp_bit
      00010B71H   SYMBOL    XDATA    ---       str
      00010B75H   SYMBOL    XDATA    DWORD     str_len
      00010B79H   SYMBOL    XDATA    DWORD     result_data
      00010B7DH   SYMBOL    XDATA    BYTE      temp
      00010B7EH   SYMBOL    XDATA    BYTE      flag
      00010880H   SYMBOL    XDATA    ---       str
      00010884H   SYMBOL    XDATA    DWORD     number
      00010888H   SYMBOL    XDATA    ---       hex_index
      00010898H   SYMBOL    XDATA    ---       data_temp
      000108A4H   SYMBOL    XDATA    BYTE      temp_bit

      ---         MODULE    ---      ---       zf_iic
      00010DE9H   PUBLIC    XDATA    BYTE      ?iic_init?BYTE
      000000D0H   SFRSYM    DATA     BYTE      PSW
      0000009DH   SFRSYM    DATA     BYTE      IRCBAND
      00000097H   SFRSYM    DATA     BYTE      AUXR2
      000000EFH   SFRSYM    DATA     BYTE      AUXINTIF
      000000FDH   SFRSYM    DATA     BYTE      S4CON
      000000ACH   SFRSYM    DATA     BYTE      S3CON
      0000009AH   SFRSYM    DATA     BYTE      S2CON
      000000B7H   SFRSYM    DATA     BYTE      IPH
      000000CDH   SFRSYM    DATA     BYTE      SPSTAT
      000000DDH   SFRSYM    DATA     BYTE      T4T3M
      000000C1H   SFRSYM    DATA     BYTE      WDT_CONTR
      000000DFH   SFRSYM    DATA     BYTE      IP3
      000000F4H   SFRSYM    DATA     BYTE      USBCON
      000000B5H   SFRSYM    DATA     BYTE      IP2
      000000FFH   SFRSYM    DATA     BYTE      RSTCFG
      000000F9H   SFRSYM    DATA     BYTE      LINICR
      0000008EH   SFRSYM    DATA     BYTE      AUXR
      000000AFH   SFRSYM    DATA     BYTE      IE2
      00000088H   SFRSYM    DATA     BYTE      TCON
      00000098H   SFRSYM    DATA     BYTE      SCON
      000000F1H   SFRSYM    DATA     BYTE      CANICR
      00000087H   SFRSYM    DATA     BYTE      PCON
      000000BCH   SFRSYM    DATA     BYTE      ADC_CONTR
      000000E7H   SFRSYM    DATA     BYTE      CMPCR2
      000000E6H   SFRSYM    DATA     BYTE      CMPCR1
      000000B8H   SFRSYM    DATA     BYTE      IP
      0000008FH   SFRSYM    DATA     BYTE      INTCLKO
L251 LINKER/LOCATER V4.66.93.0                                                        06/19/2025  15:56:37  PAGE 66


      000000EEH   SFRSYM    DATA     BYTE      IP3H
      000000B6H   SFRSYM    DATA     BYTE      IP2H
      000000A8H   SFRSYM    DATA     BYTE      IE
      000000BBH   SFRSYM    DATA     BYTE      P_SW3
      000000BAH   SFRSYM    DATA     BYTE      P_SW2
      000000A2H   SFRSYM    DATA     BYTE      P_SW1
      000000CEH   SFRSYM    DATA     BYTE      SPCTL
      000000F8H   SFRSYM    DATA     BYTE      P7
      000000E8H   SFRSYM    DATA     BYTE      P6
      000000C8H   SFRSYM    DATA     BYTE      P5
      000000C0H   SFRSYM    DATA     BYTE      P4
      000000B0H   SFRSYM    DATA     BYTE      P3
      000000A0H   SFRSYM    DATA     BYTE      P2
      00000090H   SFRSYM    DATA     BYTE      P1
      00000080H   SFRSYM    DATA     BYTE      P0
      00010EF2H   SYMBOL    XDATA    WORD      x
      00010EF4H   SYMBOL    XDATA    BYTE      i
      00010EF5H   SYMBOL    XDATA    WORD      count
      00010EF7H   SYMBOL    XDATA    BYTE      ret
      00010F52H   SYMBOL    XDATA    BYTE      ret
      00010F1CH   SYMBOL    XDATA    CHAR      dat
      00010F1DH   SYMBOL    XDATA    BYTE      ret
      00010F53H   SYMBOL    XDATA    BYTE      ret
      00010F54H   SYMBOL    XDATA    BYTE      ret
      00010F55H   SYMBOL    XDATA    BYTE      ret
      00010DEDH   SYMBOL    XDATA    INT       iic_n
      00010DEFH   SYMBOL    XDATA    DWORD     wait_time
      00010EF8H   SYMBOL    XDATA    BYTE      dev_add
      00010EF9H   SYMBOL    XDATA    BYTE      reg
      00010EFAH   SYMBOL    XDATA    BYTE      dat
      00010DF3H   SYMBOL    XDATA    BYTE      dev_add
      00010DF4H   SYMBOL    XDATA    BYTE      reg
      00010DF5H   SYMBOL    XDATA    ---       dat
      00010DB2H   SYMBOL    XDATA    BYTE      dev_add
      00010DB3H   SYMBOL    XDATA    BYTE      reg
      00010DB4H   SYMBOL    XDATA    ---       dat
      00010DB8H   SYMBOL    XDATA    BYTE      num
      00010F1EH   SYMBOL    XDATA    INT       iic_n

      ---         MODULE    ---      ---       SEEKFREE_18TFT
      00010AF6H   PUBLIC    XDATA    BYTE      ?lcd_showfloat?BYTE
      000000D0H   SFRSYM    DATA     BYTE      PSW
      0000009DH   SFRSYM    DATA     BYTE      IRCBAND
      00000097H   SFRSYM    DATA     BYTE      AUXR2
      000000EFH   SFRSYM    DATA     BYTE      AUXINTIF
      000000FDH   SFRSYM    DATA     BYTE      S4CON
      000000ACH   SFRSYM    DATA     BYTE      S3CON
      0000009AH   SFRSYM    DATA     BYTE      S2CON
      000000B7H   SFRSYM    DATA     BYTE      IPH
      000000CDH   SFRSYM    DATA     BYTE      SPSTAT
      000000DDH   SFRSYM    DATA     BYTE      T4T3M
      000000C1H   SFRSYM    DATA     BYTE      WDT_CONTR
      000000DFH   SFRSYM    DATA     BYTE      IP3
      000000F4H   SFRSYM    DATA     BYTE      USBCON
      000000B5H   SFRSYM    DATA     BYTE      IP2
      000000FFH   SFRSYM    DATA     BYTE      RSTCFG
      000000F9H   SFRSYM    DATA     BYTE      LINICR
      0000008EH   SFRSYM    DATA     BYTE      AUXR
      000000AFH   SFRSYM    DATA     BYTE      IE2
      00000088H   SFRSYM    DATA     BYTE      TCON
      00000098H   SFRSYM    DATA     BYTE      SCON
      000000A0H.2 SFRSYM    DATA     BIT       P22
      000000A0H.1 SFRSYM    DATA     BIT       P21
      000000A0H.0 SFRSYM    DATA     BIT       P20
      000000F1H   SFRSYM    DATA     BYTE      CANICR
L251 LINKER/LOCATER V4.66.93.0                                                        06/19/2025  15:56:37  PAGE 67


      00000087H   SFRSYM    DATA     BYTE      PCON
      000000BCH   SFRSYM    DATA     BYTE      ADC_CONTR
      000000E7H   SFRSYM    DATA     BYTE      CMPCR2
      000000E6H   SFRSYM    DATA     BYTE      CMPCR1
      000000B8H   SFRSYM    DATA     BYTE      IP
      0000008FH   SFRSYM    DATA     BYTE      INTCLKO
      000000EEH   SFRSYM    DATA     BYTE      IP3H
      000000B6H   SFRSYM    DATA     BYTE      IP2H
      000000A8H   SFRSYM    DATA     BYTE      IE
      000000BBH   SFRSYM    DATA     BYTE      P_SW3
      000000BAH   SFRSYM    DATA     BYTE      P_SW2
      000000A2H   SFRSYM    DATA     BYTE      P_SW1
      000000CEH   SFRSYM    DATA     BYTE      SPCTL
      000000F8H   SFRSYM    DATA     BYTE      P7
      000000E8H   SFRSYM    DATA     BYTE      P6
      000000C8H   SFRSYM    DATA     BYTE      P5
      000000C0H   SFRSYM    DATA     BYTE      P4
      000000B0H   SFRSYM    DATA     BYTE      P3
      000000A0H   SFRSYM    DATA     BYTE      P2
      00000090H   SFRSYM    DATA     BYTE      P1
      00000080H   SFRSYM    DATA     BYTE      P0
      00010F56H   SYMBOL    XDATA    BYTE      dat
      00010F57H   SYMBOL    XDATA    BYTE      dat
      00010F20H   SYMBOL    XDATA    WORD      dat
      0000044DH   SYMBOL    EDATA    ---       dat1
      00010D4AH   SYMBOL    XDATA    WORD      x_start
      00010D4CH   SYMBOL    XDATA    WORD      y_start
      00010D4EH   SYMBOL    XDATA    WORD      x_end
      00010D50H   SYMBOL    XDATA    WORD      y_end
      00010EFBH   SYMBOL    XDATA    INT       color
      0000001FH   SYMBOL    EDATA    BYTE      i
      00010EFDH   SYMBOL    XDATA    BYTE      j
      00010DF9H   SYMBOL    XDATA    WORD      x
      00010DFBH   SYMBOL    XDATA    WORD      y
      00010DFDH   SYMBOL    XDATA    WORD      color
      00010DFFH   SYMBOL    XDATA    WORD      x
      00010E01H   SYMBOL    XDATA    WORD      y
      00010E03H   SYMBOL    XDATA    CHAR      dat
      0000044FH   SYMBOL    EDATA    BYTE      i
      00010E04H   SYMBOL    XDATA    BYTE      j
      00000450H   SYMBOL    EDATA    BYTE      temp
      00010D52H   SYMBOL    XDATA    WORD      x
      00010D54H   SYMBOL    XDATA    WORD      y
      00010D56H   SYMBOL    XDATA    ---       dat
      00000451H   SYMBOL    EDATA    WORD      j
      00010E81H   SYMBOL    XDATA    WORD      x
      00010E83H   SYMBOL    XDATA    WORD      y
      00010E85H   SYMBOL    XDATA    CHAR      dat
      0000041AH   SYMBOL    EDATA    ---       a
      0000041DH   SYMBOL    EDATA    BYTE      i
      00010E86H   SYMBOL    XDATA    WORD      x
      00010E88H   SYMBOL    XDATA    WORD      y
      00010E8AH   SYMBOL    XDATA    BYTE      dat
      0000041EH   SYMBOL    EDATA    ---       a
      00000421H   SYMBOL    EDATA    BYTE      i
      00010E05H   SYMBOL    XDATA    WORD      x
      00010E07H   SYMBOL    XDATA    WORD      y
      00010E09H   SYMBOL    XDATA    INT       dat
      000003EAH   SYMBOL    EDATA    ---       a
      000003EFH   SYMBOL    EDATA    BYTE      i
      00010E0BH   SYMBOL    XDATA    WORD      x
      00010E0DH   SYMBOL    XDATA    WORD      y
      00010E0FH   SYMBOL    XDATA    WORD      dat
      000003F0H   SYMBOL    EDATA    ---       a
      000003F5H   SYMBOL    EDATA    BYTE      i
L251 LINKER/LOCATER V4.66.93.0                                                        06/19/2025  15:56:37  PAGE 68


      00010CB6H   SYMBOL    XDATA    WORD      x
      00010CB8H   SYMBOL    XDATA    WORD      y
      00010CBAH   SYMBOL    XDATA    LONG      dat
      00010CBEH   SYMBOL    XDATA    BYTE      num
      000003A4H   SYMBOL    EDATA    ---       buff
      000003C6H   SYMBOL    EDATA    BYTE      length
      00010AF6H   SYMBOL    XDATA    WORD      x
      00010AF8H   SYMBOL    XDATA    WORD      y
      00010AFAH   SYMBOL    XDATA    DOUBLE    dat
      00010B02H   SYMBOL    XDATA    BYTE      num
      00010B03H   SYMBOL    XDATA    BYTE      pointnum
      0000035CH   SYMBOL    EDATA    BYTE      length
      0000035DH   SYMBOL    EDATA    ---       buff
      0000037FH   SYMBOL    EDATA    CHAR      start
      00010B04H   SYMBOL    XDATA    CHAR      end
      00010B05H   SYMBOL    XDATA    CHAR      point
      00010BEAH   SYMBOL    XDATA    ---       p
      00010BEEH   SYMBOL    XDATA    INT       i
      00010BF0H   SYMBOL    XDATA    INT       j
      00010BF2H   SYMBOL    XDATA    INT       k
      00010BF4H   SYMBOL    XDATA    BYTE      picH
      00010BF5H   SYMBOL    XDATA    BYTE      picL

      ---         MODULE    ---      ---       SEEKFREE_BLE6A20
      000000D0H   SFRSYM    DATA     BYTE      PSW
      0000009DH   SFRSYM    DATA     BYTE      IRCBAND
      00000097H   SFRSYM    DATA     BYTE      AUXR2
      000000EFH   SFRSYM    DATA     BYTE      AUXINTIF
      000000FDH   SFRSYM    DATA     BYTE      S4CON
      000000ACH   SFRSYM    DATA     BYTE      S3CON
      0000009AH   SFRSYM    DATA     BYTE      S2CON
      000000B7H   SFRSYM    DATA     BYTE      IPH
      000000CDH   SFRSYM    DATA     BYTE      SPSTAT
      000000DDH   SFRSYM    DATA     BYTE      T4T3M
      000000C1H   SFRSYM    DATA     BYTE      WDT_CONTR
      000000DFH   SFRSYM    DATA     BYTE      IP3
      000000F4H   SFRSYM    DATA     BYTE      USBCON
      000000B5H   SFRSYM    DATA     BYTE      IP2
      000000FFH   SFRSYM    DATA     BYTE      RSTCFG
      000000F9H   SFRSYM    DATA     BYTE      LINICR
      0000008EH   SFRSYM    DATA     BYTE      AUXR
      000000AFH   SFRSYM    DATA     BYTE      IE2
      00000080H.7 SFRSYM    DATA     BIT       P07
      00000088H   SFRSYM    DATA     BYTE      TCON
      00000098H   SFRSYM    DATA     BYTE      SCON
      000000F1H   SFRSYM    DATA     BYTE      CANICR
      00000087H   SFRSYM    DATA     BYTE      PCON
      000000BCH   SFRSYM    DATA     BYTE      ADC_CONTR
      000000E7H   SFRSYM    DATA     BYTE      CMPCR2
      000000E6H   SFRSYM    DATA     BYTE      CMPCR1
      000000B8H   SFRSYM    DATA     BYTE      IP
      0000008FH   SFRSYM    DATA     BYTE      INTCLKO
      000000EEH   SFRSYM    DATA     BYTE      IP3H
      000000B6H   SFRSYM    DATA     BYTE      IP2H
      000000A8H   SFRSYM    DATA     BYTE      IE
      000000BBH   SFRSYM    DATA     BYTE      P_SW3
      000000BAH   SFRSYM    DATA     BYTE      P_SW2
      000000A2H   SFRSYM    DATA     BYTE      P_SW1
      000000CEH   SFRSYM    DATA     BYTE      SPCTL
      000000F8H   SFRSYM    DATA     BYTE      P7
      000000E8H   SFRSYM    DATA     BYTE      P6
      000000C8H   SFRSYM    DATA     BYTE      P5
      000000C0H   SFRSYM    DATA     BYTE      P4
      000000B0H   SFRSYM    DATA     BYTE      P3
      000000A0H   SFRSYM    DATA     BYTE      P2
L251 LINKER/LOCATER V4.66.93.0                                                        06/19/2025  15:56:37  PAGE 69


      00000090H   SFRSYM    DATA     BYTE      P1
      00000080H   SFRSYM    DATA     BYTE      P0
      000002AEH   SYMBOL    EDATA    ---       ble6a20_buffer
      000002EEH   SYMBOL    EDATA    ---       ble6a20_fifo
      00010F58H   SYMBOL    XDATA    BYTE      dat
      00010F59H   SYMBOL    XDATA    BYTE      dat
      00010D5AH   SYMBOL    XDATA    ---       buff
      00010D5EH   SYMBOL    XDATA    DWORD     len
      00010D62H   SYMBOL    XDATA    ---       buff
      00010D66H   SYMBOL    XDATA    DWORD     len
      00000422H   SYMBOL    EDATA    DWORD     data_len

      ---         MODULE    ---      ---       SEEKFREE_DL1B
      00010ED4H   PUBLIC    XDATA    WORD      dl1b_distance_mm
      00010ED6H   PUBLIC    XDATA    BYTE      dl1b_finsh_flag
      00010ED7H   PUBLIC    XDATA    BYTE      dl1b_init_flag
      00010B06H   PUBLIC    XDATA    BYTE      ?dl1b_iic_transfer_8bit_array?BYTE
      000000D0H   SFRSYM    DATA     BYTE      PSW
      0000009DH   SFRSYM    DATA     BYTE      IRCBAND
      00000097H   SFRSYM    DATA     BYTE      AUXR2
      000000EFH   SFRSYM    DATA     BYTE      AUXINTIF
      000000FDH   SFRSYM    DATA     BYTE      S4CON
      000000ACH   SFRSYM    DATA     BYTE      S3CON
      0000009AH   SFRSYM    DATA     BYTE      S2CON
      000000B7H   SFRSYM    DATA     BYTE      IPH
      000000CDH   SFRSYM    DATA     BYTE      SPSTAT
      000000DDH   SFRSYM    DATA     BYTE      T4T3M
      000000C1H   SFRSYM    DATA     BYTE      WDT_CONTR
      000000DFH   SFRSYM    DATA     BYTE      IP3
      000000F4H   SFRSYM    DATA     BYTE      USBCON
      000000B5H   SFRSYM    DATA     BYTE      IP2
      000000FFH   SFRSYM    DATA     BYTE      RSTCFG
      000000F9H   SFRSYM    DATA     BYTE      LINICR
      0000008EH   SFRSYM    DATA     BYTE      AUXR
      000000AFH   SFRSYM    DATA     BYTE      IE2
      000000C0H.7 SFRSYM    DATA     BIT       P47
      000000E8H.5 SFRSYM    DATA     BIT       P65
      000000E8H.3 SFRSYM    DATA     BIT       P63
      00000088H   SFRSYM    DATA     BYTE      TCON
      00000098H   SFRSYM    DATA     BYTE      SCON
      000000F1H   SFRSYM    DATA     BYTE      CANICR
      00000087H   SFRSYM    DATA     BYTE      PCON
      000000BCH   SFRSYM    DATA     BYTE      ADC_CONTR
      000000E7H   SFRSYM    DATA     BYTE      CMPCR2
      000000E6H   SFRSYM    DATA     BYTE      CMPCR1
      000000B8H   SFRSYM    DATA     BYTE      IP
      0000008FH   SFRSYM    DATA     BYTE      INTCLKO
      000000EEH   SFRSYM    DATA     BYTE      IP3H
      000000B6H   SFRSYM    DATA     BYTE      IP2H
      000000A8H   SFRSYM    DATA     BYTE      IE
      000000BBH   SFRSYM    DATA     BYTE      P_SW3
      000000BAH   SFRSYM    DATA     BYTE      P_SW2
      000000A2H   SFRSYM    DATA     BYTE      P_SW1
      000000CEH   SFRSYM    DATA     BYTE      SPCTL
      000000F8H   SFRSYM    DATA     BYTE      P7
      000000E8H   SFRSYM    DATA     BYTE      P6
      000000C8H   SFRSYM    DATA     BYTE      P5
      000000C0H   SFRSYM    DATA     BYTE      P4
      000000B0H   SFRSYM    DATA     BYTE      P3
      000000A0H   SFRSYM    DATA     BYTE      P2
      00000090H   SFRSYM    DATA     BYTE      P1
      00000080H   SFRSYM    DATA     BYTE      P0
      00000453H   SYMBOL    EDATA    WORD      j
      00010F5AH   SYMBOL    XDATA    BYTE      ack_dat
      00010F5BH   SYMBOL    XDATA    BYTE      c
L251 LINKER/LOCATER V4.66.93.0                                                        06/19/2025  15:56:37  PAGE 70


      0000046BH   SYMBOL    EDATA    BYTE      i
      00010F5CH   SYMBOL    XDATA    BYTE      ack_x
      00000455H   SYMBOL    EDATA    BYTE      i
      00000456H   SYMBOL    EDATA    BYTE      c
      00010B06H   SYMBOL    XDATA    ---       write_data
      00010B0AH   SYMBOL    XDATA    DWORD     write_len
      00010B0EH   SYMBOL    XDATA    ---       read_data
      00010B12H   SYMBOL    XDATA    DWORD     read_len
      0000043EH   SYMBOL    EDATA    ---       data_buffer
      00010F22H   SYMBOL    XDATA    INT       dl1b_distance_temp
      00000222H   SYMBOL    EDATA    BYTE      return_state
      00000223H   SYMBOL    EDATA    ---       data_buffer
      000002ACH   SYMBOL    EDATA    WORD      time_out_count

      ---         MODULE    ---      ---       SEEKFREE_FONT
      00FF381EH   PUBLIC    CODE     ---       ascii_font_8x16
      00FF3E0EH   PUBLIC    CODE     ---       tft_ascii
      00FF43FEH   PUBLIC    CODE     ---       oled_6x8
      000000D0H   SFRSYM    DATA     BYTE      PSW
      0000009DH   SFRSYM    DATA     BYTE      IRCBAND
      00000097H   SFRSYM    DATA     BYTE      AUXR2
      000000EFH   SFRSYM    DATA     BYTE      AUXINTIF
      000000FDH   SFRSYM    DATA     BYTE      S4CON
      000000ACH   SFRSYM    DATA     BYTE      S3CON
      0000009AH   SFRSYM    DATA     BYTE      S2CON
      000000B7H   SFRSYM    DATA     BYTE      IPH
      000000CDH   SFRSYM    DATA     BYTE      SPSTAT
      000000DDH   SFRSYM    DATA     BYTE      T4T3M
      000000C1H   SFRSYM    DATA     BYTE      WDT_CONTR
      000000DFH   SFRSYM    DATA     BYTE      IP3
      000000F4H   SFRSYM    DATA     BYTE      USBCON
      000000B5H   SFRSYM    DATA     BYTE      IP2
      000000FFH   SFRSYM    DATA     BYTE      RSTCFG
      000000F9H   SFRSYM    DATA     BYTE      LINICR
      0000008EH   SFRSYM    DATA     BYTE      AUXR
      000000AFH   SFRSYM    DATA     BYTE      IE2
      00000088H   SFRSYM    DATA     BYTE      TCON
      00000098H   SFRSYM    DATA     BYTE      SCON
      000000F1H   SFRSYM    DATA     BYTE      CANICR
      00000087H   SFRSYM    DATA     BYTE      PCON
      000000BCH   SFRSYM    DATA     BYTE      ADC_CONTR
      000000E7H   SFRSYM    DATA     BYTE      CMPCR2
      000000E6H   SFRSYM    DATA     BYTE      CMPCR1
      000000B8H   SFRSYM    DATA     BYTE      IP
      0000008FH   SFRSYM    DATA     BYTE      INTCLKO
      000000EEH   SFRSYM    DATA     BYTE      IP3H
      000000B6H   SFRSYM    DATA     BYTE      IP2H
      000000A8H   SFRSYM    DATA     BYTE      IE
      000000BBH   SFRSYM    DATA     BYTE      P_SW3
      000000BAH   SFRSYM    DATA     BYTE      P_SW2
      000000A2H   SFRSYM    DATA     BYTE      P_SW1
      000000CEH   SFRSYM    DATA     BYTE      SPCTL
      000000F8H   SFRSYM    DATA     BYTE      P7
      000000E8H   SFRSYM    DATA     BYTE      P6
      000000C8H   SFRSYM    DATA     BYTE      P5
      000000C0H   SFRSYM    DATA     BYTE      P4
      000000B0H   SFRSYM    DATA     BYTE      P3
      000000A0H   SFRSYM    DATA     BYTE      P2
      00000090H   SFRSYM    DATA     BYTE      P1
      00000080H   SFRSYM    DATA     BYTE      P0

      ---         MODULE    ---      ---       SEEKFREE_ICM20602
      00010BF6H   PUBLIC    XDATA    INT       icm20602_acc_x
      00010BF8H   PUBLIC    XDATA    INT       icm20602_acc_y
      00010BFAH   PUBLIC    XDATA    INT       icm20602_acc_z
L251 LINKER/LOCATER V4.66.93.0                                                        06/19/2025  15:56:37  PAGE 71


      00010BFCH   PUBLIC    XDATA    INT       icm20602_gyro_x
      00010BFEH   PUBLIC    XDATA    INT       icm20602_gyro_y
      00010C00H   PUBLIC    XDATA    INT       icm20602_gyro_z
      000000D0H   SFRSYM    DATA     BYTE      PSW
      0000009DH   SFRSYM    DATA     BYTE      IRCBAND
      00000097H   SFRSYM    DATA     BYTE      AUXR2
      000000EFH   SFRSYM    DATA     BYTE      AUXINTIF
      000000FDH   SFRSYM    DATA     BYTE      S4CON
      000000ACH   SFRSYM    DATA     BYTE      S3CON
      0000009AH   SFRSYM    DATA     BYTE      S2CON
      000000B7H   SFRSYM    DATA     BYTE      IPH
      000000CDH   SFRSYM    DATA     BYTE      SPSTAT
      000000DDH   SFRSYM    DATA     BYTE      T4T3M
      000000C1H   SFRSYM    DATA     BYTE      WDT_CONTR
      000000DFH   SFRSYM    DATA     BYTE      IP3
      000000F4H   SFRSYM    DATA     BYTE      USBCON
      000000B5H   SFRSYM    DATA     BYTE      IP2
      000000FFH   SFRSYM    DATA     BYTE      RSTCFG
      000000F9H   SFRSYM    DATA     BYTE      LINICR
      0000008EH   SFRSYM    DATA     BYTE      AUXR
      000000AFH   SFRSYM    DATA     BYTE      IE2
      000000C0H.3 SFRSYM    DATA     BIT       P43
      000000C0H.2 SFRSYM    DATA     BIT       P42
      00000088H   SFRSYM    DATA     BYTE      TCON
      000000C0H.1 SFRSYM    DATA     BIT       P41
      00000098H   SFRSYM    DATA     BYTE      SCON
      000000C0H.0 SFRSYM    DATA     BIT       P40
      000000F1H   SFRSYM    DATA     BYTE      CANICR
      00000087H   SFRSYM    DATA     BYTE      PCON
      000000BCH   SFRSYM    DATA     BYTE      ADC_CONTR
      000000E7H   SFRSYM    DATA     BYTE      CMPCR2
      000000E6H   SFRSYM    DATA     BYTE      CMPCR1
      000000B8H   SFRSYM    DATA     BYTE      IP
      0000008FH   SFRSYM    DATA     BYTE      INTCLKO
      000000EEH   SFRSYM    DATA     BYTE      IP3H
      000000B6H   SFRSYM    DATA     BYTE      IP2H
      000000A8H   SFRSYM    DATA     BYTE      IE
      000000BBH   SFRSYM    DATA     BYTE      P_SW3
      000000BAH   SFRSYM    DATA     BYTE      P_SW2
      000000A2H   SFRSYM    DATA     BYTE      P_SW1
      000000CEH   SFRSYM    DATA     BYTE      SPCTL
      000000F8H   SFRSYM    DATA     BYTE      P7
      000000E8H   SFRSYM    DATA     BYTE      P6
      000000C8H   SFRSYM    DATA     BYTE      P5
      000000C0H   SFRSYM    DATA     BYTE      P4
      000000B0H   SFRSYM    DATA     BYTE      P3
      000000A0H   SFRSYM    DATA     BYTE      P2
      00000090H   SFRSYM    DATA     BYTE      P1
      00000080H   SFRSYM    DATA     BYTE      P0
      00010F5DH   SYMBOL    XDATA    BYTE      byte
      0000046CH   SYMBOL    EDATA    BYTE      i
      00010F24H   SYMBOL    XDATA    BYTE      cmd
      00010F25H   SYMBOL    XDATA    BYTE      val
      00010E8BH   SYMBOL    XDATA    BYTE      cmd
      00010E8CH   SYMBOL    XDATA    ---       val
      00010CBFH   SYMBOL    XDATA    BYTE      cmd
      00010CC0H   SYMBOL    XDATA    ---       val
      00010CC4H   SYMBOL    XDATA    DWORD     num
      00000426H   SYMBOL    EDATA    DWORD     i
      00010F26H   SYMBOL    XDATA    BYTE      reg
      00010F27H   SYMBOL    XDATA    BYTE      dat
      00010F5EH   SYMBOL    XDATA    BYTE      reg
      0000046DH   SYMBOL    EDATA    BYTE      dat
      00010CC8H   SYMBOL    XDATA    BYTE      reg
      00010CC9H   SYMBOL    XDATA    ---       dat
L251 LINKER/LOCATER V4.66.93.0                                                        06/19/2025  15:56:37  PAGE 72


      00010CCDH   SYMBOL    XDATA    DWORD     len
      00000441H   SYMBOL    EDATA    BYTE      dat
      00010F5FH   SYMBOL    XDATA    BYTE      return_state
      00000442H   SYMBOL    EDATA    WORD      timeout_count
      000003F6H   SYMBOL    EDATA    ---       dat
      000003FCH   SYMBOL    EDATA    ---       dat
      00010E11H   SYMBOL    XDATA    INT       acc_value
      00010E13H   SYMBOL    XDATA    FLOAT     acc_data
      00010E17H   SYMBOL    XDATA    INT       gyro_value
      00010E19H   SYMBOL    XDATA    FLOAT     gyro_data
      00000444H   SYMBOL    EDATA    BYTE      val
      00010F60H   SYMBOL    XDATA    BYTE      return_state
      00000445H   SYMBOL    EDATA    WORD      timeout_count

      ---         MODULE    ---      ---       SEEKFREE_IMU660RA
      00010C02H   PUBLIC    XDATA    INT       imu660ra_acc_x
      00010C04H   PUBLIC    XDATA    INT       imu660ra_acc_y
      00010C06H   PUBLIC    XDATA    INT       imu660ra_acc_z
      00010C08H   PUBLIC    XDATA    INT       imu660ra_gyro_x
      00010C0AH   PUBLIC    XDATA    INT       imu660ra_gyro_y
      00010C0CH   PUBLIC    XDATA    INT       imu660ra_gyro_z
      000000D0H   SFRSYM    DATA     BYTE      PSW
      0000009DH   SFRSYM    DATA     BYTE      IRCBAND
      00000097H   SFRSYM    DATA     BYTE      AUXR2
      000000EFH   SFRSYM    DATA     BYTE      AUXINTIF
      000000FDH   SFRSYM    DATA     BYTE      S4CON
      000000ACH   SFRSYM    DATA     BYTE      S3CON
      0000009AH   SFRSYM    DATA     BYTE      S2CON
      000000B7H   SFRSYM    DATA     BYTE      IPH
      000000CDH   SFRSYM    DATA     BYTE      SPSTAT
      000000DDH   SFRSYM    DATA     BYTE      T4T3M
      000000C1H   SFRSYM    DATA     BYTE      WDT_CONTR
      000000DFH   SFRSYM    DATA     BYTE      IP3
      000000F4H   SFRSYM    DATA     BYTE      USBCON
      000000B5H   SFRSYM    DATA     BYTE      IP2
      000000FFH   SFRSYM    DATA     BYTE      RSTCFG
      000000F9H   SFRSYM    DATA     BYTE      LINICR
      0000008EH   SFRSYM    DATA     BYTE      AUXR
      000000AFH   SFRSYM    DATA     BYTE      IE2
      000000C0H.3 SFRSYM    DATA     BIT       P43
      000000C0H.2 SFRSYM    DATA     BIT       P42
      00000088H   SFRSYM    DATA     BYTE      TCON
      000000C0H.1 SFRSYM    DATA     BIT       P41
      00000098H   SFRSYM    DATA     BYTE      SCON
      000000C0H.0 SFRSYM    DATA     BIT       P40
      000000F1H   SFRSYM    DATA     BYTE      CANICR
      00000087H   SFRSYM    DATA     BYTE      PCON
      000000BCH   SFRSYM    DATA     BYTE      ADC_CONTR
      000000E7H   SFRSYM    DATA     BYTE      CMPCR2
      000000E6H   SFRSYM    DATA     BYTE      CMPCR1
      000000B8H   SFRSYM    DATA     BYTE      IP
      0000008FH   SFRSYM    DATA     BYTE      INTCLKO
      000000EEH   SFRSYM    DATA     BYTE      IP3H
      000000B6H   SFRSYM    DATA     BYTE      IP2H
      000000A8H   SFRSYM    DATA     BYTE      IE
      000000BBH   SFRSYM    DATA     BYTE      P_SW3
      000000BAH   SFRSYM    DATA     BYTE      P_SW2
      000000A2H   SFRSYM    DATA     BYTE      P_SW1
      000000CEH   SFRSYM    DATA     BYTE      SPCTL
      000000F8H   SFRSYM    DATA     BYTE      P7
      000000E8H   SFRSYM    DATA     BYTE      P6
      000000C8H   SFRSYM    DATA     BYTE      P5
      000000C0H   SFRSYM    DATA     BYTE      P4
      000000B0H   SFRSYM    DATA     BYTE      P3
      000000A0H   SFRSYM    DATA     BYTE      P2
L251 LINKER/LOCATER V4.66.93.0                                                        06/19/2025  15:56:37  PAGE 73


      00000090H   SFRSYM    DATA     BYTE      P1
      00000080H   SFRSYM    DATA     BYTE      P0
      00010F61H   SYMBOL    XDATA    BYTE      byte
      0000046EH   SYMBOL    EDATA    BYTE      i
      00010F28H   SYMBOL    XDATA    BYTE      cmd
      00010F29H   SYMBOL    XDATA    BYTE      val
      00010CD1H   SYMBOL    XDATA    BYTE      cmd
      00010CD2H   SYMBOL    XDATA    ---       dat_addr
      00010CD6H   SYMBOL    XDATA    DWORD     len
      00010CDAH   SYMBOL    XDATA    BYTE      cmd
      00010CDBH   SYMBOL    XDATA    ---       val
      00010CDFH   SYMBOL    XDATA    DWORD     num
      00010F2AH   SYMBOL    XDATA    BYTE      reg
      00010F2BH   SYMBOL    XDATA    BYTE      dat
      00010CE3H   SYMBOL    XDATA    BYTE      reg
      00010CE4H   SYMBOL    XDATA    ---       dat
      00010CE8H   SYMBOL    XDATA    DWORD     len
      00010F62H   SYMBOL    XDATA    BYTE      reg
      00000457H   SYMBOL    EDATA    ---       dat
      00010CECH   SYMBOL    XDATA    BYTE      reg
      00010CEDH   SYMBOL    XDATA    ---       dat
      00010CF1H   SYMBOL    XDATA    DWORD     len
      00000447H   SYMBOL    EDATA    BYTE      dat
      00010F63H   SYMBOL    XDATA    BYTE      return_state
      00000448H   SYMBOL    EDATA    WORD      timeout_count
      0000000AH   SYMBOL    EDATA    ---       dat
      00000011H   SYMBOL    EDATA    ---       dat
      00010E1DH   SYMBOL    XDATA    INT       acc_value
      00010E1FH   SYMBOL    XDATA    FLOAT     acc_dat
      00010E23H   SYMBOL    XDATA    INT       gyro_value
      00010E25H   SYMBOL    XDATA    FLOAT     gyro_dat
      0000046FH   SYMBOL    EDATA    BYTE      return_state

      ---         MODULE    ---      ---       SEEKFREE_IMU963RA
      00010AA2H   PUBLIC    XDATA    INT       imu963ra_acc_x
      00010AA4H   PUBLIC    XDATA    INT       imu963ra_acc_y
      00010AA6H   PUBLIC    XDATA    INT       imu963ra_acc_z
      00010AA8H   PUBLIC    XDATA    INT       imu963ra_mag_x
      00010AAAH   PUBLIC    XDATA    INT       imu963ra_mag_y
      00010AACH   PUBLIC    XDATA    INT       imu963ra_mag_z
      00010AAEH   PUBLIC    XDATA    INT       imu963ra_gyro_x
      00010AB0H   PUBLIC    XDATA    INT       imu963ra_gyro_y
      00010AB2H   PUBLIC    XDATA    INT       imu963ra_gyro_z
      000000D0H   SFRSYM    DATA     BYTE      PSW
      0000009DH   SFRSYM    DATA     BYTE      IRCBAND
      00000097H   SFRSYM    DATA     BYTE      AUXR2
      000000EFH   SFRSYM    DATA     BYTE      AUXINTIF
      000000FDH   SFRSYM    DATA     BYTE      S4CON
      000000ACH   SFRSYM    DATA     BYTE      S3CON
      0000009AH   SFRSYM    DATA     BYTE      S2CON
      000000B7H   SFRSYM    DATA     BYTE      IPH
      000000CDH   SFRSYM    DATA     BYTE      SPSTAT
      000000DDH   SFRSYM    DATA     BYTE      T4T3M
      000000C1H   SFRSYM    DATA     BYTE      WDT_CONTR
      000000DFH   SFRSYM    DATA     BYTE      IP3
      000000F4H   SFRSYM    DATA     BYTE      USBCON
      000000B5H   SFRSYM    DATA     BYTE      IP2
      000000FFH   SFRSYM    DATA     BYTE      RSTCFG
      000000F9H   SFRSYM    DATA     BYTE      LINICR
      0000008EH   SFRSYM    DATA     BYTE      AUXR
      000000AFH   SFRSYM    DATA     BYTE      IE2
      000000C0H.3 SFRSYM    DATA     BIT       P43
      000000C0H.2 SFRSYM    DATA     BIT       P42
      00000088H   SFRSYM    DATA     BYTE      TCON
      000000C0H.1 SFRSYM    DATA     BIT       P41
L251 LINKER/LOCATER V4.66.93.0                                                        06/19/2025  15:56:37  PAGE 74


      00000098H   SFRSYM    DATA     BYTE      SCON
      000000C0H.0 SFRSYM    DATA     BIT       P40
      000000F1H   SFRSYM    DATA     BYTE      CANICR
      00000087H   SFRSYM    DATA     BYTE      PCON
      000000BCH   SFRSYM    DATA     BYTE      ADC_CONTR
      000000E7H   SFRSYM    DATA     BYTE      CMPCR2
      000000E6H   SFRSYM    DATA     BYTE      CMPCR1
      000000B8H   SFRSYM    DATA     BYTE      IP
      0000008FH   SFRSYM    DATA     BYTE      INTCLKO
      000000EEH   SFRSYM    DATA     BYTE      IP3H
      000000B6H   SFRSYM    DATA     BYTE      IP2H
      000000A8H   SFRSYM    DATA     BYTE      IE
      000000BBH   SFRSYM    DATA     BYTE      P_SW3
      000000BAH   SFRSYM    DATA     BYTE      P_SW2
      000000A2H   SFRSYM    DATA     BYTE      P_SW1
      000000CEH   SFRSYM    DATA     BYTE      SPCTL
      000000F8H   SFRSYM    DATA     BYTE      P7
      000000E8H   SFRSYM    DATA     BYTE      P6
      000000C8H   SFRSYM    DATA     BYTE      P5
      000000C0H   SFRSYM    DATA     BYTE      P4
      000000B0H   SFRSYM    DATA     BYTE      P3
      000000A0H   SFRSYM    DATA     BYTE      P2
      00000090H   SFRSYM    DATA     BYTE      P1
      00000080H   SFRSYM    DATA     BYTE      P0
      00010F64H   SYMBOL    XDATA    BYTE      byte
      00000470H   SYMBOL    EDATA    BYTE      i
      00010F2CH   SYMBOL    XDATA    BYTE      cmd
      00010F2DH   SYMBOL    XDATA    BYTE      val
      00010E90H   SYMBOL    XDATA    BYTE      cmd
      00010E91H   SYMBOL    XDATA    ---       val
      00010CF5H   SYMBOL    XDATA    BYTE      cmd
      00010CF6H   SYMBOL    XDATA    ---       val
      00010CFAH   SYMBOL    XDATA    DWORD     num
      00010F2EH   SYMBOL    XDATA    BYTE      reg
      00010F2FH   SYMBOL    XDATA    BYTE      dat
      00010F65H   SYMBOL    XDATA    BYTE      reg
      00000471H   SYMBOL    EDATA    BYTE      dat
      00010CFEH   SYMBOL    XDATA    BYTE      reg
      00010CFFH   SYMBOL    XDATA    ---       dat
      00010D03H   SYMBOL    XDATA    DWORD     len
      00010EFEH   SYMBOL    XDATA    BYTE      addr
      00010EFFH   SYMBOL    XDATA    BYTE      reg
      00010F00H   SYMBOL    XDATA    BYTE      dat
      0000044AH   SYMBOL    EDATA    BYTE      return_state
      0000044BH   SYMBOL    EDATA    WORD      timeout_count
      00010F30H   SYMBOL    XDATA    BYTE      addr
      00010F31H   SYMBOL    XDATA    BYTE      reg
      00000459H   SYMBOL    EDATA    WORD      timeout_count
      00010F32H   SYMBOL    XDATA    BYTE      addr
      00010F33H   SYMBOL    XDATA    BYTE      reg
      0000042AH   SYMBOL    EDATA    BYTE      return_state
      0000042BH   SYMBOL    EDATA    BYTE      dat
      0000042CH   SYMBOL    EDATA    WORD      timeout_count
      0000042EH   SYMBOL    EDATA    BYTE      return_state
      0000042FH   SYMBOL    EDATA    BYTE      dat
      00000430H   SYMBOL    EDATA    WORD      timeout_count
      00000402H   SYMBOL    EDATA    ---       dat
      00000408H   SYMBOL    EDATA    ---       dat
      00000018H   SYMBOL    EDATA    BYTE      temp_status
      00000019H   SYMBOL    EDATA    ---       dat
      00010E29H   SYMBOL    XDATA    INT       acc_value
      00010E2BH   SYMBOL    XDATA    FLOAT     acc_dat
      00010E2FH   SYMBOL    XDATA    INT       gyro_value
      00010E31H   SYMBOL    XDATA    FLOAT     gyro_dat
      00010E35H   SYMBOL    XDATA    INT       mag_value
L251 LINKER/LOCATER V4.66.93.0                                                        06/19/2025  15:56:37  PAGE 75


      00010E37H   SYMBOL    XDATA    FLOAT     mag_dat
      00000472H   SYMBOL    EDATA    BYTE      return_state

      ---         MODULE    ---      ---       SEEKFREE_IPS114_SPI
      00010B16H   PUBLIC    XDATA    BYTE      ?ips114_showfloat?BYTE
      000000D0H   SFRSYM    DATA     BYTE      PSW
      0000009DH   SFRSYM    DATA     BYTE      IRCBAND
      00000097H   SFRSYM    DATA     BYTE      AUXR2
      000000EFH   SFRSYM    DATA     BYTE      AUXINTIF
      000000FDH   SFRSYM    DATA     BYTE      S4CON
      000000ACH   SFRSYM    DATA     BYTE      S3CON
      0000009AH   SFRSYM    DATA     BYTE      S2CON
      000000B7H   SFRSYM    DATA     BYTE      IPH
      000000CDH   SFRSYM    DATA     BYTE      SPSTAT
      000000DDH   SFRSYM    DATA     BYTE      T4T3M
      000000C1H   SFRSYM    DATA     BYTE      WDT_CONTR
      000000DFH   SFRSYM    DATA     BYTE      IP3
      000000F4H   SFRSYM    DATA     BYTE      USBCON
      000000B5H   SFRSYM    DATA     BYTE      IP2
      000000FFH   SFRSYM    DATA     BYTE      RSTCFG
      000000F9H   SFRSYM    DATA     BYTE      LINICR
      0000008EH   SFRSYM    DATA     BYTE      AUXR
      000000AFH   SFRSYM    DATA     BYTE      IE2
      000000A0H.7 SFRSYM    DATA     BIT       P27
      00000088H   SFRSYM    DATA     BYTE      TCON
      00000098H   SFRSYM    DATA     BYTE      SCON
      000000A0H.2 SFRSYM    DATA     BIT       P22
      000000A0H.1 SFRSYM    DATA     BIT       P21
      000000A0H.0 SFRSYM    DATA     BIT       P20
      000000F1H   SFRSYM    DATA     BYTE      CANICR
      00000087H   SFRSYM    DATA     BYTE      PCON
      000000BCH   SFRSYM    DATA     BYTE      ADC_CONTR
      000000E7H   SFRSYM    DATA     BYTE      CMPCR2
      000000E6H   SFRSYM    DATA     BYTE      CMPCR1
      000000B8H   SFRSYM    DATA     BYTE      IP
      0000008FH   SFRSYM    DATA     BYTE      INTCLKO
      000000EEH   SFRSYM    DATA     BYTE      IP3H
      000000B6H   SFRSYM    DATA     BYTE      IP2H
      000000A8H   SFRSYM    DATA     BYTE      IE
      000000BBH   SFRSYM    DATA     BYTE      P_SW3
      000000BAH   SFRSYM    DATA     BYTE      P_SW2
      000000A2H   SFRSYM    DATA     BYTE      P_SW1
      000000CEH   SFRSYM    DATA     BYTE      SPCTL
      000000F8H   SFRSYM    DATA     BYTE      P7
      000000E8H   SFRSYM    DATA     BYTE      P6
      000000C8H   SFRSYM    DATA     BYTE      P5
      000000C0H   SFRSYM    DATA     BYTE      P4
      000000B0H   SFRSYM    DATA     BYTE      P3
      000000A0H   SFRSYM    DATA     BYTE      P2
      00000090H   SFRSYM    DATA     BYTE      P1
      00000080H   SFRSYM    DATA     BYTE      P0
      00010F66H   SYMBOL    XDATA    BYTE      dat
      00010F67H   SYMBOL    XDATA    BYTE      dat
      00010F34H   SYMBOL    XDATA    WORD      dat
      0000045BH   SYMBOL    EDATA    ---       dat1
      00010D6AH   SYMBOL    XDATA    WORD      x1
      00010D6CH   SYMBOL    XDATA    WORD      y1
      00010D6EH   SYMBOL    XDATA    WORD      x2
      00010D70H   SYMBOL    XDATA    WORD      y2
      00010ED8H   SYMBOL    XDATA    WORD      color
      0000045DH   SYMBOL    EDATA    WORD      i
      00010EDAH   SYMBOL    XDATA    WORD      j
      00010E3BH   SYMBOL    XDATA    WORD      x
      00010E3DH   SYMBOL    XDATA    WORD      y
      00010E3FH   SYMBOL    XDATA    WORD      color
L251 LINKER/LOCATER V4.66.93.0                                                        06/19/2025  15:56:37  PAGE 76


      00010E41H   SYMBOL    XDATA    WORD      x
      00010E43H   SYMBOL    XDATA    WORD      y
      00010E45H   SYMBOL    XDATA    CHAR      dat
      0000045FH   SYMBOL    EDATA    BYTE      i
      00010E46H   SYMBOL    XDATA    BYTE      j
      00000460H   SYMBOL    EDATA    BYTE      temp
      00010D72H   SYMBOL    XDATA    WORD      x
      00010D74H   SYMBOL    XDATA    WORD      y
      00010D76H   SYMBOL    XDATA    ---       dat
      00000461H   SYMBOL    EDATA    WORD      j
      00010E95H   SYMBOL    XDATA    WORD      x
      00010E97H   SYMBOL    XDATA    WORD      y
      00010E99H   SYMBOL    XDATA    CHAR      dat
      00000432H   SYMBOL    EDATA    ---       a
      00000435H   SYMBOL    EDATA    BYTE      i
      00010E9AH   SYMBOL    XDATA    WORD      x
      00010E9CH   SYMBOL    XDATA    WORD      y
      00010E9EH   SYMBOL    XDATA    BYTE      dat
      00000436H   SYMBOL    EDATA    ---       a
      00000439H   SYMBOL    EDATA    BYTE      i
      00010E47H   SYMBOL    XDATA    WORD      x
      00010E49H   SYMBOL    XDATA    WORD      y
      00010E4BH   SYMBOL    XDATA    INT       dat
      0000040EH   SYMBOL    EDATA    ---       a
      00000413H   SYMBOL    EDATA    BYTE      i
      00010E4DH   SYMBOL    XDATA    WORD      x
      00010E4FH   SYMBOL    XDATA    WORD      y
      00010E51H   SYMBOL    XDATA    WORD      dat
      00000414H   SYMBOL    EDATA    ---       a
      00000419H   SYMBOL    EDATA    BYTE      i
      00010D07H   SYMBOL    XDATA    WORD      x
      00010D09H   SYMBOL    XDATA    WORD      y
      00010D0BH   SYMBOL    XDATA    LONG      dat
      00010D0FH   SYMBOL    XDATA    BYTE      num
      000003C7H   SYMBOL    EDATA    ---       buff
      000003E9H   SYMBOL    EDATA    BYTE      length
      00010B16H   SYMBOL    XDATA    WORD      x
      00010B18H   SYMBOL    XDATA    WORD      y
      00010B1AH   SYMBOL    XDATA    DOUBLE    dat
      00010B22H   SYMBOL    XDATA    BYTE      num
      00010B23H   SYMBOL    XDATA    BYTE      pointnum
      00000380H   SYMBOL    EDATA    BYTE      length
      00000381H   SYMBOL    EDATA    ---       buff
      000003A3H   SYMBOL    EDATA    CHAR      start
      00010B24H   SYMBOL    XDATA    CHAR      end
      00010B25H   SYMBOL    XDATA    CHAR      point

      ---         MODULE    ---      ---       SEEKFREE_OLED
      00FF9D3CH   PUBLIC    CODE     ---       oled_hexascii_spi
      00FFA5A7H   PUBLIC    CODE     ---       oled_set_pos_spi
      00FF81E2H   PUBLIC    CODE     ---       oled_printf_float_spi
      00FFA875H   PUBLIC    CODE     ---       oled_wrcmd_spi
      00FFA88AH   PUBLIC    CODE     ---       oled_wrdat_spi
      00FFA0AAH   PUBLIC    CODE     ---       oled_fill_spi
      00FFA657H   PUBLIC    CODE     ---       oled_uint16_spi
      00FF9249H   PUBLIC    CODE     ---       oled_p6x8str_spi
      00FF9CB1H   PUBLIC    CODE     ---       oled_int16_spi
      00FF95A0H   PUBLIC    CODE     ---       oled_init_spi
      00010715H   PUBLIC    XDATA    BYTE      ?oled_printf_float?BYTE
      00010749H   PUBLIC    XDATA    BYTE      ?oled_printf_float_spi?BYTE
      000000D0H   SFRSYM    DATA     BYTE      PSW
      0000009DH   SFRSYM    DATA     BYTE      IRCBAND
      00000097H   SFRSYM    DATA     BYTE      AUXR2
      000000EFH   SFRSYM    DATA     BYTE      AUXINTIF
      000000FDH   SFRSYM    DATA     BYTE      S4CON
L251 LINKER/LOCATER V4.66.93.0                                                        06/19/2025  15:56:37  PAGE 77


      000000ACH   SFRSYM    DATA     BYTE      S3CON
      0000009AH   SFRSYM    DATA     BYTE      S2CON
      000000B7H   SFRSYM    DATA     BYTE      IPH
      000000CDH   SFRSYM    DATA     BYTE      SPSTAT
      000000DDH   SFRSYM    DATA     BYTE      T4T3M
      000000C1H   SFRSYM    DATA     BYTE      WDT_CONTR
      000000DFH   SFRSYM    DATA     BYTE      IP3
      000000F4H   SFRSYM    DATA     BYTE      USBCON
      000000B5H   SFRSYM    DATA     BYTE      IP2
      000000FFH   SFRSYM    DATA     BYTE      RSTCFG
      000000F9H   SFRSYM    DATA     BYTE      LINICR
      0000008EH   SFRSYM    DATA     BYTE      AUXR
      000000AFH   SFRSYM    DATA     BYTE      IE2
      000000A0H.5 SFRSYM    DATA     BIT       P25
      000000A0H.4 SFRSYM    DATA     BIT       P24
      00000088H   SFRSYM    DATA     BYTE      TCON
      00000098H   SFRSYM    DATA     BYTE      SCON
      000000A0H.2 SFRSYM    DATA     BIT       P22
      000000A0H.1 SFRSYM    DATA     BIT       P21
      000000A0H.0 SFRSYM    DATA     BIT       P20
      000000F1H   SFRSYM    DATA     BYTE      CANICR
      00000087H   SFRSYM    DATA     BYTE      PCON
      000000BCH   SFRSYM    DATA     BYTE      ADC_CONTR
      000000E7H   SFRSYM    DATA     BYTE      CMPCR2
      000000E6H   SFRSYM    DATA     BYTE      CMPCR1
      000000B8H   SFRSYM    DATA     BYTE      IP
      0000008FH   SFRSYM    DATA     BYTE      INTCLKO
      000000EEH   SFRSYM    DATA     BYTE      IP3H
      000000B6H   SFRSYM    DATA     BYTE      IP2H
      000000A8H   SFRSYM    DATA     BYTE      IE
      000000BBH   SFRSYM    DATA     BYTE      P_SW3
      000000BAH   SFRSYM    DATA     BYTE      P_SW2
      000000A2H   SFRSYM    DATA     BYTE      P_SW1
      000000CEH   SFRSYM    DATA     BYTE      SPCTL
      000000F8H   SFRSYM    DATA     BYTE      P7
      000000E8H   SFRSYM    DATA     BYTE      P6
      000000C8H   SFRSYM    DATA     BYTE      P5
      000000C0H   SFRSYM    DATA     BYTE      P4
      000000B0H   SFRSYM    DATA     BYTE      P3
      000000A0H   SFRSYM    DATA     BYTE      P2
      00000090H   SFRSYM    DATA     BYTE      P1
      00000080H   SFRSYM    DATA     BYTE      P0
      00010F68H   SYMBOL    XDATA    BYTE      dat
      00000473H   SYMBOL    EDATA    BYTE      i
      00010F69H   SYMBOL    XDATA    BYTE      cmd
      00000474H   SYMBOL    EDATA    BYTE      i
      00010E53H   SYMBOL    XDATA    WORD      hex
      00010E55H   SYMBOL    XDATA    ---       Print
      00000463H   SYMBOL    EDATA    BYTE      hexcheck
      00000464H   SYMBOL    EDATA    BYTE      TEMP
      00010F36H   SYMBOL    XDATA    BYTE      x
      00010F37H   SYMBOL    XDATA    BYTE      y
      00010F38H   SYMBOL    XDATA    BYTE      bmp_data
      00000475H   SYMBOL    EDATA    BYTE      y
      00010F39H   SYMBOL    XDATA    BYTE      x
      00010F01H   SYMBOL    XDATA    BYTE      x
      00010F02H   SYMBOL    XDATA    BYTE      y
      00010F03H   SYMBOL    XDATA    BYTE      data1
      00010F3AH   SYMBOL    XDATA    BYTE      x
      00010F3BH   SYMBOL    XDATA    BYTE      y
      00010D7AH   SYMBOL    XDATA    BYTE      x
      00010D7BH   SYMBOL    XDATA    BYTE      y
      00010D7CH   SYMBOL    XDATA    ---       ch
      00000476H   SYMBOL    EDATA    BYTE      c
      00010D80H   SYMBOL    XDATA    BYTE      i
L251 LINKER/LOCATER V4.66.93.0                                                        06/19/2025  15:56:37  PAGE 78


      00010D81H   SYMBOL    XDATA    BYTE      j
      00010C26H   SYMBOL    XDATA    BYTE      x
      00010C27H   SYMBOL    XDATA    BYTE      y
      00010C28H   SYMBOL    XDATA    WORD      num
      00010C2AH   SYMBOL    XDATA    ---       ch
      00010C31H   SYMBOL    XDATA    BYTE      x
      00010C32H   SYMBOL    XDATA    BYTE      y
      00010C33H   SYMBOL    XDATA    INT       num
      00010C35H   SYMBOL    XDATA    ---       ch
      000107ACH   SYMBOL    XDATA    WORD      x
      000107AEH   SYMBOL    XDATA    WORD      y
      000107B0H   SYMBOL    XDATA    LONG      dat
      000107B4H   SYMBOL    XDATA    BYTE      num
      000107B5H   SYMBOL    XDATA    ---       buff
      000107D7H   SYMBOL    XDATA    BYTE      length
      00010715H   SYMBOL    XDATA    WORD      x
      00010717H   SYMBOL    XDATA    WORD      y
      00010719H   SYMBOL    XDATA    DOUBLE    dat
      00010721H   SYMBOL    XDATA    BYTE      num
      00010722H   SYMBOL    XDATA    BYTE      pointnum
      00010723H   SYMBOL    XDATA    BYTE      length
      00010724H   SYMBOL    XDATA    ---       buff
      00010746H   SYMBOL    XDATA    CHAR      start
      00010747H   SYMBOL    XDATA    CHAR      end
      00010748H   SYMBOL    XDATA    CHAR      point
      00010B26H   SYMBOL    XDATA    WORD      high
      00010B28H   SYMBOL    XDATA    WORD      width
      00010B2AH   SYMBOL    XDATA    ---       p
      00010B2EH   SYMBOL    XDATA    BYTE      value
      00010B2FH   SYMBOL    XDATA    WORD      i
      00000465H   SYMBOL    EDATA    WORD      j
      00010B31H   SYMBOL    XDATA    WORD      temp
      00010B33H   SYMBOL    XDATA    WORD      temp1
      00010B35H   SYMBOL    XDATA    BYTE      dat
      00010B7FH   SYMBOL    XDATA    BYTE      x
      00010B80H   SYMBOL    XDATA    BYTE      y
      00010B81H   SYMBOL    XDATA    BYTE      size
      00010B82H   SYMBOL    XDATA    ---       p
      00010B86H   SYMBOL    XDATA    BYTE      len
      00010B87H   SYMBOL    XDATA    WORD      i
      00010B89H   SYMBOL    XDATA    WORD      j
      00010B8BH   SYMBOL    XDATA    WORD      k

      00FFA88AH   BLOCK     CODE     ---       LVL=0
      00010F6AH   SYMBOL    XDATA    BYTE      dat
      00FFA88AH   LINE      CODE     ---       #506
      00FFA88EH   LINE      CODE     ---       #508
      00FFA891H   LINE      CODE     ---       #509
      00FFA894H   LINE      CODE     ---       #510
      00FFA89BH   LINE      CODE     ---       #511
      00FFA89EH   LINE      CODE     ---       #514
      ---         BLOCKEND  ---      ---       LVL=0

      00FFA875H   BLOCK     CODE     ---       LVL=0
      00010F6BH   SYMBOL    XDATA    BYTE      cmd
      00FFA875H   LINE      CODE     ---       #548
      00FFA879H   LINE      CODE     ---       #550
      00FFA87CH   LINE      CODE     ---       #551
      00FFA87FH   LINE      CODE     ---       #552
      00FFA886H   LINE      CODE     ---       #553
      00FFA889H   LINE      CODE     ---       #554
      ---         BLOCKEND  ---      ---       LVL=0

      00FF9D3CH   BLOCK     CODE     ---       LVL=0
      00010E59H   SYMBOL    XDATA    WORD      hex
L251 LINKER/LOCATER V4.66.93.0                                                        06/19/2025  15:56:37  PAGE 79


      00010E5BH   SYMBOL    XDATA    ---       Print
      00FF9D4CH   BLOCK     CODE     NEAR LAB  LVL=1
      00000467H   SYMBOL    EDATA    BYTE      hexcheck
      00000468H   SYMBOL    EDATA    BYTE      TEMP
      ---         BLOCKEND  ---      ---       LVL=1
      00FF9D3CH   LINE      CODE     ---       #563
      00FF9D4CH   LINE      CODE     ---       #564
      00FF9D4CH   LINE      CODE     ---       #567
      00FF9D52H   LINE      CODE     ---       #568
      00FF9D68H   LINE      CODE     ---       #569
      00FF9D6AH   LINE      CODE     ---       #571
      00FF9D76H   LINE      CODE     ---       #572
      00FF9D88H   LINE      CODE     ---       #573
      00FF9D97H   LINE      CODE     ---       #574
      00FF9DB8H   LINE      CODE     ---       #575
      00FF9DC1H   LINE      CODE     ---       #577
      ---         BLOCKEND  ---      ---       LVL=0

      00FF95A0H   BLOCK     CODE     ---       LVL=0
      00FF95A0H   LINE      CODE     ---       #586
      00FF95A0H   LINE      CODE     ---       #589
      00FF95A3H   LINE      CODE     ---       #591
      00FF95C7H   LINE      CODE     ---       #593
      00FF95CAH   LINE      CODE     ---       #594
      00FF95D1H   LINE      CODE     ---       #595
      00FF95D4H   LINE      CODE     ---       #597
      00FF95D9H   LINE      CODE     ---       #598
      00FF95DDH   LINE      CODE     ---       #599
      00FF95E2H   LINE      CODE     ---       #600
      00FF95E7H   LINE      CODE     ---       #601
      00FF95ECH   LINE      CODE     ---       #602
      00FF95F1H   LINE      CODE     ---       #605
      00FF95F6H   LINE      CODE     ---       #606
      00FF95FBH   LINE      CODE     ---       #612
      00FF9600H   LINE      CODE     ---       #613
      00FF9605H   LINE      CODE     ---       #614
      00FF960AH   LINE      CODE     ---       #615
      00FF960FH   LINE      CODE     ---       #616
      00FF9613H   LINE      CODE     ---       #617
      00FF9618H   LINE      CODE     ---       #618
      00FF961DH   LINE      CODE     ---       #619
      00FF9622H   LINE      CODE     ---       #620
      00FF9627H   LINE      CODE     ---       #621
      00FF962CH   LINE      CODE     ---       #622
      00FF9631H   LINE      CODE     ---       #623
      00FF9636H   LINE      CODE     ---       #624
      00FF963BH   LINE      CODE     ---       #625
      00FF9640H   LINE      CODE     ---       #626
      00FF9645H   LINE      CODE     ---       #627
      00FF964AH   LINE      CODE     ---       #628
      00FF964FH   LINE      CODE     ---       #629
      00FF9654H   LINE      CODE     ---       #630
      00FF9659H   LINE      CODE     ---       #631
      00FF965EH   LINE      CODE     ---       #632
      00FF9662H   LINE      CODE     ---       #633
      00FF9668H   LINE      CODE     ---       #634
      ---         BLOCKEND  ---      ---       LVL=0

      00FFA5A7H   BLOCK     CODE     ---       LVL=0
      00010F3CH   SYMBOL    XDATA    BYTE      x
      00010F3DH   SYMBOL    XDATA    BYTE      y
      00FFA5A7H   LINE      CODE     ---       #644
      00FFA5B1H   LINE      CODE     ---       #648
      00FFA5BEH   LINE      CODE     ---       #649
      00FFA5D6H   LINE      CODE     ---       #650
L251 LINKER/LOCATER V4.66.93.0                                                        06/19/2025  15:56:37  PAGE 80


      00FFA5E3H   LINE      CODE     ---       #651
      ---         BLOCKEND  ---      ---       LVL=0

      00FFA0AAH   BLOCK     CODE     ---       LVL=0
      00010F3EH   SYMBOL    XDATA    BYTE      bmp_data
      00FFA0AEH   BLOCK     CODE     NEAR LAB  LVL=1
      00000477H   SYMBOL    EDATA    BYTE      y
      00010F3FH   SYMBOL    XDATA    BYTE      x
      ---         BLOCKEND  ---      ---       LVL=1
      00FFA0AAH   LINE      CODE     ---       #660
      00FFA0AEH   LINE      CODE     ---       #661
      00FFA0AEH   LINE      CODE     ---       #664
      00FFA0B5H   LINE      CODE     ---       #666
      00FFA0C0H   LINE      CODE     ---       #667
      00FFA0C5H   LINE      CODE     ---       #668
      00FFA0CAH   LINE      CODE     ---       #669
      00FFA0EFH   LINE      CODE     ---       #670
      00FFA106H   LINE      CODE     ---       #671
      ---         BLOCKEND  ---      ---       LVL=0
      00010F04H   SYMBOL    XDATA    BYTE      x
      00010F05H   SYMBOL    XDATA    BYTE      y
      00010F06H   SYMBOL    XDATA    BYTE      data1
      00010F40H   SYMBOL    XDATA    BYTE      x
      00010F41H   SYMBOL    XDATA    BYTE      y

      00FF9249H   BLOCK     CODE     ---       LVL=0
      00010D82H   SYMBOL    XDATA    BYTE      x
      00010D83H   SYMBOL    XDATA    BYTE      y
      00010D84H   SYMBOL    XDATA    ---       ch
      00FF925DH   BLOCK     CODE     NEAR LAB  LVL=1
      00000478H   SYMBOL    EDATA    BYTE      c
      00010D88H   SYMBOL    XDATA    BYTE      i
      00010D89H   SYMBOL    XDATA    BYTE      j
      ---         BLOCKEND  ---      ---       LVL=1
      00FF9249H   LINE      CODE     ---       #720
      00FF925DH   LINE      CODE     ---       #721
      00FF925DH   LINE      CODE     ---       #722
      00FF926CH   LINE      CODE     ---       #723
      00FF926FH   LINE      CODE     ---       #725
      00FF9290H   LINE      CODE     ---       #726
      00FF92ACH   LINE      CODE     ---       #727
      00FF92B9H   LINE      CODE     ---       #728
      00FF92F9H   LINE      CODE     ---       #729
      00FF9303H   LINE      CODE     ---       #730
      00FF930EH   LINE      CODE     ---       #731
      00FF932BH   LINE      CODE     ---       #732
      ---         BLOCKEND  ---      ---       LVL=0

      00FFA657H   BLOCK     CODE     ---       LVL=0
      00010C3CH   SYMBOL    XDATA    BYTE      x
      00010C3DH   SYMBOL    XDATA    BYTE      y
      00010C3EH   SYMBOL    XDATA    WORD      num
      00FFA667H   BLOCK     CODE     NEAR LAB  LVL=1
      00010C40H   SYMBOL    XDATA    ---       ch
      ---         BLOCKEND  ---      ---       LVL=1
      00FFA657H   LINE      CODE     ---       #745
      00FFA667H   LINE      CODE     ---       #746
      00FFA667H   LINE      CODE     ---       #749
      00FFA678H   LINE      CODE     ---       #751
      00FFA68DH   LINE      CODE     ---       #753
      ---         BLOCKEND  ---      ---       LVL=0

      00FF9CB1H   BLOCK     CODE     ---       LVL=0
      00010C47H   SYMBOL    XDATA    BYTE      x
      00010C48H   SYMBOL    XDATA    BYTE      y
L251 LINKER/LOCATER V4.66.93.0                                                        06/19/2025  15:56:37  PAGE 81


      00010C49H   SYMBOL    XDATA    INT       num
      00FF9CC1H   BLOCK     CODE     NEAR LAB  LVL=1
      00010C4BH   SYMBOL    XDATA    ---       ch
      ---         BLOCKEND  ---      ---       LVL=1
      00FF9CB1H   LINE      CODE     ---       #764
      00FF9CC1H   LINE      CODE     ---       #765
      00FF9CC1H   LINE      CODE     ---       #767
      00FF9CF6H   LINE      CODE     ---       #768
      00FF9D0BH   LINE      CODE     ---       #769
      00FF9D15H   LINE      CODE     ---       #771
      00FF9D26H   LINE      CODE     ---       #772
      00FF9D3BH   LINE      CODE     ---       #773
      ---         BLOCKEND  ---      ---       LVL=0
      000107D8H   SYMBOL    XDATA    WORD      x
      000107DAH   SYMBOL    XDATA    WORD      y
      000107DCH   SYMBOL    XDATA    LONG      dat
      000107E0H   SYMBOL    XDATA    BYTE      num
      000107E1H   SYMBOL    XDATA    ---       buff
      00010803H   SYMBOL    XDATA    BYTE      length

      00FF81E2H   BLOCK     CODE     ---       LVL=0
      00010749H   SYMBOL    XDATA    WORD      x
      0001074BH   SYMBOL    XDATA    WORD      y
      0001074DH   SYMBOL    XDATA    DOUBLE    dat
      00010755H   SYMBOL    XDATA    BYTE      num
      00010756H   SYMBOL    XDATA    BYTE      pointnum
      00FF81F8H   BLOCK     CODE     NEAR LAB  LVL=1
      00010757H   SYMBOL    XDATA    BYTE      length
      00010758H   SYMBOL    XDATA    ---       buff
      0001077AH   SYMBOL    XDATA    CHAR      start
      0001077BH   SYMBOL    XDATA    CHAR      end
      0001077CH   SYMBOL    XDATA    CHAR      point
      ---         BLOCKEND  ---      ---       LVL=1
      00FF81E2H   LINE      CODE     ---       #826
      00FF81F8H   LINE      CODE     ---       #827
      00FF81F8H   LINE      CODE     ---       #832
      00FF820AH   LINE      CODE     ---       #833
      00FF821CH   LINE      CODE     ---       #835
      00FF8276H   LINE      CODE     ---       #838
      00FF82B3H   LINE      CODE     ---       #839
      00FF82BEH   LINE      CODE     ---       #840
      00FF82BEH   LINE      CODE     ---       #841
      00FF82CEH   LINE      CODE     ---       #842
      00FF82E6H   LINE      CODE     ---       #843
      00FF82FEH   LINE      CODE     ---       #844
      00FF8300H   LINE      CODE     ---       #846
      00FF8318H   LINE      CODE     ---       #847
      00FF8323H   LINE      CODE     ---       #848
      00FF832EH   LINE      CODE     ---       #849
      00FF8339H   LINE      CODE     ---       #851
      00FF836EH   LINE      CODE     ---       #852
      00FF8386H   LINE      CODE     ---       #854
      00FF839DH   LINE      CODE     ---       #856
      00FF83B4H   LINE      CODE     ---       #857
      ---         BLOCKEND  ---      ---       LVL=0
      00010B36H   SYMBOL    XDATA    WORD      high
      00010B38H   SYMBOL    XDATA    WORD      width
      00010B3AH   SYMBOL    XDATA    ---       p
      00010B3EH   SYMBOL    XDATA    BYTE      value
      00000469H   SYMBOL    EDATA    WORD      i
      00010B3FH   SYMBOL    XDATA    WORD      j
      00010B41H   SYMBOL    XDATA    WORD      temp
      00010B43H   SYMBOL    XDATA    WORD      temp1
      00010B45H   SYMBOL    XDATA    BYTE      dat
      00010B8DH   SYMBOL    XDATA    BYTE      x
L251 LINKER/LOCATER V4.66.93.0                                                        06/19/2025  15:56:37  PAGE 82


      00010B8EH   SYMBOL    XDATA    BYTE      y
      00010B8FH   SYMBOL    XDATA    BYTE      size
      00010B90H   SYMBOL    XDATA    ---       p
      00010B94H   SYMBOL    XDATA    BYTE      len
      00010B95H   SYMBOL    XDATA    WORD      i
      00010B97H   SYMBOL    XDATA    WORD      j
      00010B99H   SYMBOL    XDATA    WORD      k

      ---         MODULE    ---      ---       SEEKFREE_PRINTF
      00FF83B5H   PUBLIC    CODE     ---       number_conversion_ascii
      00FF4FFFH   PUBLIC    CODE     ---       zf_sprintf
      00FF9068H   PUBLIC    CODE     ---       printf_reverse_order
      00010A7CH   PUBLIC    XDATA    BYTE      ?number_conversion_ascii?BYTE
      000105C3H   PUBLIC    XDATA    BYTE      ?zf_sprintf?BYTE
      000000D0H   SFRSYM    DATA     BYTE      PSW
      0000009DH   SFRSYM    DATA     BYTE      IRCBAND
      00000097H   SFRSYM    DATA     BYTE      AUXR2
      000000EFH   SFRSYM    DATA     BYTE      AUXINTIF
      000000FDH   SFRSYM    DATA     BYTE      S4CON
      000000ACH   SFRSYM    DATA     BYTE      S3CON
      0000009AH   SFRSYM    DATA     BYTE      S2CON
      000000B7H   SFRSYM    DATA     BYTE      IPH
      000000CDH   SFRSYM    DATA     BYTE      SPSTAT
      000000DDH   SFRSYM    DATA     BYTE      T4T3M
      000000C1H   SFRSYM    DATA     BYTE      WDT_CONTR
      000000DFH   SFRSYM    DATA     BYTE      IP3
      000000F4H   SFRSYM    DATA     BYTE      USBCON
      000000B5H   SFRSYM    DATA     BYTE      IP2
      000000FFH   SFRSYM    DATA     BYTE      RSTCFG
      000000F9H   SFRSYM    DATA     BYTE      LINICR
      0000008EH   SFRSYM    DATA     BYTE      AUXR
      000000AFH   SFRSYM    DATA     BYTE      IE2
      00000088H   SFRSYM    DATA     BYTE      TCON
      00000098H   SFRSYM    DATA     BYTE      SCON
      000000F1H   SFRSYM    DATA     BYTE      CANICR
      00000087H   SFRSYM    DATA     BYTE      PCON
      000000BCH   SFRSYM    DATA     BYTE      ADC_CONTR
      000000E7H   SFRSYM    DATA     BYTE      CMPCR2
      000000E6H   SFRSYM    DATA     BYTE      CMPCR1
      000000B8H   SFRSYM    DATA     BYTE      IP
      0000008FH   SFRSYM    DATA     BYTE      INTCLKO
      000000EEH   SFRSYM    DATA     BYTE      IP3H
      000000B6H   SFRSYM    DATA     BYTE      IP2H
      000000A8H   SFRSYM    DATA     BYTE      IE
      000000BBH   SFRSYM    DATA     BYTE      P_SW3
      000000BAH   SFRSYM    DATA     BYTE      P_SW2
      000000A2H   SFRSYM    DATA     BYTE      P_SW1
      000000CEH   SFRSYM    DATA     BYTE      SPCTL
      000000F8H   SFRSYM    DATA     BYTE      P7
      000000E8H   SFRSYM    DATA     BYTE      P6
      000000C8H   SFRSYM    DATA     BYTE      P5
      000000C0H   SFRSYM    DATA     BYTE      P4
      000000B0H   SFRSYM    DATA     BYTE      P3
      000000A0H   SFRSYM    DATA     BYTE      P2
      00000090H   SFRSYM    DATA     BYTE      P1
      00000080H   SFRSYM    DATA     BYTE      P0

      00FF83B5H   BLOCK     CODE     ---       LVL=0
      00010A7CH   SYMBOL    XDATA    DWORD     dat
      00010A80H   SYMBOL    XDATA    ---       p
      00010A84H   SYMBOL    XDATA    BYTE      neg_type
      00010A85H   SYMBOL    XDATA    BYTE      radix
      00FF83CDH   BLOCK     CODE     NEAR LAB  LVL=1
      00010A86H   SYMBOL    XDATA    LONG      neg_dat
      00010A8AH   SYMBOL    XDATA    DWORD     pos_dat
L251 LINKER/LOCATER V4.66.93.0                                                        06/19/2025  15:56:37  PAGE 83


      00010A8EH   SYMBOL    XDATA    BYTE      temp_data
      00010A8FH   SYMBOL    XDATA    BYTE      valid_num
      ---         BLOCKEND  ---      ---       LVL=1
      00FF83B5H   LINE      CODE     ---       #29
      00FF83CDH   LINE      CODE     ---       #30
      00FF83CDH   LINE      CODE     ---       #33
      00FF83D2H   LINE      CODE     ---       #34
      00FF83D7H   LINE      CODE     ---       #36
      00FF83E3H   LINE      CODE     ---       #38
      00FF83F7H   LINE      CODE     ---       #39
      00FF8425H   LINE      CODE     ---       #40
      00FF8425H   LINE      CODE     ---       #42
      00FF844DH   LINE      CODE     ---       #43
      00FF8469H   LINE      CODE     ---       #44
      00FF8474H   LINE      CODE     ---       #46
      00FF8482H   LINE      CODE     ---       #47
      00FF8495H   LINE      CODE     ---       #48
      00FF8497H   LINE      CODE     ---       #49
      00FF849AH   LINE      CODE     ---       #52
      00FF84AEH   LINE      CODE     ---       #53
      00FF84AEH   LINE      CODE     ---       #55
      00FF84C9H   LINE      CODE     ---       #56
      00FF84E1H   LINE      CODE     ---       #57
      00FF84EBH   LINE      CODE     ---       #59
      00FF84FCH   LINE      CODE     ---       #61
      00FF8518H   LINE      CODE     ---       #62
      00FF8523H   LINE      CODE     ---       #64
      00FF8531H   LINE      CODE     ---       #65
      00FF8544H   LINE      CODE     ---       #66
      00FF8547H   LINE      CODE     ---       #67
      00FF8547H   LINE      CODE     ---       #68
      00FF854BH   LINE      CODE     ---       #69
      ---         BLOCKEND  ---      ---       LVL=0

      00FF9068H   BLOCK     CODE     ---       LVL=0
      00010BC4H   SYMBOL    XDATA    ---       d_buff
      00010BC8H   SYMBOL    XDATA    DWORD     len
      00FF907CH   BLOCK     CODE     NEAR LAB  LVL=1
      00010BCCH   SYMBOL    XDATA    DWORD     i
      00010BD0H   SYMBOL    XDATA    CHAR      temp_data
      ---         BLOCKEND  ---      ---       LVL=1
      00FF9068H   LINE      CODE     ---       #71
      00FF907CH   LINE      CODE     ---       #72
      00FF907CH   LINE      CODE     ---       #75
      00FF908BH   LINE      CODE     ---       #77
      00FF90BCH   LINE      CODE     ---       #78
      00FF9104H   LINE      CODE     ---       #79
      00FF9123H   LINE      CODE     ---       #80
      00FF9160H   LINE      CODE     ---       #81
      ---         BLOCKEND  ---      ---       LVL=0

      00FF4FFFH   BLOCK     CODE     ---       LVL=0
      000105C3H   SYMBOL    XDATA    ---       buff
      000105C7H   SYMBOL    XDATA    ---       format
      00FF5013H   BLOCK     CODE     NEAR LAB  LVL=1
      000105CBH   SYMBOL    XDATA    DWORD     buff_len
      000105CFH   SYMBOL    XDATA    ---       arg
      00FF5034H   BLOCK     CODE     NEAR LAB  LVL=2
      000105D3H   SYMBOL    XDATA    CHAR      ret
      00FF5178H   BLOCK     CODE     NEAR LAB  LVL=3
      000105D4H   SYMBOL    XDATA    CHAR      ch
      ---         BLOCKEND  ---      ---       LVL=3
      00FF51DEH   BLOCK     CODE     NEAR LAB  LVL=3
      000105D4H   SYMBOL    XDATA    ---       vstr
      000105F5H   SYMBOL    XDATA    LONG      ival
L251 LINKER/LOCATER V4.66.93.0                                                        06/19/2025  15:56:37  PAGE 84


      000105F9H   SYMBOL    XDATA    BYTE      vlen
      ---         BLOCKEND  ---      ---       LVL=3
      00FF52C9H   BLOCK     CODE     NEAR LAB  LVL=3
      000105D4H   SYMBOL    XDATA    ---       vstr
      000105F5H   SYMBOL    XDATA    DOUBLE    ival
      000105FDH   SYMBOL    XDATA    BYTE      vlen
      ---         BLOCKEND  ---      ---       LVL=3
      00FF555EH   BLOCK     CODE     NEAR LAB  LVL=3
      000105D4H   SYMBOL    XDATA    ---       vstr
      000105F5H   SYMBOL    XDATA    DWORD     ival
      000105F9H   SYMBOL    XDATA    BYTE      vlen
      ---         BLOCKEND  ---      ---       LVL=3
      00FF5615H   BLOCK     CODE     NEAR LAB  LVL=3
      000105D4H   SYMBOL    XDATA    ---       vstr
      000105F5H   SYMBOL    XDATA    DWORD     ival
      000105F9H   SYMBOL    XDATA    BYTE      vlen
      ---         BLOCKEND  ---      ---       LVL=3
      00FF56CCH   BLOCK     CODE     NEAR LAB  LVL=3
      000105D4H   SYMBOL    XDATA    ---       vstr
      000105F5H   SYMBOL    XDATA    DWORD     ival
      000105F9H   SYMBOL    XDATA    BYTE      vlen
      ---         BLOCKEND  ---      ---       LVL=3
      00FF5783H   BLOCK     CODE     NEAR LAB  LVL=3
      000105D4H   SYMBOL    XDATA    ---       pc
      ---         BLOCKEND  ---      ---       LVL=3
      00FF581FH   BLOCK     CODE     NEAR LAB  LVL=3
      000105D4H   SYMBOL    XDATA    ---       vstr
      000105F5H   SYMBOL    XDATA    DWORD     ival
      ---         BLOCKEND  ---      ---       LVL=3
      ---         BLOCKEND  ---      ---       LVL=2
      ---         BLOCKEND  ---      ---       LVL=1
      00FF4FFFH   LINE      CODE     ---       #216
      00FF5013H   LINE      CODE     ---       #217
      00FF5013H   LINE      CODE     ---       #218
      00FF501FH   LINE      CODE     ---       #220
      00FF5031H   LINE      CODE     ---       #222
      00FF5034H   LINE      CODE     ---       #223
      00FF5034H   LINE      CODE     ---       #224
      00FF5045H   LINE      CODE     ---       #225
      00FF5051H   LINE      CODE     ---       #227
      00FF5175H   LINE      CODE     ---       #229
      00FF5175H   LINE      CODE     ---       #233
      00FF5178H   LINE      CODE     ---       #236
      00FF5178H   LINE      CODE     ---       #237
      00FF5178H   LINE      CODE     ---       #238
      00FF51A0H   LINE      CODE     ---       #239
      00FF51B1H   LINE      CODE     ---       #240
      00FF51C4H   LINE      CODE     ---       #241
      00FF51DBH   LINE      CODE     ---       #243
      00FF51DEH   LINE      CODE     ---       #246
      00FF51DEH   LINE      CODE     ---       #247
      00FF51DEH   LINE      CODE     ---       #248
      00FF51DEH   LINE      CODE     ---       #250
      00FF520CH   LINE      CODE     ---       #251
      00FF522DH   LINE      CODE     ---       #253
      00FF523DH   LINE      CODE     ---       #255
      00FF5255H   LINE      CODE     ---       #256
      00FF5260H   LINE      CODE     ---       #257
      00FF5260H   LINE      CODE     ---       #258
      00FF5273H   LINE      CODE     ---       #259
      00FF5292H   LINE      CODE     ---       #260
      00FF52ABH   LINE      CODE     ---       #261
      00FF52C6H   LINE      CODE     ---       #264
      00FF52C9H   LINE      CODE     ---       #266
      00FF52C9H   LINE      CODE     ---       #267
L251 LINKER/LOCATER V4.66.93.0                                                        06/19/2025  15:56:37  PAGE 85


      00FF52C9H   LINE      CODE     ---       #268
      00FF52C9H   LINE      CODE     ---       #270
      00FF5309H   LINE      CODE     ---       #271
      00FF5335H   LINE      CODE     ---       #273
      00FF5350H   LINE      CODE     ---       #275
      00FF5368H   LINE      CODE     ---       #276
      00FF5373H   LINE      CODE     ---       #277
      00FF5373H   LINE      CODE     ---       #278
      00FF5386H   LINE      CODE     ---       #279
      00FF53A5H   LINE      CODE     ---       #280
      00FF53BEH   LINE      CODE     ---       #281
      00FF53D9H   LINE      CODE     ---       #283
      00FF542BH   LINE      CODE     ---       #284
      00FF5449H   LINE      CODE     ---       #286
      00FF5475H   LINE      CODE     ---       #287
      00FF5477H   LINE      CODE     ---       #290
      00FF549BH   LINE      CODE     ---       #291
      00FF54A1H   LINE      CODE     ---       #292
      00FF54A1H   LINE      CODE     ---       #294
      00FF54A3H   LINE      CODE     ---       #296
      00FF54BBH   LINE      CODE     ---       #297
      00FF54C6H   LINE      CODE     ---       #298
      00FF54D2H   LINE      CODE     ---       #300
      00FF54EAH   LINE      CODE     ---       #301
      00FF54F5H   LINE      CODE     ---       #303
      00FF5508H   LINE      CODE     ---       #304
      00FF5527H   LINE      CODE     ---       #305
      00FF5540H   LINE      CODE     ---       #306
      00FF555BH   LINE      CODE     ---       #308
      00FF555EH   LINE      CODE     ---       #311
      00FF555EH   LINE      CODE     ---       #312
      00FF555EH   LINE      CODE     ---       #314
      00FF558CH   LINE      CODE     ---       #315
      00FF55ACH   LINE      CODE     ---       #317
      00FF55BFH   LINE      CODE     ---       #318
      00FF55DEH   LINE      CODE     ---       #319
      00FF55F7H   LINE      CODE     ---       #320
      00FF5612H   LINE      CODE     ---       #321
      00FF5615H   LINE      CODE     ---       #323
      00FF5615H   LINE      CODE     ---       #324
      00FF5615H   LINE      CODE     ---       #326
      00FF5643H   LINE      CODE     ---       #327
      00FF5663H   LINE      CODE     ---       #329
      00FF5676H   LINE      CODE     ---       #330
      00FF5695H   LINE      CODE     ---       #331
      00FF56AEH   LINE      CODE     ---       #332
      00FF56C9H   LINE      CODE     ---       #334
      00FF56CCH   LINE      CODE     ---       #336
      00FF56CCH   LINE      CODE     ---       #337
      00FF56CCH   LINE      CODE     ---       #338
      00FF56CCH   LINE      CODE     ---       #340
      00FF56FAH   LINE      CODE     ---       #341
      00FF571AH   LINE      CODE     ---       #343
      00FF572DH   LINE      CODE     ---       #344
      00FF574CH   LINE      CODE     ---       #345
      00FF5765H   LINE      CODE     ---       #346
      00FF5780H   LINE      CODE     ---       #347
      00FF5783H   LINE      CODE     ---       #350
      00FF5783H   LINE      CODE     ---       #351
      00FF5783H   LINE      CODE     ---       #352
      00FF57B1H   LINE      CODE     ---       #353
      00FF57B3H   LINE      CODE     ---       #355
      00FF57CDH   LINE      CODE     ---       #356
      00FF57E0H   LINE      CODE     ---       #357
      00FF57F7H   LINE      CODE     ---       #358
L251 LINKER/LOCATER V4.66.93.0                                                        06/19/2025  15:56:37  PAGE 86


      00FF580AH   LINE      CODE     ---       #359
      00FF581CH   LINE      CODE     ---       #360
      00FF581FH   LINE      CODE     ---       #362
      00FF581FH   LINE      CODE     ---       #363
      00FF581FH   LINE      CODE     ---       #365
      00FF584DH   LINE      CODE     ---       #367
      00FF5869H   LINE      CODE     ---       #369
      00FF5878H   LINE      CODE     ---       #370
      00FF5895H   LINE      CODE     ---       #371
      00FF58AAH   LINE      CODE     ---       #372
      00FF58C1H   LINE      CODE     ---       #374
      00FF58C4H   LINE      CODE     ---       #377
      00FF58C4H   LINE      CODE     ---       #379
      00FF58D3H   LINE      CODE     ---       #380
      00FF58E6H   LINE      CODE     ---       #381
      00FF58FDH   LINE      CODE     ---       #382
      00FF58FFH   LINE      CODE     ---       #384
      00FF58FFH   LINE      CODE     ---       #385
      00FF58FFH   LINE      CODE     ---       #386
      00FF58FFH   LINE      CODE     ---       #389
      00FF5919H   LINE      CODE     ---       #390
      00FF592CH   LINE      CODE     ---       #391
      00FF5943H   LINE      CODE     ---       #392
      00FF5943H   LINE      CODE     ---       #393
      00FF5956H   LINE      CODE     ---       #394
      00FF596BH   LINE      CODE     ---       #397
      00FF5975H   LINE      CODE     ---       #398
      ---         BLOCKEND  ---      ---       LVL=0

      ---         MODULE    ---      ---       SEEKFREE_TSL1401
      00FF9DC2H   PUBLIC    CODE     ---       ccd_collect
      00000021H   PUBLIC    EDATA    BYTE      tsl1401_finish_flag
      00000022H   PUBLIC    EDATA    ---       ccd_data_ch1
      00000122H   PUBLIC    EDATA    ---       ccd_data_ch2
      000000D0H   SFRSYM    DATA     BYTE      PSW
      0000009DH   SFRSYM    DATA     BYTE      IRCBAND
      00000097H   SFRSYM    DATA     BYTE      AUXR2
      000000EFH   SFRSYM    DATA     BYTE      AUXINTIF
      000000FDH   SFRSYM    DATA     BYTE      S4CON
      000000ACH   SFRSYM    DATA     BYTE      S3CON
      0000009AH   SFRSYM    DATA     BYTE      S2CON
      000000B7H   SFRSYM    DATA     BYTE      IPH
      000000CDH   SFRSYM    DATA     BYTE      SPSTAT
      000000DDH   SFRSYM    DATA     BYTE      T4T3M
      000000C1H   SFRSYM    DATA     BYTE      WDT_CONTR
      000000DFH   SFRSYM    DATA     BYTE      IP3
      000000F4H   SFRSYM    DATA     BYTE      USBCON
      000000B5H   SFRSYM    DATA     BYTE      IP2
      000000FFH   SFRSYM    DATA     BYTE      RSTCFG
      000000F9H   SFRSYM    DATA     BYTE      LINICR
      0000008EH   SFRSYM    DATA     BYTE      AUXR
      000000AFH   SFRSYM    DATA     BYTE      IE2
      000000B0H.7 SFRSYM    DATA     BIT       P37
      000000B0H.6 SFRSYM    DATA     BIT       P36
      00000088H   SFRSYM    DATA     BYTE      TCON
      00000098H   SFRSYM    DATA     BYTE      SCON
      000000F1H   SFRSYM    DATA     BYTE      CANICR
      00000087H   SFRSYM    DATA     BYTE      PCON
      000000BCH   SFRSYM    DATA     BYTE      ADC_CONTR
      000000E7H   SFRSYM    DATA     BYTE      CMPCR2
      000000E6H   SFRSYM    DATA     BYTE      CMPCR1
      000000B8H   SFRSYM    DATA     BYTE      IP
      0000008FH   SFRSYM    DATA     BYTE      INTCLKO
      000000EEH   SFRSYM    DATA     BYTE      IP3H
      000000B6H   SFRSYM    DATA     BYTE      IP2H
L251 LINKER/LOCATER V4.66.93.0                                                        06/19/2025  15:56:37  PAGE 87


      000000A8H   SFRSYM    DATA     BYTE      IE
      000000BBH   SFRSYM    DATA     BYTE      P_SW3
      000000BAH   SFRSYM    DATA     BYTE      P_SW2
      000000A2H   SFRSYM    DATA     BYTE      P_SW1
      000000CEH   SFRSYM    DATA     BYTE      SPCTL
      000000F8H   SFRSYM    DATA     BYTE      P7
      000000E8H   SFRSYM    DATA     BYTE      P6
      000000C8H   SFRSYM    DATA     BYTE      P5
      000000C0H   SFRSYM    DATA     BYTE      P4
      000000B0H   SFRSYM    DATA     BYTE      P3
      000000A0H   SFRSYM    DATA     BYTE      P2
      00000090H   SFRSYM    DATA     BYTE      P1
      00000080H   SFRSYM    DATA     BYTE      P0
      00010DB9H   SYMBOL    XDATA    INT       uart_n
      00010DBBH   SYMBOL    XDATA    ---       dat
      00010DBFH   SYMBOL    XDATA    BYTE      i

      00FF9DC2H   BLOCK     CODE     ---       LVL=0
      00010F6CH   SYMBOL    XDATA    BYTE      i
      00FF9DC2H   LINE      CODE     ---       #86
      00FF9DC2H   LINE      CODE     ---       #87
      00FF9DC2H   LINE      CODE     ---       #88
      00FF9DC7H   LINE      CODE     ---       #90
      00FF9DCAH   LINE      CODE     ---       #91
      00FF9DCDH   LINE      CODE     ---       #92
      00FF9DD0H   LINE      CODE     ---       #93
      00FF9DD3H   LINE      CODE     ---       #94
      00FF9DD6H   LINE      CODE     ---       #95
      00FF9DD9H   LINE      CODE     ---       #97
      00FF9DE0H   LINE      CODE     ---       #99
      00FF9DE3H   LINE      CODE     ---       #100
      00FF9E01H   LINE      CODE     ---       #101
      00FF9E1FH   LINE      CODE     ---       #102
      00FF9E22H   LINE      CODE     ---       #103
      00FF9E39H   LINE      CODE     ---       #104
      00FF9E3FH   LINE      CODE     ---       #105
      ---         BLOCKEND  ---      ---       LVL=0

      ---         MODULE    ---      ---       SEEKFREE_WIRELESS
      00FFA7FCH   PUBLIC    CODE     ---       wireless_uart_callback
      00FF9F87H   PUBLIC    CODE     ---       wireless_uart_init
      00FF9669H   PUBLIC    CODE     ---       Test_Wireless_Oscilloscope
      00FFA5E4H   PUBLIC    CODE     ---       seekfree_assistant_transfer_callback
      000000D0H   SFRSYM    DATA     BYTE      PSW
      0000009DH   SFRSYM    DATA     BYTE      IRCBAND
      00000097H   SFRSYM    DATA     BYTE      AUXR2
      000000EFH   SFRSYM    DATA     BYTE      AUXINTIF
      000000FDH   SFRSYM    DATA     BYTE      S4CON
      000000ACH   SFRSYM    DATA     BYTE      S3CON
      0000009AH   SFRSYM    DATA     BYTE      S2CON
      000000B7H   SFRSYM    DATA     BYTE      IPH
      000000CDH   SFRSYM    DATA     BYTE      SPSTAT
      000000DDH   SFRSYM    DATA     BYTE      T4T3M
      000000C1H   SFRSYM    DATA     BYTE      WDT_CONTR
      000000DFH   SFRSYM    DATA     BYTE      IP3
      000000F4H   SFRSYM    DATA     BYTE      USBCON
      000000B5H   SFRSYM    DATA     BYTE      IP2
      000000FFH   SFRSYM    DATA     BYTE      RSTCFG
      000000F9H   SFRSYM    DATA     BYTE      LINICR
      0000008EH   SFRSYM    DATA     BYTE      AUXR
      000000AFH   SFRSYM    DATA     BYTE      IE2
      00000080H.7 SFRSYM    DATA     BIT       P07
      00000088H   SFRSYM    DATA     BYTE      TCON
      00000098H   SFRSYM    DATA     BYTE      SCON
      000000F1H   SFRSYM    DATA     BYTE      CANICR
L251 LINKER/LOCATER V4.66.93.0                                                        06/19/2025  15:56:37  PAGE 88


      00000087H   SFRSYM    DATA     BYTE      PCON
      000000BCH   SFRSYM    DATA     BYTE      ADC_CONTR
      000000E7H   SFRSYM    DATA     BYTE      CMPCR2
      000000E6H   SFRSYM    DATA     BYTE      CMPCR1
      000000B8H   SFRSYM    DATA     BYTE      IP
      0000008FH   SFRSYM    DATA     BYTE      INTCLKO
      000000EEH   SFRSYM    DATA     BYTE      IP3H
      000000B6H   SFRSYM    DATA     BYTE      IP2H
      000000A8H   SFRSYM    DATA     BYTE      IE
      000000BBH   SFRSYM    DATA     BYTE      P_SW3
      000000BAH   SFRSYM    DATA     BYTE      P_SW2
      000000A2H   SFRSYM    DATA     BYTE      P_SW1
      000000CEH   SFRSYM    DATA     BYTE      SPCTL
      000000F8H   SFRSYM    DATA     BYTE      P7
      000000E8H   SFRSYM    DATA     BYTE      P6
      000000C8H   SFRSYM    DATA     BYTE      P5
      000000C0H   SFRSYM    DATA     BYTE      P4
      000000B0H   SFRSYM    DATA     BYTE      P3
      000000A0H   SFRSYM    DATA     BYTE      P2
      00000090H   SFRSYM    DATA     BYTE      P1
      00000080H   SFRSYM    DATA     BYTE      P0
      00000305H   SYMBOL    EDATA    ---       wireless_uart_fifo
      0000031CH   SYMBOL    EDATA    ---       wireless_uart_buffer

      00FFA7FCH   BLOCK     CODE     ---       LVL=0
      00010F6DH   SYMBOL    XDATA    BYTE      dat
      00FFA7FCH   LINE      CODE     ---       #46
      00FFA800H   LINE      CODE     ---       #49
      00FFA81DH   LINE      CODE     ---       #50
      ---         BLOCKEND  ---      ---       LVL=0
      00010F6EH   SYMBOL    XDATA    BYTE      dat
      00010D8AH   SYMBOL    XDATA    ---       buff
      00010D8EH   SYMBOL    XDATA    DWORD     len
      00010D92H   SYMBOL    XDATA    ---       buff
      00010D96H   SYMBOL    XDATA    DWORD     len
      0000043AH   SYMBOL    EDATA    DWORD     data_len

      00FF9F87H   BLOCK     CODE     ---       LVL=0
      00FF9F87H   LINE      CODE     ---       #132
      00FF9F87H   LINE      CODE     ---       #134
      00FF9F8AH   LINE      CODE     ---       #135
      00FF9F94H   LINE      CODE     ---       #136
      00FF9F9EH   LINE      CODE     ---       #138
      00FF9FC3H   LINE      CODE     ---       #139
      00FF9FE8H   LINE      CODE     ---       #141
      ---         BLOCKEND  ---      ---       LVL=0

      00FFA5E4H   BLOCK     CODE     ---       LVL=0
      00010D9AH   SYMBOL    XDATA    ---       buff
      00010D9EH   SYMBOL    XDATA    DWORD     length
      00FFA5E4H   LINE      CODE     ---       #150
      00FFA5F8H   LINE      CODE     ---       #152
      00FFA61DH   LINE      CODE     ---       #153
      00FFA61FH   LINE      CODE     ---       #154
      ---         BLOCKEND  ---      ---       LVL=0

      00FF9669H   BLOCK     CODE     ---       LVL=0
      00FF9669H   LINE      CODE     ---       #165
      00FF9669H   LINE      CODE     ---       #168
      00FF966CH   LINE      CODE     ---       #170
      00FF9676H   LINE      CODE     ---       #173
      00FF9695H   LINE      CODE     ---       #174
      00FF96B4H   LINE      CODE     ---       #175
      00FF96D3H   LINE      CODE     ---       #176
      00FF96F2H   LINE      CODE     ---       #178
L251 LINKER/LOCATER V4.66.93.0                                                        06/19/2025  15:56:37  PAGE 89


      00FF9711H   LINE      CODE     ---       #180
      00FF9717H   LINE      CODE     ---       #182
      00FF9722H   LINE      CODE     ---       #184
      ---         BLOCKEND  ---      ---       LVL=0

      ---         MODULE    ---      ---       SEEKFREE_GPS_TAU1201
      00FF854CH   PUBLIC    CODE     ---       gps_uart_callback
      00010017H   PUBLIC    XDATA    BYTE      gps_tau1201_flag
      00010098H   PUBLIC    XDATA    ---       gps_tau1201
      000101CCH   PUBLIC    XDATA    INT       gps_gga_state
      000101CEH   PUBLIC    XDATA    INT       gps_rmc_state
      000105FEH   PUBLIC    XDATA    BYTE      ?get_two_points_distance?BYTE
      000106DDH   PUBLIC    XDATA    BYTE      ?get_two_points_azimuth?BYTE
      000000D0H   SFRSYM    DATA     BYTE      PSW
      0000009DH   SFRSYM    DATA     BYTE      IRCBAND
      00000097H   SFRSYM    DATA     BYTE      AUXR2
      000000EFH   SFRSYM    DATA     BYTE      AUXINTIF
      000000FDH   SFRSYM    DATA     BYTE      S4CON
      000000ACH   SFRSYM    DATA     BYTE      S3CON
      0000009AH   SFRSYM    DATA     BYTE      S2CON
      000000B7H   SFRSYM    DATA     BYTE      IPH
      000000CDH   SFRSYM    DATA     BYTE      SPSTAT
      000000DDH   SFRSYM    DATA     BYTE      T4T3M
      000000C1H   SFRSYM    DATA     BYTE      WDT_CONTR
      000000DFH   SFRSYM    DATA     BYTE      IP3
      000000F4H   SFRSYM    DATA     BYTE      USBCON
      000000B5H   SFRSYM    DATA     BYTE      IP2
      000000FFH   SFRSYM    DATA     BYTE      RSTCFG
      000000F9H   SFRSYM    DATA     BYTE      LINICR
      0000008EH   SFRSYM    DATA     BYTE      AUXR
      000000AFH   SFRSYM    DATA     BYTE      IE2
      00000088H   SFRSYM    DATA     BYTE      TCON
      00000098H   SFRSYM    DATA     BYTE      SCON
      000000F1H   SFRSYM    DATA     BYTE      CANICR
      00000087H   SFRSYM    DATA     BYTE      PCON
      000000BCH   SFRSYM    DATA     BYTE      ADC_CONTR
      000000E7H   SFRSYM    DATA     BYTE      CMPCR2
      000000E6H   SFRSYM    DATA     BYTE      CMPCR1
      000000B8H   SFRSYM    DATA     BYTE      IP
      0000008FH   SFRSYM    DATA     BYTE      INTCLKO
      000000EEH   SFRSYM    DATA     BYTE      IP3H
      000000B6H   SFRSYM    DATA     BYTE      IP2H
      000000A8H   SFRSYM    DATA     BYTE      IE
      000000BBH   SFRSYM    DATA     BYTE      P_SW3
      000000BAH   SFRSYM    DATA     BYTE      P_SW2
      000000A2H   SFRSYM    DATA     BYTE      P_SW1
      000000CEH   SFRSYM    DATA     BYTE      SPCTL
      000000F8H   SFRSYM    DATA     BYTE      P7
      000000E8H   SFRSYM    DATA     BYTE      P6
      000000C8H   SFRSYM    DATA     BYTE      P5
      000000C0H   SFRSYM    DATA     BYTE      P4
      000000B0H   SFRSYM    DATA     BYTE      P3
      000000A0H   SFRSYM    DATA     BYTE      P2
      00000090H   SFRSYM    DATA     BYTE      P1
      00000080H   SFRSYM    DATA     BYTE      P0
      00FFACBDH   SYMBOL    HCONST   ---       ?tpl?0001
      00FFACC2H   SYMBOL    HCONST   ---       ?tpl?0002
      00FFACDEH   SYMBOL    HCONST   ---       ?tpl?0003
      00FFACE9H   SYMBOL    HCONST   ---       ?tpl?0004
      00FFACF4H   SYMBOL    HCONST   ---       ?tpl?0005
      00FFACFFH   SYMBOL    HCONST   ---       ?tpl?0006
      00FFAD0AH   SYMBOL    HCONST   ---       ?tpl?0007
      00FFAD15H   SYMBOL    HCONST   ---       ?tpl?0008
      00FFAD20H   SYMBOL    HCONST   ---       ?tpl?0009
      00FFAD2BH   SYMBOL    HCONST   ---       ?tpl?000A
L251 LINKER/LOCATER V4.66.93.0                                                        06/19/2025  15:56:37  PAGE 90


      00FFAD36H   SYMBOL    HCONST   ---       ?tpl?000B
      00FFAD41H   SYMBOL    HCONST   ---       ?tpl?000C
      00FFAD4CH   SYMBOL    HCONST   ---       ?tpl?000D
      00010000H   SYMBOL    XDATA    ---       gps_tau1201_receiver_fifo
      00010018H   SYMBOL    XDATA    ---       gps_gga_buffer
      000100CBH   SYMBOL    XDATA    BYTE      gps_tau1201_state
      000100CCH   SYMBOL    XDATA    ---       gps_rmc_buffer
      0001014CH   SYMBOL    XDATA    ---       gps_tau1201_receiver_buffer
      00010BD1H   SYMBOL    XDATA    BYTE      num
      00010BD2H   SYMBOL    XDATA    ---       str
      00010BD6H   SYMBOL    XDATA    BYTE      i
      00010BD7H   SYMBOL    XDATA    BYTE      j
      00010BD8H   SYMBOL    XDATA    ---       temp
      00010BDCH   SYMBOL    XDATA    BYTE      len
      00010BDDH   SYMBOL    XDATA    BYTE      len1
      00010AC5H   SYMBOL    XDATA    ---       s
      00010AC9H   SYMBOL    XDATA    ---       buf
      00010AD3H   SYMBOL    XDATA    BYTE      i
      00010AD4H   SYMBOL    XDATA    INT       return_value
      000109F6H   SYMBOL    XDATA    ---       s
      000109FAH   SYMBOL    XDATA    BYTE      i
      000109FBH   SYMBOL    XDATA    ---       buf
      00010A0AH   SYMBOL    XDATA    FLOAT     return_value
      00010978H   SYMBOL    XDATA    ---       s
      0001097CH   SYMBOL    XDATA    BYTE      i
      0001097DH   SYMBOL    XDATA    ---       buf
      0001098CH   SYMBOL    XDATA    DOUBLE    return_value
      00010E9FH   SYMBOL    XDATA    ---       time
      00010EA3H   SYMBOL    XDATA    BYTE      day_num
      0001065EH   SYMBOL    XDATA    ---       line
      00010662H   SYMBOL    XDATA    ---       gps
      00010666H   SYMBOL    XDATA    BYTE      state
      00010667H   SYMBOL    XDATA    BYTE      temp
      00010668H   SYMBOL    XDATA    DOUBLE    latitude
      00010670H   SYMBOL    XDATA    DOUBLE    longitude
      00010678H   SYMBOL    XDATA    DOUBLE    lati_cent_tmp
      00010680H   SYMBOL    XDATA    DOUBLE    lati_second_tmp
      00010688H   SYMBOL    XDATA    DOUBLE    long_cent_tmp
      00010690H   SYMBOL    XDATA    DOUBLE    long_second_tmp
      00010698H   SYMBOL    XDATA    FLOAT     speed_tmp
      0001069CH   SYMBOL    XDATA    ---       buf
      000106A0H   SYMBOL    XDATA    BYTE      return_state
      00010B9BH   SYMBOL    XDATA    ---       line
      00010B9FH   SYMBOL    XDATA    ---       gps
      00010BA3H   SYMBOL    XDATA    BYTE      state
      00010BA4H   SYMBOL    XDATA    ---       buf
      00010BA8H   SYMBOL    XDATA    BYTE      return_state
      000105FEH   SYMBOL    XDATA    DOUBLE    latitude1
      00010606H   SYMBOL    XDATA    DOUBLE    longitude1
      0001060EH   SYMBOL    XDATA    DOUBLE    latitude2
      00010616H   SYMBOL    XDATA    DOUBLE    longitude2
      0001061EH   SYMBOL    XDATA    DOUBLE    EARTH_RADIUS
      00010626H   SYMBOL    XDATA    DOUBLE    rad_latitude1
      0001062EH   SYMBOL    XDATA    DOUBLE    rad_latitude2
      00010636H   SYMBOL    XDATA    DOUBLE    rad_longitude1
      0001063EH   SYMBOL    XDATA    DOUBLE    rad_longitude2
      00010646H   SYMBOL    XDATA    DOUBLE    distance
      0001064EH   SYMBOL    XDATA    DOUBLE    a
      00010656H   SYMBOL    XDATA    DOUBLE    b
      000106DDH   SYMBOL    XDATA    DOUBLE    latitude1
      000106E5H   SYMBOL    XDATA    DOUBLE    longitude1
      000106EDH   SYMBOL    XDATA    DOUBLE    latitude2
      000106F5H   SYMBOL    XDATA    DOUBLE    longitude2
      000106FDH   SYMBOL    XDATA    DOUBLE    x
      00010705H   SYMBOL    XDATA    DOUBLE    y
L251 LINKER/LOCATER V4.66.93.0                                                        06/19/2025  15:56:37  PAGE 91


      0001070DH   SYMBOL    XDATA    DOUBLE    angle
      00010C0EH   SYMBOL    XDATA    BYTE      return_state
      00010C0FH   SYMBOL    XDATA    ---       check_buffer
      00010C14H   SYMBOL    XDATA    BYTE      bbc_xor_origin
      00010C15H   SYMBOL    XDATA    BYTE      bbc_xor_calculation
      00010C16H   SYMBOL    XDATA    DWORD     data_len

      00FF854CH   BLOCK     CODE     ---       LVL=0
      00010C52H   SYMBOL    XDATA    BYTE      uart_dat
      00FF8550H   BLOCK     CODE     NEAR LAB  LVL=1
      00010C53H   SYMBOL    XDATA    ---       temp_gps
      00010C59H   SYMBOL    XDATA    DWORD     temp_length
      ---         BLOCKEND  ---      ---       LVL=1
      00FF854CH   LINE      CODE     ---       #473
      00FF8550H   LINE      CODE     ---       #474
      00FF8550H   LINE      CODE     ---       #476
      00FF855CH   LINE      CODE     ---       #478
      00FF8568H   LINE      CODE     ---       #480
      00FF8589H   LINE      CODE     ---       #481
      00FF8595H   LINE      CODE     ---       #484
      00FF85A3H   LINE      CODE     ---       #485
      00FF85D2H   LINE      CODE     ---       #488
      00FF85F2H   LINE      CODE     ---       #491
      00FF8603H   LINE      CODE     ---       #493
      00FF860DH   LINE      CODE     ---       #494
      00FF8622H   LINE      CODE     ---       #495
      00FF864FH   LINE      CODE     ---       #496
      00FF8651H   LINE      CODE     ---       #498
      00FF8671H   LINE      CODE     ---       #501
      00FF867FH   LINE      CODE     ---       #503
      00FF8689H   LINE      CODE     ---       #504
      00FF869EH   LINE      CODE     ---       #505
      00FF86CBH   LINE      CODE     ---       #506
      00FF86CBH   LINE      CODE     ---       #510
      00FF86D6H   LINE      CODE     ---       #512
      00FF86DCH   LINE      CODE     ---       #513
      00FF86DCH   LINE      CODE     ---       #515
      ---         BLOCKEND  ---      ---       LVL=0
      00010479H   SYMBOL    XDATA    ---       set_rate
      00010495H   SYMBOL    XDATA    ---       open_gga
      000104A0H   SYMBOL    XDATA    ---       open_rmc
      000104ABH   SYMBOL    XDATA    ---       close_gll
      000104B6H   SYMBOL    XDATA    ---       close_gsa
      000104C1H   SYMBOL    XDATA    ---       close_grs
      000104CCH   SYMBOL    XDATA    ---       close_gsv
      000104D7H   SYMBOL    XDATA    ---       close_vtg
      000104E2H   SYMBOL    XDATA    ---       close_zda
      000104EDH   SYMBOL    XDATA    ---       close_gst
      000104F8H   SYMBOL    XDATA    ---       close_txt
      00010503H   SYMBOL    XDATA    ---       close_txt_ant

      ---         MODULE    ---      ---       SEEKFREE_IPS200_SPI
      00010A3EH   PUBLIC    XDATA    BYTE      ?ips200_draw_line?BYTE
      0001077DH   PUBLIC    XDATA    BYTE      ?ips200_show_float?BYTE
      000108A5H   PUBLIC    XDATA    BYTE      ?ips200_show_wave?BYTE
      000109ADH   PUBLIC    XDATA    BYTE      ?ips200_show_chinese?BYTE
      000000D0H   SFRSYM    DATA     BYTE      PSW
      0000009DH   SFRSYM    DATA     BYTE      IRCBAND
      00000097H   SFRSYM    DATA     BYTE      AUXR2
      000000EFH   SFRSYM    DATA     BYTE      AUXINTIF
      000000FDH   SFRSYM    DATA     BYTE      S4CON
      000000ACH   SFRSYM    DATA     BYTE      S3CON
      0000009AH   SFRSYM    DATA     BYTE      S2CON
      000000B7H   SFRSYM    DATA     BYTE      IPH
      000000CDH   SFRSYM    DATA     BYTE      SPSTAT
L251 LINKER/LOCATER V4.66.93.0                                                        06/19/2025  15:56:37  PAGE 92


      000000DDH   SFRSYM    DATA     BYTE      T4T3M
      000000C1H   SFRSYM    DATA     BYTE      WDT_CONTR
      000000DFH   SFRSYM    DATA     BYTE      IP3
      000000F4H   SFRSYM    DATA     BYTE      USBCON
      000000B5H   SFRSYM    DATA     BYTE      IP2
      000000FFH   SFRSYM    DATA     BYTE      RSTCFG
      000000F9H   SFRSYM    DATA     BYTE      LINICR
      0000008EH   SFRSYM    DATA     BYTE      AUXR
      000000AFH   SFRSYM    DATA     BYTE      IE2
      000000A0H.7 SFRSYM    DATA     BIT       P27
      00000088H   SFRSYM    DATA     BYTE      TCON
      00000098H   SFRSYM    DATA     BYTE      SCON
      000000A0H.2 SFRSYM    DATA     BIT       P22
      000000A0H.1 SFRSYM    DATA     BIT       P21
      000000A0H.0 SFRSYM    DATA     BIT       P20
      000000F1H   SFRSYM    DATA     BYTE      CANICR
      00000087H   SFRSYM    DATA     BYTE      PCON
      000000BCH   SFRSYM    DATA     BYTE      ADC_CONTR
      000000E7H   SFRSYM    DATA     BYTE      CMPCR2
      000000E6H   SFRSYM    DATA     BYTE      CMPCR1
      000000B8H   SFRSYM    DATA     BYTE      IP
      0000008FH   SFRSYM    DATA     BYTE      INTCLKO
      000000EEH   SFRSYM    DATA     BYTE      IP3H
      000000B6H   SFRSYM    DATA     BYTE      IP2H
      000000A8H   SFRSYM    DATA     BYTE      IE
      000000BBH   SFRSYM    DATA     BYTE      P_SW3
      000000BAH   SFRSYM    DATA     BYTE      P_SW2
      000000A2H   SFRSYM    DATA     BYTE      P_SW1
      000000CEH   SFRSYM    DATA     BYTE      SPCTL
      000000F8H   SFRSYM    DATA     BYTE      P7
      000000E8H   SFRSYM    DATA     BYTE      P6
      000000C8H   SFRSYM    DATA     BYTE      P5
      000000C0H   SFRSYM    DATA     BYTE      P4
      000000B0H   SFRSYM    DATA     BYTE      P3
      000000A0H   SFRSYM    DATA     BYTE      P2
      00000090H   SFRSYM    DATA     BYTE      P1
      00000080H   SFRSYM    DATA     BYTE      P0
      00010BA9H   SYMBOL    XDATA    WORD      ips200_pencolor
      00010BABH   SYMBOL    XDATA    WORD      ips200_bgcolor
      00010BADH   SYMBOL    XDATA    INT       ips200_display_font
      00010BAFH   SYMBOL    XDATA    INT       ips200_display_dir
      00010BB1H   SYMBOL    XDATA    WORD      ips200_x_max
      00010BB3H   SYMBOL    XDATA    INT       ips200_display_type
      00010BB5H   SYMBOL    XDATA    WORD      ips200_y_max
      00010F6FH   SYMBOL    XDATA    BYTE      dat
      00010EDCH   SYMBOL    XDATA    WORD      dat
      00010EDEH   SYMBOL    XDATA    ---       dat1
      00010F70H   SYMBOL    XDATA    BYTE      command
      00010F71H   SYMBOL    XDATA    BYTE      dat
      00010F42H   SYMBOL    XDATA    WORD      dat
      00010DA2H   SYMBOL    XDATA    WORD      x1
      00010DA4H   SYMBOL    XDATA    WORD      y1
      00010DA6H   SYMBOL    XDATA    WORD      x2
      00010DA8H   SYMBOL    XDATA    WORD      y2
      00010EE0H   SYMBOL    XDATA    WORD      i
      00010EE2H   SYMBOL    XDATA    WORD      j
      00010E5FH   SYMBOL    XDATA    WORD      color
      00010E61H   SYMBOL    XDATA    WORD      i
      00010E63H   SYMBOL    XDATA    WORD      j
      00010F44H   SYMBOL    XDATA    INT       dir
      00010F46H   SYMBOL    XDATA    INT       font
      00010EE4H   SYMBOL    XDATA    WORD      pen
      00010EE6H   SYMBOL    XDATA    WORD      bgcolor
      00010E65H   SYMBOL    XDATA    WORD      x
      00010E67H   SYMBOL    XDATA    WORD      y
L251 LINKER/LOCATER V4.66.93.0                                                        06/19/2025  15:56:37  PAGE 93


      00010E69H   SYMBOL    XDATA    WORD      color
      00010A3EH   SYMBOL    XDATA    WORD      x_start
      00010A40H   SYMBOL    XDATA    WORD      y_start
      00010A42H   SYMBOL    XDATA    WORD      x_end
      00010A44H   SYMBOL    XDATA    WORD      y_end
      00010A46H   SYMBOL    XDATA    WORD      color
      00010A48H   SYMBOL    XDATA    INT       x_dir
      00010A4AH   SYMBOL    XDATA    INT       y_dir
      00010A4CH   SYMBOL    XDATA    FLOAT     temp_rate
      00010A50H   SYMBOL    XDATA    FLOAT     temp_b
      00010D10H   SYMBOL    XDATA    WORD      x
      00010D12H   SYMBOL    XDATA    WORD      y
      00010D14H   SYMBOL    XDATA    CHAR      dat
      00010D15H   SYMBOL    XDATA    BYTE      i
      00010D16H   SYMBOL    XDATA    BYTE      j
      00010D17H   SYMBOL    XDATA    BYTE      temp_top
      00010D18H   SYMBOL    XDATA    BYTE      temp_bottom
      00010C90H   SYMBOL    XDATA    WORD      x
      00010C92H   SYMBOL    XDATA    WORD      y
      00010C94H   SYMBOL    XDATA    ---       dat
      00010C98H   SYMBOL    XDATA    WORD      j
      0001093EH   SYMBOL    XDATA    WORD      x
      00010940H   SYMBOL    XDATA    WORD      y
      00010942H   SYMBOL    XDATA    LONG      dat
      00010946H   SYMBOL    XDATA    BYTE      num
      00010947H   SYMBOL    XDATA    LONG      dat_temp
      0001094BH   SYMBOL    XDATA    LONG      offset
      0001094FH   SYMBOL    XDATA    ---       data_buffer
      0001095BH   SYMBOL    XDATA    WORD      x
      0001095DH   SYMBOL    XDATA    WORD      y
      0001095FH   SYMBOL    XDATA    DWORD     dat
      00010963H   SYMBOL    XDATA    BYTE      num
      00010964H   SYMBOL    XDATA    DWORD     dat_temp
      00010968H   SYMBOL    XDATA    LONG      offset
      0001096CH   SYMBOL    XDATA    ---       data_buffer
      0001077DH   SYMBOL    XDATA    WORD      x
      0001077FH   SYMBOL    XDATA    WORD      y
      00010781H   SYMBOL    XDATA    DOUBLE    dat
      00010789H   SYMBOL    XDATA    BYTE      num
      0001078AH   SYMBOL    XDATA    BYTE      pointnum
      0001078BH   SYMBOL    XDATA    DOUBLE    dat_temp
      00010793H   SYMBOL    XDATA    DOUBLE    offset
      0001079BH   SYMBOL    XDATA    ---       data_buffer
      000108A5H   SYMBOL    XDATA    WORD      x
      000108A7H   SYMBOL    XDATA    WORD      y
      000108A9H   SYMBOL    XDATA    ---       wave
      000108ADH   SYMBOL    XDATA    WORD      width
      000108AFH   SYMBOL    XDATA    WORD      value_max
      000108B1H   SYMBOL    XDATA    WORD      dis_width
      000108B3H   SYMBOL    XDATA    WORD      dis_value_max
      000108B5H   SYMBOL    XDATA    DWORD     i
      000108B9H   SYMBOL    XDATA    DWORD     j
      000108BDH   SYMBOL    XDATA    DWORD     width_index
      000108C1H   SYMBOL    XDATA    DWORD     value_max_index
      000109ADH   SYMBOL    XDATA    WORD      x
      000109AFH   SYMBOL    XDATA    WORD      y
      000109B1H   SYMBOL    XDATA    BYTE      size
      000109B2H   SYMBOL    XDATA    ---       chinese_buffer
      000109B6H   SYMBOL    XDATA    BYTE      number
      000109B7H   SYMBOL    XDATA    WORD      color
      000109B9H   SYMBOL    XDATA    INT       i
      000109BBH   SYMBOL    XDATA    INT       j
      000109BDH   SYMBOL    XDATA    INT       k
      000109BFH   SYMBOL    XDATA    BYTE      temp
      000109C0H   SYMBOL    XDATA    BYTE      temp1
L251 LINKER/LOCATER V4.66.93.0                                                        06/19/2025  15:56:37  PAGE 94


      000109C1H   SYMBOL    XDATA    BYTE      temp2
      000109C2H   SYMBOL    XDATA    ---       p_data

      ---         MODULE    ---      ---       SEEKFREE_MPU6050
      00FF9B96H   PUBLIC    CODE     ---       mpu6050_simiic_read_regs
      00FFA52BH   PUBLIC    CODE     ---       mpu6050_simiic_read_reg
      00FFA04AH   PUBLIC    CODE     ---       mpu6050_init
      00FFA163H   PUBLIC    CODE     ---       mpu6050_get_gyro
      00010C1AH   PUBLIC    XDATA    INT       mpu6050_acc_x
      00010C1CH   PUBLIC    XDATA    INT       mpu6050_acc_y
      00010C1EH   PUBLIC    XDATA    INT       mpu6050_acc_z
      00010C20H   PUBLIC    XDATA    INT       mpu6050_gyro_x
      00010C22H   PUBLIC    XDATA    INT       mpu6050_gyro_y
      00010C24H   PUBLIC    XDATA    INT       mpu6050_gyro_z
      000000D0H   SFRSYM    DATA     BYTE      PSW
      0000009DH   SFRSYM    DATA     BYTE      IRCBAND
      00000097H   SFRSYM    DATA     BYTE      AUXR2
      000000EFH   SFRSYM    DATA     BYTE      AUXINTIF
      000000FDH   SFRSYM    DATA     BYTE      S4CON
      000000ACH   SFRSYM    DATA     BYTE      S3CON
      0000009AH   SFRSYM    DATA     BYTE      S2CON
      000000B7H   SFRSYM    DATA     BYTE      IPH
      000000CDH   SFRSYM    DATA     BYTE      SPSTAT
      000000DDH   SFRSYM    DATA     BYTE      T4T3M
      000000C1H   SFRSYM    DATA     BYTE      WDT_CONTR
      000000DFH   SFRSYM    DATA     BYTE      IP3
      000000F4H   SFRSYM    DATA     BYTE      USBCON
      000000B5H   SFRSYM    DATA     BYTE      IP2
      000000FFH   SFRSYM    DATA     BYTE      RSTCFG
      000000F9H   SFRSYM    DATA     BYTE      LINICR
      0000008EH   SFRSYM    DATA     BYTE      AUXR
      000000AFH   SFRSYM    DATA     BYTE      IE2
      000000C0H.4 SFRSYM    DATA     BIT       P44
      000000C0H.3 SFRSYM    DATA     BIT       P43
      00000088H   SFRSYM    DATA     BYTE      TCON
      00000098H   SFRSYM    DATA     BYTE      SCON
      000000F1H   SFRSYM    DATA     BYTE      CANICR
      00000087H   SFRSYM    DATA     BYTE      PCON
      000000BCH   SFRSYM    DATA     BYTE      ADC_CONTR
      000000E7H   SFRSYM    DATA     BYTE      CMPCR2
      000000E6H   SFRSYM    DATA     BYTE      CMPCR1
      000000B8H   SFRSYM    DATA     BYTE      IP
      0000008FH   SFRSYM    DATA     BYTE      INTCLKO
      000000EEH   SFRSYM    DATA     BYTE      IP3H
      000000B6H   SFRSYM    DATA     BYTE      IP2H
      000000A8H   SFRSYM    DATA     BYTE      IE
      000000BBH   SFRSYM    DATA     BYTE      P_SW3
      000000BAH   SFRSYM    DATA     BYTE      P_SW2
      000000A2H   SFRSYM    DATA     BYTE      P_SW1
      000000CEH   SFRSYM    DATA     BYTE      SPCTL
      000000F8H   SFRSYM    DATA     BYTE      P7
      000000E8H   SFRSYM    DATA     BYTE      P6
      000000C8H   SFRSYM    DATA     BYTE      P5
      000000C0H   SFRSYM    DATA     BYTE      P4
      000000B0H   SFRSYM    DATA     BYTE      P3
      000000A0H   SFRSYM    DATA     BYTE      P2
      00000090H   SFRSYM    DATA     BYTE      P1
      00000080H   SFRSYM    DATA     BYTE      P0
      00FFA89FH   SYMBOL    CODE     ---       mpu6050_simiic_start
      00FFA85FH   SYMBOL    CODE     ---       mpu6050_simiic_stop
      00FFA75BH   SYMBOL    CODE     ---       mpu6050_simiic_write_reg
      00FFA6C5H   SYMBOL    CODE     ---       mpu6050_self1_check
      00FFA789H   SYMBOL    CODE     ---       mpu6050_simiic_sendack
      00FF9F22H   SYMBOL    CODE     ---       mpu6050_read_ch
      00FFA4E6H   SYMBOL    CODE     ---       mpu6050_send_ch
L251 LINKER/LOCATER V4.66.93.0                                                        06/19/2025  15:56:37  PAGE 95


      00FFA81EH   SYMBOL    CODE     ---       mpu6050_sccb_waitack
      00FFA83FH   SYMBOL    CODE     ---       mpu6050_simiic_delay

      00FFA83FH   BLOCK     CODE     ---       LVL=0
      00010F48H   SYMBOL    XDATA    WORD      j
      00FFA83FH   LINE      CODE     ---       #52
      00FFA83FH   LINE      CODE     ---       #53
      00FFA83FH   LINE      CODE     ---       #54
      00FFA847H   LINE      CODE     ---       #55
      00FFA85EH   LINE      CODE     ---       #56
      ---         BLOCKEND  ---      ---       LVL=0

      00FFA89FH   BLOCK     CODE     ---       LVL=0
      00FFA89FH   LINE      CODE     ---       #59
      00FFA89FH   LINE      CODE     ---       #61
      00FFA8A2H   LINE      CODE     ---       #62
      00FFA8A5H   LINE      CODE     ---       #63
      00FFA8A8H   LINE      CODE     ---       #64
      00FFA8ABH   LINE      CODE     ---       #65
      00FFA8AEH   LINE      CODE     ---       #66
      00FFA8B1H   LINE      CODE     ---       #67
      ---         BLOCKEND  ---      ---       LVL=0

      00FFA85FH   BLOCK     CODE     ---       LVL=0
      00FFA85FH   LINE      CODE     ---       #70
      00FFA85FH   LINE      CODE     ---       #72
      00FFA862H   LINE      CODE     ---       #73
      00FFA865H   LINE      CODE     ---       #74
      00FFA868H   LINE      CODE     ---       #75
      00FFA86BH   LINE      CODE     ---       #76
      00FFA86EH   LINE      CODE     ---       #77
      00FFA871H   LINE      CODE     ---       #78
      00FFA874H   LINE      CODE     ---       #79
      ---         BLOCKEND  ---      ---       LVL=0

      00FFA789H   BLOCK     CODE     ---       LVL=0
      00010F72H   SYMBOL    XDATA    BYTE      ack_dat
      00FFA789H   LINE      CODE     ---       #83
      00FFA78DH   LINE      CODE     ---       #85
      00FFA790H   LINE      CODE     ---       #86
      00FFA793H   LINE      CODE     ---       #87
      00FFA7A1H   LINE      CODE     ---       #88
      00FFA7A4H   LINE      CODE     ---       #89
      00FFA7A7H   LINE      CODE     ---       #90
      00FFA7AAH   LINE      CODE     ---       #91
      00FFA7ADH   LINE      CODE     ---       #92
      00FFA7B0H   LINE      CODE     ---       #93
      ---         BLOCKEND  ---      ---       LVL=0

      00FFA81EH   BLOCK     CODE     ---       LVL=0
      00FFA81EH   LINE      CODE     ---       #96
      00FFA81EH   LINE      CODE     ---       #98
      00FFA821H   LINE      CODE     ---       #99
      00FFA824H   LINE      CODE     ---       #100
      00FFA827H   LINE      CODE     ---       #101
      00FFA82AH   LINE      CODE     ---       #102
      00FFA82DH   LINE      CODE     ---       #104
      00FFA830H   LINE      CODE     ---       #105
      00FFA834H   LINE      CODE     ---       #106
      00FFA834H   LINE      CODE     ---       #107
      00FFA837H   LINE      CODE     ---       #108
      00FFA83AH   LINE      CODE     ---       #109
      00FFA83EH   LINE      CODE     ---       #110
      ---         BLOCKEND  ---      ---       LVL=0

L251 LINKER/LOCATER V4.66.93.0                                                        06/19/2025  15:56:37  PAGE 96


      00FFA4E6H   BLOCK     CODE     ---       LVL=0
      00010F4AH   SYMBOL    XDATA    BYTE      c
      00FFA4EAH   BLOCK     CODE     NEAR LAB  LVL=1
      00010F4BH   SYMBOL    XDATA    BYTE      i
      ---         BLOCKEND  ---      ---       LVL=1
      00FFA4E6H   LINE      CODE     ---       #116
      00FFA4EAH   LINE      CODE     ---       #117
      00FFA4EAH   LINE      CODE     ---       #118
      00FFA4F0H   LINE      CODE     ---       #119
      00FFA4F2H   LINE      CODE     ---       #121
      00FFA4FEH   LINE      CODE     ---       #122
      00FFA501H   LINE      CODE     ---       #123
      00FFA508H   LINE      CODE     ---       #124
      00FFA50BH   LINE      CODE     ---       #125
      00FFA50EH   LINE      CODE     ---       #126
      00FFA511H   LINE      CODE     ---       #127
      00FFA514H   LINE      CODE     ---       #128
      00FFA527H   LINE      CODE     ---       #129
      00FFA52AH   LINE      CODE     ---       #130
      ---         BLOCKEND  ---      ---       LVL=0

      00FF9F22H   BLOCK     CODE     ---       LVL=0
      00010F07H   SYMBOL    XDATA    BYTE      ack_x
      00FF9F26H   BLOCK     CODE     NEAR LAB  LVL=1
      00010F08H   SYMBOL    XDATA    BYTE      i
      00010F09H   SYMBOL    XDATA    BYTE      c
      ---         BLOCKEND  ---      ---       LVL=1
      00FF9F22H   LINE      CODE     ---       #136
      00FF9F26H   LINE      CODE     ---       #137
      00FF9F26H   LINE      CODE     ---       #140
      00FF9F2BH   LINE      CODE     ---       #141
      00FF9F2EH   LINE      CODE     ---       #142
      00FF9F31H   LINE      CODE     ---       #143
      00FF9F34H   LINE      CODE     ---       #144
      00FF9F3BH   LINE      CODE     ---       #146
      00FF9F3EH   LINE      CODE     ---       #147
      00FF9F41H   LINE      CODE     ---       #148
      00FF9F44H   LINE      CODE     ---       #149
      00FF9F47H   LINE      CODE     ---       #150
      00FF9F4AH   LINE      CODE     ---       #151
      00FF9F51H   LINE      CODE     ---       #152
      00FF9F54H   LINE      CODE     ---       #154
      00FF9F5EH   LINE      CODE     ---       #155
      00FF9F75H   LINE      CODE     ---       #157
      00FF9F78H   LINE      CODE     ---       #158
      00FF9F7BH   LINE      CODE     ---       #159
      00FF9F82H   LINE      CODE     ---       #160
      00FF9F86H   LINE      CODE     ---       #161
      ---         BLOCKEND  ---      ---       LVL=0

      00FFA75BH   BLOCK     CODE     ---       LVL=0
      00010F0AH   SYMBOL    XDATA    BYTE      dev_add
      00010F0BH   SYMBOL    XDATA    BYTE      reg
      00010F0CH   SYMBOL    XDATA    BYTE      dat
      00FFA75BH   LINE      CODE     ---       #173
      00FFA76BH   LINE      CODE     ---       #175
      00FFA76EH   LINE      CODE     ---       #176
      00FFA777H   LINE      CODE     ---       #177
      00FFA77EH   LINE      CODE     ---       #178
      00FFA785H   LINE      CODE     ---       #179
      00FFA788H   LINE      CODE     ---       #180
      ---         BLOCKEND  ---      ---       LVL=0

      00FFA52BH   BLOCK     CODE     ---       LVL=0
      00010F0DH   SYMBOL    XDATA    BYTE      dev_add
L251 LINKER/LOCATER V4.66.93.0                                                        06/19/2025  15:56:37  PAGE 97


      00010F0EH   SYMBOL    XDATA    BYTE      reg
      00FFA535H   BLOCK     CODE     NEAR LAB  LVL=1
      00010F0FH   SYMBOL    XDATA    BYTE      dat
      ---         BLOCKEND  ---      ---       LVL=1
      00FFA52BH   LINE      CODE     ---       #191
      00FFA535H   LINE      CODE     ---       #192
      00FFA535H   LINE      CODE     ---       #194
      00FFA538H   LINE      CODE     ---       #195
      00FFA541H   LINE      CODE     ---       #196
      00FFA548H   LINE      CODE     ---       #197
      00FFA54BH   LINE      CODE     ---       #198
      00FFA55AH   LINE      CODE     ---       #199
      00FFA562H   LINE      CODE     ---       #200
      00FFA565H   LINE      CODE     ---       #201
      00FFA569H   LINE      CODE     ---       #202
      ---         BLOCKEND  ---      ---       LVL=0

      00FF9B96H   BLOCK     CODE     ---       LVL=0
      00010DC0H   SYMBOL    XDATA    BYTE      dev_add
      00010DC1H   SYMBOL    XDATA    BYTE      reg
      00010DC2H   SYMBOL    XDATA    ---       dat_add
      00010DC6H   SYMBOL    XDATA    BYTE      num
      00FF9B96H   LINE      CODE     ---       #215
      00FF9BB0H   LINE      CODE     ---       #217
      00FF9BB3H   LINE      CODE     ---       #218
      00FF9BBCH   LINE      CODE     ---       #219
      00FF9BC3H   LINE      CODE     ---       #220
      00FF9BC6H   LINE      CODE     ---       #221
      00FF9BD5H   LINE      CODE     ---       #222
      00FF9BD7H   LINE      CODE     ---       #224
      00FF9BE9H   LINE      CODE     ---       #225
      00FF9BFCH   LINE      CODE     ---       #226
      00FF9C0FH   LINE      CODE     ---       #227
      00FF9C20H   LINE      CODE     ---       #228
      00FF9C23H   LINE      CODE     ---       #229
      ---         BLOCKEND  ---      ---       LVL=0

      00FFA6C5H   BLOCK     CODE     ---       LVL=0
      00FFA6C5H   LINE      CODE     ---       #238
      00FFA6C5H   LINE      CODE     ---       #240
      00FFA6CFH   LINE      CODE     ---       #241
      00FFA6DAH   LINE      CODE     ---       #242
      00FFA6E7H   LINE      CODE     ---       #244
      00FFA6F2H   LINE      CODE     ---       #245
      00FFA6F6H   LINE      CODE     ---       #251
      00FFA6F6H   LINE      CODE     ---       #252
      00FFA6F7H   LINE      CODE     ---       #253
      ---         BLOCKEND  ---      ---       LVL=0

      00FFA04AH   BLOCK     CODE     ---       LVL=0
      00FFA04AH   LINE      CODE     ---       #263
      00FFA04AH   LINE      CODE     ---       #265
      00FFA051H   LINE      CODE     ---       #266
      00FFA059H   LINE      CODE     ---       #268
      00FFA05DH   LINE      CODE     ---       #269
      00FFA05DH   LINE      CODE     ---       #270
      00FFA067H   LINE      CODE     ---       #271
      00FFA072H   LINE      CODE     ---       #272
      00FFA07DH   LINE      CODE     ---       #273
      00FFA088H   LINE      CODE     ---       #274
      00FFA093H   LINE      CODE     ---       #275
      00FFA09DH   LINE      CODE     ---       #276
      00FFA0A8H   LINE      CODE     ---       #277
      00FFA0A9H   LINE      CODE     ---       #278
      ---         BLOCKEND  ---      ---       LVL=0
L251 LINKER/LOCATER V4.66.93.0                                                        06/19/2025  15:56:37  PAGE 98


      00010E6BH   SYMBOL    XDATA    ---       dat

      00FFA163H   BLOCK     CODE     ---       LVL=0
      00010E71H   SYMBOL    XDATA    ---       dat
      00FFA163H   LINE      CODE     ---       #306
      00FFA163H   LINE      CODE     ---       #307
      00FFA163H   LINE      CODE     ---       #309
      00FFA176H   LINE      CODE     ---       #310
      00FFA18EH   LINE      CODE     ---       #311
      00FFA1A6H   LINE      CODE     ---       #312
      00FFA1BEH   LINE      CODE     ---       #313
      ---         BLOCKEND  ---      ---       LVL=0

      ---         MODULE    ---      ---       isr
      00FFA374H   PUBLIC    CODE     ---       UART1_Isr
      00FFA414H   PUBLIC    CODE     ---       UART2_Isr
      00FFA7B1H   PUBLIC    CODE     ---       UART3_Isr
      00FFA271H   PUBLIC    CODE     ---       UART4_Isr
      00FF0046H   PUBLIC    CODE     ---       INT0_Isr
      00FF000AH   PUBLIC    CODE     ---       INT1_Isr
      00FFA8C4H   PUBLIC    CODE     ---       INT2_Isr
      00FFA8CCH   PUBLIC    CODE     ---       INT3_Isr
      00FFA8D4H   PUBLIC    CODE     ---       INT4_Isr
      00FF000EH   PUBLIC    CODE     ---       TM0_Isr
      00FFA72BH   PUBLIC    CODE     ---       TM1_Isr
      00FFA8DCH   PUBLIC    CODE     ---       TM2_Isr
      00FFA8E4H   PUBLIC    CODE     ---       TM3_Isr
      00FFA6F8H   PUBLIC    CODE     ---       TM4_Isr
      000000D0H   SFRSYM    DATA     BYTE      PSW
      0000009DH   SFRSYM    DATA     BYTE      IRCBAND
      00000097H   SFRSYM    DATA     BYTE      AUXR2
      000000EFH   SFRSYM    DATA     BYTE      AUXINTIF
      000000FDH   SFRSYM    DATA     BYTE      S4CON
      000000ACH   SFRSYM    DATA     BYTE      S3CON
      0000009AH   SFRSYM    DATA     BYTE      S2CON
      000000FEH   SFRSYM    DATA     BYTE      S4BUF
      0000009BH   SFRSYM    DATA     BYTE      S2BUF
      000000B7H   SFRSYM    DATA     BYTE      IPH
      000000CDH   SFRSYM    DATA     BYTE      SPSTAT
      000000DDH   SFRSYM    DATA     BYTE      T4T3M
      000000C1H   SFRSYM    DATA     BYTE      WDT_CONTR
      000000DFH   SFRSYM    DATA     BYTE      IP3
      000000F4H   SFRSYM    DATA     BYTE      USBCON
      000000B5H   SFRSYM    DATA     BYTE      IP2
      000000FFH   SFRSYM    DATA     BYTE      RSTCFG
      000000C7H   SFRSYM    DATA     BYTE      IAP_CONTR
      000000F9H   SFRSYM    DATA     BYTE      LINICR
      0000008EH   SFRSYM    DATA     BYTE      AUXR
      000000AFH   SFRSYM    DATA     BYTE      IE2
      000000C8H.2 SFRSYM    DATA     BIT       P52
      00000088H   SFRSYM    DATA     BYTE      TCON
      00000098H   SFRSYM    DATA     BYTE      SCON
      000000F1H   SFRSYM    DATA     BYTE      CANICR
      00000087H   SFRSYM    DATA     BYTE      PCON
      00000099H   SFRSYM    DATA     BYTE      SBUF
      000000BCH   SFRSYM    DATA     BYTE      ADC_CONTR
      000000E7H   SFRSYM    DATA     BYTE      CMPCR2
      000000E6H   SFRSYM    DATA     BYTE      CMPCR1
      000000B8H   SFRSYM    DATA     BYTE      IP
      0000008FH   SFRSYM    DATA     BYTE      INTCLKO
      000000EEH   SFRSYM    DATA     BYTE      IP3H
      000000B6H   SFRSYM    DATA     BYTE      IP2H
      000000A8H   SFRSYM    DATA     BYTE      IE
      000000BBH   SFRSYM    DATA     BYTE      P_SW3
      000000BAH   SFRSYM    DATA     BYTE      P_SW2
L251 LINKER/LOCATER V4.66.93.0                                                        06/19/2025  15:56:37  PAGE 99


      000000A2H   SFRSYM    DATA     BYTE      P_SW1
      000000CEH   SFRSYM    DATA     BYTE      SPCTL
      000000F8H   SFRSYM    DATA     BYTE      P7
      000000E8H   SFRSYM    DATA     BYTE      P6
      000000C8H   SFRSYM    DATA     BYTE      P5
      000000C0H   SFRSYM    DATA     BYTE      P4
      000000B0H   SFRSYM    DATA     BYTE      P3
      000000A0H   SFRSYM    DATA     BYTE      P2
      00000090H   SFRSYM    DATA     BYTE      P1
      00000080H   SFRSYM    DATA     BYTE      P0

      00FFA374H   BLOCK     CODE     ---       LVL=0
      00FFA37CH   BLOCK     CODE     NEAR LAB  LVL=1
      00010F73H   SYMBOL    XDATA    BYTE      res
      00010F74H   SYMBOL    XDATA    BYTE      dwon_count
      ---         BLOCKEND  ---      ---       LVL=1
      00FFA374H   LINE      CODE     ---       #22
      00FFA37CH   LINE      CODE     ---       #23
      00FFA37CH   LINE      CODE     ---       #26
      00FFA381H   LINE      CODE     ---       #28
      00FFA384H   LINE      CODE     ---       #29
      00FFA389H   LINE      CODE     ---       #30
      00FFA389H   LINE      CODE     ---       #31
      00FFA38EH   LINE      CODE     ---       #33
      00FFA391H   LINE      CODE     ---       #34
      00FFA397H   LINE      CODE     ---       #36
      00FFA3A0H   LINE      CODE     ---       #38
      00FFA3B1H   LINE      CODE     ---       #39
      00FFA3B5H   LINE      CODE     ---       #40
      00FFA3B7H   LINE      CODE     ---       #43
      00FFA3BCH   LINE      CODE     ---       #44
      00FFA3BCH   LINE      CODE     ---       #45
      ---         BLOCKEND  ---      ---       LVL=0

      00FFA414H   BLOCK     CODE     ---       LVL=0
      00FFA414H   LINE      CODE     ---       #49
      00FFA42AH   LINE      CODE     ---       #51
      00FFA42FH   LINE      CODE     ---       #53
      00FFA432H   LINE      CODE     ---       #54
      00FFA437H   LINE      CODE     ---       #55
      00FFA437H   LINE      CODE     ---       #56
      00FFA43CH   LINE      CODE     ---       #58
      00FFA43FH   LINE      CODE     ---       #60
      00FFA444H   LINE      CODE     ---       #61
      ---         BLOCKEND  ---      ---       LVL=0

      00FFA7B1H   BLOCK     CODE     ---       LVL=0
      00FFA7B1H   LINE      CODE     ---       #66
      00FFA7B9H   LINE      CODE     ---       #68
      00FFA7BEH   LINE      CODE     ---       #70
      00FFA7C1H   LINE      CODE     ---       #71
      00FFA7C6H   LINE      CODE     ---       #72
      00FFA7C6H   LINE      CODE     ---       #73
      00FFA7CBH   LINE      CODE     ---       #75
      00FFA7CEH   LINE      CODE     ---       #78
      ---         BLOCKEND  ---      ---       LVL=0

      00FFA271H   BLOCK     CODE     ---       LVL=0
      00FFA271H   LINE      CODE     ---       #83
      00FFA287H   LINE      CODE     ---       #85
      00FFA28CH   LINE      CODE     ---       #87
      00FFA28FH   LINE      CODE     ---       #88
      00FFA294H   LINE      CODE     ---       #89
      00FFA294H   LINE      CODE     ---       #90
      00FFA299H   LINE      CODE     ---       #92
L251 LINKER/LOCATER V4.66.93.0                                                        06/19/2025  15:56:37  PAGE 100


      00FFA29CH   LINE      CODE     ---       #95
      00FFA2A8H   LINE      CODE     ---       #99
      00FFA2B2H   LINE      CODE     ---       #100
      00FFA2B2H   LINE      CODE     ---       #102
      ---         BLOCKEND  ---      ---       LVL=0

      00FF0046H   BLOCK     CODE     ---       LVL=0
      00FF0046H   LINE      CODE     ---       #105
      00FF0048H   LINE      CODE     ---       #107
      00FF004BH   LINE      CODE     ---       #108
      ---         BLOCKEND  ---      ---       LVL=0

      00FF000AH   BLOCK     CODE     ---       LVL=0
      00FF000AH   LINE      CODE     ---       #109
      00FF000AH   LINE      CODE     ---       #112
      ---         BLOCKEND  ---      ---       LVL=0

      00FFA8C4H   BLOCK     CODE     ---       LVL=0
      00FFA8C4H   LINE      CODE     ---       #113
      00FFA8C6H   LINE      CODE     ---       #115
      00FFA8C9H   LINE      CODE     ---       #116
      ---         BLOCKEND  ---      ---       LVL=0

      00FFA8CCH   BLOCK     CODE     ---       LVL=0
      00FFA8CCH   LINE      CODE     ---       #117
      00FFA8CEH   LINE      CODE     ---       #119
      00FFA8D1H   LINE      CODE     ---       #120
      ---         BLOCKEND  ---      ---       LVL=0

      00FFA8D4H   BLOCK     CODE     ---       LVL=0
      00FFA8D4H   LINE      CODE     ---       #122
      00FFA8D6H   LINE      CODE     ---       #124
      00FFA8D9H   LINE      CODE     ---       #125
      ---         BLOCKEND  ---      ---       LVL=0

      00FF000EH   BLOCK     CODE     ---       LVL=0
      00FF000EH   LINE      CODE     ---       #128
      00FF000EH   LINE      CODE     ---       #131
      ---         BLOCKEND  ---      ---       LVL=0

      00FFA72BH   BLOCK     CODE     ---       LVL=0
      00FFA72BH   LINE      CODE     ---       #134
      00FFA741H   LINE      CODE     ---       #136
      00FFA744H   LINE      CODE     ---       #137
      ---         BLOCKEND  ---      ---       LVL=0

      00FFA8DCH   BLOCK     CODE     ---       LVL=0
      00FFA8DCH   LINE      CODE     ---       #139
      00FFA8DEH   LINE      CODE     ---       #141
      00FFA8E1H   LINE      CODE     ---       #143
      ---         BLOCKEND  ---      ---       LVL=0

      00FFA8E4H   BLOCK     CODE     ---       LVL=0
      00FFA8E4H   LINE      CODE     ---       #144
      00FFA8E6H   LINE      CODE     ---       #146
      00FFA8E9H   LINE      CODE     ---       #148
      ---         BLOCKEND  ---      ---       LVL=0

      00FFA6F8H   BLOCK     CODE     ---       LVL=0
      00FFA6F8H   LINE      CODE     ---       #150
      00FFA70EH   LINE      CODE     ---       #152
      00FFA711H   LINE      CODE     ---       #153
      00FFA714H   LINE      CODE     ---       #155
      ---         BLOCKEND  ---      ---       LVL=0

L251 LINKER/LOCATER V4.66.93.0                                                        06/19/2025  15:56:37  PAGE 101


      ---         MODULE    ---      ---       main
      00FFA2C9H   PUBLIC    CODE     ---       All_Init
      00FF89F6H   PUBLIC    CODE     ---       main
      000000D0H   SFRSYM    DATA     BYTE      PSW
      0000009DH   SFRSYM    DATA     BYTE      IRCBAND
      00000097H   SFRSYM    DATA     BYTE      AUXR2
      000000EFH   SFRSYM    DATA     BYTE      AUXINTIF
      000000FDH   SFRSYM    DATA     BYTE      S4CON
      000000ACH   SFRSYM    DATA     BYTE      S3CON
      0000009AH   SFRSYM    DATA     BYTE      S2CON
      000000B7H   SFRSYM    DATA     BYTE      IPH
      000000CDH   SFRSYM    DATA     BYTE      SPSTAT
      000000DDH   SFRSYM    DATA     BYTE      T4T3M
      000000C1H   SFRSYM    DATA     BYTE      WDT_CONTR
      000000DFH   SFRSYM    DATA     BYTE      IP3
      000000F4H   SFRSYM    DATA     BYTE      USBCON
      000000B5H   SFRSYM    DATA     BYTE      IP2
      000000FFH   SFRSYM    DATA     BYTE      RSTCFG
      000000F9H   SFRSYM    DATA     BYTE      LINICR
      0000008EH   SFRSYM    DATA     BYTE      AUXR
      000000AFH   SFRSYM    DATA     BYTE      IE2
      00000088H   SFRSYM    DATA     BYTE      TCON
      00000098H   SFRSYM    DATA     BYTE      SCON
      000000F1H   SFRSYM    DATA     BYTE      CANICR
      00000087H   SFRSYM    DATA     BYTE      PCON
      000000BCH   SFRSYM    DATA     BYTE      ADC_CONTR
      000000E7H   SFRSYM    DATA     BYTE      CMPCR2
      000000E6H   SFRSYM    DATA     BYTE      CMPCR1
      000000B8H   SFRSYM    DATA     BYTE      IP
      0000008FH   SFRSYM    DATA     BYTE      INTCLKO
      000000EEH   SFRSYM    DATA     BYTE      IP3H
      000000B6H   SFRSYM    DATA     BYTE      IP2H
      000000A8H   SFRSYM    DATA     BYTE      IE
      000000BBH   SFRSYM    DATA     BYTE      P_SW3
      000000BAH   SFRSYM    DATA     BYTE      P_SW2
      000000A2H   SFRSYM    DATA     BYTE      P_SW1
      000000CEH   SFRSYM    DATA     BYTE      SPCTL
      000000F8H   SFRSYM    DATA     BYTE      P7
      000000E8H   SFRSYM    DATA     BYTE      P6
      000000C8H   SFRSYM    DATA     BYTE      P5
      000000C0H   SFRSYM    DATA     BYTE      P4
      000000B0H   SFRSYM    DATA     BYTE      P3
      000000A0H   SFRSYM    DATA     BYTE      P2
      00000090H   SFRSYM    DATA     BYTE      P1
      00000080H   SFRSYM    DATA     BYTE      P0

      00FF89F6H   BLOCK     CODE     ---       LVL=0
      00FF89F6H   LINE      CODE     ---       #33
      00FF89F6H   LINE      CODE     ---       #35
      00FF89F9H   LINE      CODE     ---       #40
      00FF89FCH   LINE      CODE     ---       #42
      00FF89FCH   LINE      CODE     ---       #44
      00FF89FFH   LINE      CODE     ---       #46
      00FF8A0DH   LINE      CODE     ---       #47
      00FF8A33H   LINE      CODE     ---       #49
      00FF8A42H   LINE      CODE     ---       #50
      00FF8A50H   LINE      CODE     ---       #51
      00FF8A5FH   LINE      CODE     ---       #52
      00FF8A6DH   LINE      CODE     ---       #57
      00FF8A7CH   LINE      CODE     ---       #58
      00FF8A8AH   LINE      CODE     ---       #60
      00FF8A99H   LINE      CODE     ---       #61
      00FF8AA7H   LINE      CODE     ---       #63
      00FF8AB6H   LINE      CODE     ---       #64
      00FF8AC4H   LINE      CODE     ---       #66
L251 LINKER/LOCATER V4.66.93.0                                                        06/19/2025  15:56:37  PAGE 102


      00FF8AD3H   LINE      CODE     ---       #67
      00FF8B21H   LINE      CODE     ---       #69
      00FF8B30H   LINE      CODE     ---       #70
      00FF8B5FH   LINE      CODE     ---       #75
      00FF8B62H   LINE      CODE     ---       #76
      ---         BLOCKEND  ---      ---       LVL=0

      00FFA2C9H   BLOCK     CODE     ---       LVL=0
      00FFA2C9H   LINE      CODE     ---       #78
      00FFA2C9H   LINE      CODE     ---       #81
      00FFA2CCH   LINE      CODE     ---       #82
      00FFA2D0H   LINE      CODE     ---       #85
      00FFA2D5H   LINE      CODE     ---       #86
      00FFA2E0H   LINE      CODE     ---       #88
      00FFA2E3H   LINE      CODE     ---       #89
      00FFA2EAH   LINE      CODE     ---       #90
      00FFA2F1H   LINE      CODE     ---       #91
      00FFA2FCH   LINE      CODE     ---       #92
      00FFA307H   LINE      CODE     ---       #93
      00FFA312H   LINE      CODE     ---       #98
      00FFA315H   LINE      CODE     ---       #101
      00FFA320H   LINE      CODE     ---       #102
      ---         BLOCKEND  ---      ---       LVL=0

      ---         MODULE    ---      ---       Control
      00FF68E1H   PUBLIC    CODE     ---       ADC_Measure
      00FF7D61H   PUBLIC    CODE     ---       PID_Realize
      00FF007CH   PUBLIC    CODE     ---       Ultima_Control
      00FF86DDH   PUBLIC    CODE     ---       Key_Pro
      00FF7AFBH   PUBLIC    CODE     ---       Loc_pid
      00FF6D04H   PUBLIC    CODE     ---       Motor_Control
      00FFA321H   PUBLIC    CODE     ---       absolute
      00FF9A61H   PUBLIC    CODE     ---       range_protect
      000101D0H   PUBLIC    XDATA    ---       Left_MOTOR
      000101E8H   PUBLIC    XDATA    ---       Turn_PID_ele
      00010216H   PUBLIC    XDATA    INT       R2
      00010218H   PUBLIC    XDATA    BYTE      key1_status
      00010219H   PUBLIC    XDATA    BYTE      key2_status
      0001021AH   PUBLIC    XDATA    BYTE      running
      0001021BH   PUBLIC    XDATA    BYTE      key3_status
      0001021CH   PUBLIC    XDATA    BYTE      key4_status
      0001021DH   PUBLIC    XDATA    DOUBLE    encoder_L
      00010225H   PUBLIC    XDATA    DOUBLE    encoder_R
      0001022DH   PUBLIC    XDATA    BYTE      key1_last_status
      0001022EH   PUBLIC    XDATA    BYTE      key2_last_status
      0001022FH   PUBLIC    XDATA    BYTE      key3_last_status
      00010230H   PUBLIC    XDATA    BYTE      key4_last_status
      00010231H   PUBLIC    XDATA    BYTE      sw1_status
      00010232H   PUBLIC    XDATA    BYTE      sw2_status
      00010233H   PUBLIC    XDATA    DOUBLE    LEFT_MOTOR_Duty
      0001023BH   PUBLIC    XDATA    WORD      Bat_Vol
      0001023DH   PUBLIC    XDATA    DOUBLE    Distance
      00010245H   PUBLIC    XDATA    INT       eleDiff
      00010247H   PUBLIC    XDATA    ---       Right_MOTOR_PID
      00010275H   PUBLIC    XDATA    INT       youhuandaoleijia
      00010277H   PUBLIC    XDATA    DOUBLE    Right_High_Speed
      0001027FH   PUBLIC    XDATA    DOUBLE    eleValue
      00010287H   PUBLIC    XDATA    DOUBLE    Distance_Int
      0001028FH   PUBLIC    XDATA    ---       Left_MOTOR_PID
      000102BDH   PUBLIC    XDATA    ---       Turn_ele
      000102DDH   PUBLIC    XDATA    DOUBLE    Left_High_Speed
      000102E5H   PUBLIC    XDATA    INT       youhuandao_flag2_s
      000102E7H   PUBLIC    XDATA    INT       youhuandao_flag3_s
      000102E9H   PUBLIC    XDATA    INT       L
      000102EBH   PUBLIC    XDATA    INT       M
L251 LINKER/LOCATER V4.66.93.0                                                        06/19/2025  15:56:37  PAGE 103


      000102EDH   PUBLIC    XDATA    ---       adc_min
      000102F7H   PUBLIC    XDATA    INT       R
      000102F9H   PUBLIC    XDATA    ---       adc_max
      00010303H   PUBLIC    XDATA    BYTE      run
      00010304H   PUBLIC    XDATA    BYTE      Right_Vector
      00010305H   PUBLIC    XDATA    BYTE      Left_Vector
      00010306H   PUBLIC    XDATA    INT       eleSum
      00010308H   PUBLIC    XDATA    DOUBLE    eleOut
      00010310H   PUBLIC    XDATA    ---       Right_MOTOR
      00010328H   PUBLIC    XDATA    BYTE      key1_flag
      00010329H   PUBLIC    XDATA    BYTE      key2_flag
      0001032AH   PUBLIC    XDATA    BYTE      key3_flag
      0001032BH   PUBLIC    XDATA    BYTE      key4_flag
      0001032CH   PUBLIC    XDATA    DOUBLE    RIGHT_MOTOR_Duty
      00010334H   PUBLIC    XDATA    FLOAT     Gyro_z
      00010338H   PUBLIC    XDATA    INT       L2
      00000020H.0 PUBLIC    BIT      BIT       Gyro_Int
      00000020H.1 PUBLIC    BIT      BIT       Encoder_Int
      00000008H   PUBLIC    DATA     INT       youhuandao_flag1
      00010A0EH   PUBLIC    XDATA    BYTE      ?range_protect?BYTE
      00010A26H   PUBLIC    XDATA    BYTE      ?Loc_pid?BYTE
      000108C5H   PUBLIC    XDATA    BYTE      ?PID_Realize?BYTE
      000000D0H   SFRSYM    DATA     BYTE      PSW
      0000009DH   SFRSYM    DATA     BYTE      IRCBAND
      00000097H   SFRSYM    DATA     BYTE      AUXR2
      000000EFH   SFRSYM    DATA     BYTE      AUXINTIF
      000000FDH   SFRSYM    DATA     BYTE      S4CON
      000000ACH   SFRSYM    DATA     BYTE      S3CON
      0000009AH   SFRSYM    DATA     BYTE      S2CON
      000000B7H   SFRSYM    DATA     BYTE      IPH
      000000CDH   SFRSYM    DATA     BYTE      SPSTAT
      000000DDH   SFRSYM    DATA     BYTE      T4T3M
      000000C1H   SFRSYM    DATA     BYTE      WDT_CONTR
      000000DFH   SFRSYM    DATA     BYTE      IP3
      000000F4H   SFRSYM    DATA     BYTE      USBCON
      000000B5H   SFRSYM    DATA     BYTE      IP2
      000000FFH   SFRSYM    DATA     BYTE      RSTCFG
      000000F9H   SFRSYM    DATA     BYTE      LINICR
      0000008EH   SFRSYM    DATA     BYTE      AUXR
      000000AFH   SFRSYM    DATA     BYTE      IE2
      000000E8H.5 SFRSYM    DATA     BIT       P65
      000000E8H.4 SFRSYM    DATA     BIT       P64
      00000088H   SFRSYM    DATA     BYTE      TCON
      00000098H   SFRSYM    DATA     BYTE      SCON
      000000F1H   SFRSYM    DATA     BYTE      CANICR
      00000087H   SFRSYM    DATA     BYTE      PCON
      000000BCH   SFRSYM    DATA     BYTE      ADC_CONTR
      000000E7H   SFRSYM    DATA     BYTE      CMPCR2
      000000E6H   SFRSYM    DATA     BYTE      CMPCR1
      000000B8H   SFRSYM    DATA     BYTE      IP
      0000008FH   SFRSYM    DATA     BYTE      INTCLKO
      000000EEH   SFRSYM    DATA     BYTE      IP3H
      000000B6H   SFRSYM    DATA     BYTE      IP2H
      000000A8H   SFRSYM    DATA     BYTE      IE
      000000BBH   SFRSYM    DATA     BYTE      P_SW3
      000000BAH   SFRSYM    DATA     BYTE      P_SW2
      000000A2H   SFRSYM    DATA     BYTE      P_SW1
      000000CEH   SFRSYM    DATA     BYTE      SPCTL
      000000F8H   SFRSYM    DATA     BYTE      P7
      000000E8H   SFRSYM    DATA     BYTE      P6
      000000C8H   SFRSYM    DATA     BYTE      P5
      000000C0H   SFRSYM    DATA     BYTE      P4
      000000B0H   SFRSYM    DATA     BYTE      P3
      000000A0H   SFRSYM    DATA     BYTE      P2
      00000090H   SFRSYM    DATA     BYTE      P1
L251 LINKER/LOCATER V4.66.93.0                                                        06/19/2025  15:56:37  PAGE 104


      00000080H   SFRSYM    DATA     BYTE      P0

      00FF9A61H   BLOCK     CODE     ---       LVL=0
      00010A0EH   SYMBOL    XDATA    DOUBLE    duty
      00010A16H   SYMBOL    XDATA    DOUBLE    min
      00010A1EH   SYMBOL    XDATA    DOUBLE    max
      00FF9A61H   LINE      CODE     ---       #75
      00FF9A73H   LINE      CODE     ---       #77
      00FF9AFFH   LINE      CODE     ---       #78
      ---         BLOCKEND  ---      ---       LVL=0

      00FF6D04H   BLOCK     CODE     ---       LVL=0
      00FF6D04H   LINE      CODE     ---       #84
      00FF6D04H   LINE      CODE     ---       #87
      00FF6D22H   LINE      CODE     ---       #88
      00FF6D4BH   LINE      CODE     ---       #91
      00FF6D4EH   LINE      CODE     ---       #94
      00FF6D51H   LINE      CODE     ---       #97
      00FF6D7BH   LINE      CODE     ---       #98
      00FF6DA5H   LINE      CODE     ---       #101
      00FF6DD9H   LINE      CODE     ---       #103
      00FF6E22H   LINE      CODE     ---       #110
      00FF6EBAH   LINE      CODE     ---       #111
      00FF6F52H   LINE      CODE     ---       #119
      00FF6F6DH   LINE      CODE     ---       #121
      00FF6FC6H   LINE      CODE     ---       #122
      00FF6FC8H   LINE      CODE     ---       #125
      00FF7021H   LINE      CODE     ---       #126
      00FF7021H   LINE      CODE     ---       #128
      00FF703CH   LINE      CODE     ---       #130
      00FF7095H   LINE      CODE     ---       #131
      00FF7097H   LINE      CODE     ---       #134
      00FF70F0H   LINE      CODE     ---       #135
      00FF70F0H   LINE      CODE     ---       #138
      00FF7125H   LINE      CODE     ---       #140
      ---         BLOCKEND  ---      ---       LVL=0

      00FF007CH   BLOCK     CODE     ---       LVL=0
      00FF007CH   LINE      CODE     ---       #146
      00FF007CH   LINE      CODE     ---       #159
      00FF007FH   LINE      CODE     ---       #161
      00FF0082H   LINE      CODE     ---       #162
      ---         BLOCKEND  ---      ---       LVL=0

      00FF68E1H   BLOCK     CODE     ---       LVL=0
      00FF68E1H   LINE      CODE     ---       #167
      00FF68E1H   LINE      CODE     ---       #169
      00FF68ECH   LINE      CODE     ---       #170
      00FF68F9H   LINE      CODE     ---       #171
      00FF6906H   LINE      CODE     ---       #172
      00FF6913H   LINE      CODE     ---       #173
      00FF6920H   LINE      CODE     ---       #175
      00FF695DH   LINE      CODE     ---       #176
      00FF699AH   LINE      CODE     ---       #177
      00FF69D7H   LINE      CODE     ---       #178
      00FF6A14H   LINE      CODE     ---       #179
      00FF6A51H   LINE      CODE     ---       #181
      00FF6A6DH   LINE      CODE     ---       #182
      00FF6A8DH   LINE      CODE     ---       #183
      00FF6AA9H   LINE      CODE     ---       #184
      00FF6AC9H   LINE      CODE     ---       #185
      00FF6AE5H   LINE      CODE     ---       #186
      00FF6B05H   LINE      CODE     ---       #187
      00FF6B21H   LINE      CODE     ---       #188
      00FF6B41H   LINE      CODE     ---       #189
L251 LINKER/LOCATER V4.66.93.0                                                        06/19/2025  15:56:37  PAGE 105


      00FF6B5DH   LINE      CODE     ---       #190
      00FF6B7DH   LINE      CODE     ---       #192
      00FF6C2CH   LINE      CODE     ---       #193
      00FF6CDBH   LINE      CODE     ---       #194
      00FF6CEFH   LINE      CODE     ---       #195
      00FF6D03H   LINE      CODE     ---       #197
      ---         BLOCKEND  ---      ---       LVL=0

      00FF86DDH   BLOCK     CODE     ---       LVL=0
      0001033AH   SYMBOL    XDATA    WORD      Voltage_Count
      00000020H.2 SYMBOL    BIT      BIT       Voltage_Flag
      00010F4CH   SYMBOL    XDATA    INT       key
      00FF86DDH   LINE      CODE     ---       #224
      00FF86DDH   LINE      CODE     ---       #225
      00FF86DDH   LINE      CODE     ---       #229
      00FF86E8H   LINE      CODE     ---       #231
      00FF86F1H   LINE      CODE     ---       #233
      00FF86F4H   LINE      CODE     ---       #234
      00FF86F4H   LINE      CODE     ---       #235
      00FF86FDH   LINE      CODE     ---       #238
      00FF871FH   LINE      CODE     ---       #239
      00FF8722H   LINE      CODE     ---       #241
      00FF8725H   LINE      CODE     ---       #242
      00FF872EH   LINE      CODE     ---       #243
      00FF872EH   LINE      CODE     ---       #245
      00FF873FH   LINE      CODE     ---       #247
      00FF874DH   LINE      CODE     ---       #249
      00FF8752H   LINE      CODE     ---       #250
      00FF8755H   LINE      CODE     ---       #251
      00FF875AH   LINE      CODE     ---       #252
      00FF875AH   LINE      CODE     ---       #253
      00FF8768H   LINE      CODE     ---       #255
      00FF876BH   LINE      CODE     ---       #256
      00FF8770H   LINE      CODE     ---       #257
      00FF8770H   LINE      CODE     ---       #259
      00FF8787H   LINE      CODE     ---       #261
      00FF878DH   LINE      CODE     ---       #263
      00FF878DH   LINE      CODE     ---       #265
      00FF87CCH   LINE      CODE     ---       #266
      00FF87D2H   LINE      CODE     ---       #269
      00FF87E4H   LINE      CODE     ---       #271
      00FF87FEH   LINE      CODE     ---       #272
      00FF8818H   LINE      CODE     ---       #273
      00FF8818H   LINE      CODE     ---       #274
      00FF882AH   LINE      CODE     ---       #276
      00FF8840H   LINE      CODE     ---       #277
      00FF8856H   LINE      CODE     ---       #278
      00FF886CH   LINE      CODE     ---       #279
      ---         BLOCKEND  ---      ---       LVL=0

      00FFA321H   BLOCK     CODE     ---       LVL=0
      00010DAAH   SYMBOL    XDATA    FLOAT     error2
      00FFA32BH   BLOCK     CODE     NEAR LAB  LVL=1
      00010DAEH   SYMBOL    XDATA    FLOAT     real_error2
      ---         BLOCKEND  ---      ---       LVL=1
      00FFA321H   LINE      CODE     ---       #283
      00FFA32BH   LINE      CODE     ---       #285
      00FFA352H   LINE      CODE     ---       #286
      00FFA369H   LINE      CODE     ---       #287
      00FFA373H   LINE      CODE     ---       #288
      ---         BLOCKEND  ---      ---       LVL=0

      00FF7AFBH   BLOCK     CODE     ---       LVL=0
      00010A26H   SYMBOL    XDATA    ---       sptr
      00010A2AH   SYMBOL    XDATA    DOUBLE    error
L251 LINKER/LOCATER V4.66.93.0                                                        06/19/2025  15:56:37  PAGE 106


      00010A32H   SYMBOL    XDATA    ---       Turn_PID
      00FF7B0FH   BLOCK     CODE     NEAR LAB  LVL=1
      00010A36H   SYMBOL    XDATA    DOUBLE    Loc_out
      ---         BLOCKEND  ---      ---       LVL=1
      00FF7AFBH   LINE      CODE     ---       #293
      00FF7B0FH   LINE      CODE     ---       #294
      00FF7B0FH   LINE      CODE     ---       #298
      00FF7B45H   LINE      CODE     ---       #299
      00FF7B7FH   LINE      CODE     ---       #300
      00FF7BB9H   LINE      CODE     ---       #301
      00FF7BF3H   LINE      CODE     ---       #303
      00FF7D28H   LINE      CODE     ---       #308
      00FF7D4EH   LINE      CODE     ---       #309
      00FF7D60H   LINE      CODE     ---       #310
      ---         BLOCKEND  ---      ---       LVL=0

      00FF7D61H   BLOCK     CODE     ---       LVL=0
      000108C5H   SYMBOL    XDATA    ---       sptr
      000108C9H   SYMBOL    XDATA    DOUBLE    ActualSpeed
      000108D1H   SYMBOL    XDATA    DOUBLE    SetSpeed
      000108D9H   SYMBOL    XDATA    ---       MOTOR_PID
      00FF7D75H   BLOCK     CODE     NEAR LAB  LVL=1
      000108DDH   SYMBOL    XDATA    DOUBLE    Increase
      ---         BLOCKEND  ---      ---       LVL=1
      00FF7D61H   LINE      CODE     ---       #317
      00FF7D75H   LINE      CODE     ---       #318
      00FF7D75H   LINE      CODE     ---       #321
      00FF7DABH   LINE      CODE     ---       #322
      00FF7DE5H   LINE      CODE     ---       #323
      00FF7E1FH   LINE      CODE     ---       #325
      00FF7E58H   LINE      CODE     ---       #327
      00FF7F5FH   LINE      CODE     ---       #331
      00FF7F7DH   LINE      CODE     ---       #332
      00FF7F99H   LINE      CODE     ---       #334
      00FF7FABH   LINE      CODE     ---       #335
      ---         BLOCKEND  ---      ---       LVL=0

      ---         MODULE    ---      ---       Key
      00FF77FEH   PUBLIC    CODE     ---       Key_Single_Double
      000000D0H   SFRSYM    DATA     BYTE      PSW
      0000009DH   SFRSYM    DATA     BYTE      IRCBAND
      00000097H   SFRSYM    DATA     BYTE      AUXR2
      000000EFH   SFRSYM    DATA     BYTE      AUXINTIF
      000000FDH   SFRSYM    DATA     BYTE      S4CON
      000000ACH   SFRSYM    DATA     BYTE      S3CON
      0000009AH   SFRSYM    DATA     BYTE      S2CON
      000000B7H   SFRSYM    DATA     BYTE      IPH
      000000CDH   SFRSYM    DATA     BYTE      SPSTAT
      000000DDH   SFRSYM    DATA     BYTE      T4T3M
      000000C1H   SFRSYM    DATA     BYTE      WDT_CONTR
      000000DFH   SFRSYM    DATA     BYTE      IP3
      000000F4H   SFRSYM    DATA     BYTE      USBCON
      000000B5H   SFRSYM    DATA     BYTE      IP2
      000000FFH   SFRSYM    DATA     BYTE      RSTCFG
      000000F9H   SFRSYM    DATA     BYTE      LINICR
      0000008EH   SFRSYM    DATA     BYTE      AUXR
      000000AFH   SFRSYM    DATA     BYTE      IE2
      000000B0H.7 SFRSYM    DATA     BIT       P37
      000000B0H.6 SFRSYM    DATA     BIT       P36
      000000B0H.5 SFRSYM    DATA     BIT       P35
      00000088H   SFRSYM    DATA     BYTE      TCON
      00000098H   SFRSYM    DATA     BYTE      SCON
      000000F1H   SFRSYM    DATA     BYTE      CANICR
      00000087H   SFRSYM    DATA     BYTE      PCON
      000000BCH   SFRSYM    DATA     BYTE      ADC_CONTR
L251 LINKER/LOCATER V4.66.93.0                                                        06/19/2025  15:56:37  PAGE 107


      000000E7H   SFRSYM    DATA     BYTE      CMPCR2
      000000E6H   SFRSYM    DATA     BYTE      CMPCR1
      000000B8H   SFRSYM    DATA     BYTE      IP
      0000008FH   SFRSYM    DATA     BYTE      INTCLKO
      000000EEH   SFRSYM    DATA     BYTE      IP3H
      000000B6H   SFRSYM    DATA     BYTE      IP2H
      000000A8H   SFRSYM    DATA     BYTE      IE
      000000BBH   SFRSYM    DATA     BYTE      P_SW3
      000000BAH   SFRSYM    DATA     BYTE      P_SW2
      000000A2H   SFRSYM    DATA     BYTE      P_SW1
      000000CEH   SFRSYM    DATA     BYTE      SPCTL
      000000F8H   SFRSYM    DATA     BYTE      P7
      000000E8H   SFRSYM    DATA     BYTE      P6
      000000C8H   SFRSYM    DATA     BYTE      P5
      000000C0H   SFRSYM    DATA     BYTE      P4
      000000B0H   SFRSYM    DATA     BYTE      P3
      000000A0H   SFRSYM    DATA     BYTE      P2
      00000090H   SFRSYM    DATA     BYTE      P1
      00000080H   SFRSYM    DATA     BYTE      P0

      00FF77FEH   BLOCK     CODE     ---       LVL=0
      00010DC7H   SYMBOL    XDATA    BYTE      double_click_time
      00FF7802H   BLOCK     CODE     NEAR LAB  LVL=1
      00010C5DH   SYMBOL    XDATA    BYTE      state
      00010C5EH   SYMBOL    XDATA    INT       first_key
      00010C60H   SYMBOL    XDATA    WORD      press_count
      00010C62H   SYMBOL    XDATA    WORD      release_count
      00010C64H   SYMBOL    XDATA    BYTE      debounce_count
      00010C65H   SYMBOL    XDATA    BYTE      last_up_state
      00010C66H   SYMBOL    XDATA    BYTE      last_down_state
      00010C67H   SYMBOL    XDATA    BYTE      last_enter_state
      00010DC8H   SYMBOL    XDATA    BYTE      current_up
      00010DC9H   SYMBOL    XDATA    BYTE      current_down
      00010DCAH   SYMBOL    XDATA    BYTE      current_enter
      00010DCBH   SYMBOL    XDATA    BYTE      up_pressed
      00010DCCH   SYMBOL    XDATA    BYTE      down_pressed
      00010DCDH   SYMBOL    XDATA    BYTE      enter_pressed
      ---         BLOCKEND  ---      ---       LVL=1
      00FF77FEH   LINE      CODE     ---       #8
      00FF7802H   LINE      CODE     ---       #9
      00FF7802H   LINE      CODE     ---       #23
      00FF7811H   LINE      CODE     ---       #26
      00FF7819H   LINE      CODE     ---       #27
      00FF7821H   LINE      CODE     ---       #28
      00FF7829H   LINE      CODE     ---       #31
      00FF7853H   LINE      CODE     ---       #35
      00FF7858H   LINE      CODE     ---       #36
      00FF7860H   LINE      CODE     ---       #37
      00FF7868H   LINE      CODE     ---       #38
      00FF7870H   LINE      CODE     ---       #39
      00FF7877H   LINE      CODE     ---       #40
      00FF7877H   LINE      CODE     ---       #41
      00FF7883H   LINE      CODE     ---       #43
      00FF788EH   LINE      CODE     ---       #44
      00FF7895H   LINE      CODE     ---       #45
      00FF7895H   LINE      CODE     ---       #48
      00FF78A7H   LINE      CODE     ---       #49
      00FF78B9H   LINE      CODE     ---       #50
      00FF78CBH   LINE      CODE     ---       #54
      00FF78EEH   LINE      CODE     ---       #56
      00FF78EEH   LINE      CODE     ---       #57
      00FF78F7H   LINE      CODE     ---       #59
      00FF78FFH   LINE      CODE     ---       #60
      00FF7907H   LINE      CODE     ---       #61
      00FF790DH   LINE      CODE     ---       #62
L251 LINKER/LOCATER V4.66.93.0                                                        06/19/2025  15:56:37  PAGE 108


      00FF7910H   LINE      CODE     ---       #63
      00FF7919H   LINE      CODE     ---       #65
      00FF7923H   LINE      CODE     ---       #66
      00FF792BH   LINE      CODE     ---       #67
      00FF7931H   LINE      CODE     ---       #68
      00FF7934H   LINE      CODE     ---       #69
      00FF7940H   LINE      CODE     ---       #71
      00FF794AH   LINE      CODE     ---       #72
      00FF7952H   LINE      CODE     ---       #73
      00FF7958H   LINE      CODE     ---       #74
      00FF7958H   LINE      CODE     ---       #75
      00FF795BH   LINE      CODE     ---       #77
      00FF795BH   LINE      CODE     ---       #78
      00FF796AH   LINE      CODE     ---       #81
      00FF7978H   LINE      CODE     ---       #84
      00FF797EH   LINE      CODE     ---       #85
      00FF7986H   LINE      CODE     ---       #86
      00FF7986H   LINE      CODE     ---       #89
      00FF79AAH   LINE      CODE     ---       #92
      00FF79B2H   LINE      CODE     ---       #93
      00FF79B8H   LINE      CODE     ---       #94
      00FF79B8H   LINE      CODE     ---       #95
      00FF79BBH   LINE      CODE     ---       #97
      00FF79BBH   LINE      CODE     ---       #99
      00FF79DFH   LINE      CODE     ---       #101
      00FF79E4H   LINE      CODE     ---       #104
      00FF79F0H   LINE      CODE     ---       #106
      00FF79F7H   LINE      CODE     ---       #107
      00FF79F7H   LINE      CODE     ---       #108
      00FF7A05H   LINE      CODE     ---       #110
      00FF7A0CH   LINE      CODE     ---       #111
      00FF7A0CH   LINE      CODE     ---       #112
      00FF7A1DH   LINE      CODE     ---       #114
      00FF7A24H   LINE      CODE     ---       #115
      00FF7A24H   LINE      CODE     ---       #117
      00FF7A24H   LINE      CODE     ---       #119
      00FF7A24H   LINE      CODE     ---       #120
      00FF7A33H   LINE      CODE     ---       #123
      00FF7A43H   LINE      CODE     ---       #125
      00FF7A48H   LINE      CODE     ---       #126
      00FF7A51H   LINE      CODE     ---       #127
      00FF7A51H   LINE      CODE     ---       #130
      00FF7A94H   LINE      CODE     ---       #134
      00FF7A9AH   LINE      CODE     ---       #135
      00FF7A9AH   LINE      CODE     ---       #136
      00FF7A9CH   LINE      CODE     ---       #138
      00FF7A9CH   LINE      CODE     ---       #140
      00FF7AB7H   LINE      CODE     ---       #142
      00FF7ABCH   LINE      CODE     ---       #145
      00FF7AC8H   LINE      CODE     ---       #147
      00FF7ACEH   LINE      CODE     ---       #148
      00FF7ACEH   LINE      CODE     ---       #149
      00FF7ADCH   LINE      CODE     ---       #151
      00FF7AE2H   LINE      CODE     ---       #152
      00FF7AE2H   LINE      CODE     ---       #153
      00FF7AF0H   LINE      CODE     ---       #155
      00FF7AF6H   LINE      CODE     ---       #156
      00FF7AF6H   LINE      CODE     ---       #158
      00FF7AF6H   LINE      CODE     ---       #159
      00FF7AF6H   LINE      CODE     ---       #161
      00FF7AFAH   LINE      CODE     ---       #163
      ---         BLOCKEND  ---      ---       LVL=0

      ---         MODULE    ---      ---       seekfree_assistant
      00FF886DH   PUBLIC    CODE     ---       seekfree_assistant_oscilloscope_send
L251 LINKER/LOCATER V4.66.93.0                                                        06/19/2025  15:56:37  PAGE 109


      00010344H   PUBLIC    XDATA    ---       seekfree_assistant_oscilloscope_data
      0001037FH   PUBLIC    XDATA    ---       seekfree_assistant_parameter_update_flag
      00010387H   PUBLIC    XDATA    ---       seekfree_assistant_parameter
      00010B46H   PUBLIC    XDATA    BYTE      ?seekfree_assistant_camera_data_send?BYTE
      00010C9AH   PUBLIC    XDATA    BYTE      ?seekfree_assistant_camera_information_config?BYTE
      000108E5H   PUBLIC    XDATA    BYTE      ?seekfree_assistant_camera_boundary_config?BYTE
      000000D0H   SFRSYM    DATA     BYTE      PSW
      0000009DH   SFRSYM    DATA     BYTE      IRCBAND
      00000097H   SFRSYM    DATA     BYTE      AUXR2
      000000EFH   SFRSYM    DATA     BYTE      AUXINTIF
      000000FDH   SFRSYM    DATA     BYTE      S4CON
      000000ACH   SFRSYM    DATA     BYTE      S3CON
      0000009AH   SFRSYM    DATA     BYTE      S2CON
      000000B7H   SFRSYM    DATA     BYTE      IPH
      000000CDH   SFRSYM    DATA     BYTE      SPSTAT
      000000DDH   SFRSYM    DATA     BYTE      T4T3M
      000000C1H   SFRSYM    DATA     BYTE      WDT_CONTR
      000000DFH   SFRSYM    DATA     BYTE      IP3
      000000F4H   SFRSYM    DATA     BYTE      USBCON
      000000B5H   SFRSYM    DATA     BYTE      IP2
      000000FFH   SFRSYM    DATA     BYTE      RSTCFG
      000000F9H   SFRSYM    DATA     BYTE      LINICR
      0000008EH   SFRSYM    DATA     BYTE      AUXR
      000000AFH   SFRSYM    DATA     BYTE      IE2
      00000088H   SFRSYM    DATA     BYTE      TCON
      00000098H   SFRSYM    DATA     BYTE      SCON
      000000F1H   SFRSYM    DATA     BYTE      CANICR
      00000087H   SFRSYM    DATA     BYTE      PCON
      000000BCH   SFRSYM    DATA     BYTE      ADC_CONTR
      000000E7H   SFRSYM    DATA     BYTE      CMPCR2
      000000E6H   SFRSYM    DATA     BYTE      CMPCR1
      000000B8H   SFRSYM    DATA     BYTE      IP
      0000008FH   SFRSYM    DATA     BYTE      INTCLKO
      000000EEH   SFRSYM    DATA     BYTE      IP3H
      000000B6H   SFRSYM    DATA     BYTE      IP2H
      000000A8H   SFRSYM    DATA     BYTE      IE
      000000BBH   SFRSYM    DATA     BYTE      P_SW3
      000000BAH   SFRSYM    DATA     BYTE      P_SW2
      000000A2H   SFRSYM    DATA     BYTE      P_SW1
      000000CEH   SFRSYM    DATA     BYTE      SPCTL
      000000F8H   SFRSYM    DATA     BYTE      P7
      000000E8H   SFRSYM    DATA     BYTE      P6
      000000C8H   SFRSYM    DATA     BYTE      P5
      000000C0H   SFRSYM    DATA     BYTE      P4
      000000B0H   SFRSYM    DATA     BYTE      P3
      000000A0H   SFRSYM    DATA     BYTE      P2
      00000090H   SFRSYM    DATA     BYTE      P1
      00000080H   SFRSYM    DATA     BYTE      P0
      00FFA1BFH   SYMBOL    CODE     ---       seekfree_assistant_sum
      0001033CH   SYMBOL    XDATA    ---       seekfree_assistant_camera_dot_data
      00010368H   SYMBOL    XDATA    ---       seekfree_assistant_fifo
      000103A7H   SYMBOL    XDATA    ---       seekfree_assistant_camera_buffer
      000103F1H   SYMBOL    XDATA    ---       seekfree_assistant_camera_data
      000103F9H   SYMBOL    XDATA    ---       seekfree_assistant_buffer

      00FFA1BFH   BLOCK     CODE     ---       LVL=0
      00010D19H   SYMBOL    XDATA    ---       buffer
      00010D1DH   SYMBOL    XDATA    DWORD     length
      00FFA1D3H   BLOCK     CODE     NEAR LAB  LVL=1
      00010D21H   SYMBOL    XDATA    BYTE      temp_sum
      ---         BLOCKEND  ---      ---       LVL=1
      00FFA1BFH   LINE      CODE     ---       #39
      00FFA1D3H   LINE      CODE     ---       #40
      00FFA1D3H   LINE      CODE     ---       #41
      00FFA1D8H   LINE      CODE     ---       #43
L251 LINKER/LOCATER V4.66.93.0                                                        06/19/2025  15:56:37  PAGE 110


      00FFA1DAH   LINE      CODE     ---       #45
      00FFA1F7H   LINE      CODE     ---       #46
      00FFA214H   LINE      CODE     ---       #48
      00FFA218H   LINE      CODE     ---       #49
      ---         BLOCKEND  ---      ---       LVL=0
      00010B46H   SYMBOL    XDATA    INT       camera_type
      00010B48H   SYMBOL    XDATA    ---       image_addr
      00010B4CH   SYMBOL    XDATA    BYTE      boundary_num
      00010B4DH   SYMBOL    XDATA    WORD      width
      00010B4FH   SYMBOL    XDATA    WORD      height
      00010B51H   SYMBOL    XDATA    DWORD     image_size
      00010C9AH   SYMBOL    XDATA    INT       camera_type
      00010C9CH   SYMBOL    XDATA    ---       image_addr
      00010CA0H   SYMBOL    XDATA    WORD      width
      00010CA2H   SYMBOL    XDATA    WORD      height

      00FF886DH   BLOCK     CODE     ---       LVL=0
      0001082EH   SYMBOL    XDATA    ---       seekfree_assistant_oscilloscope
      00FF8877H   BLOCK     CODE     NEAR LAB  LVL=1
      00010832H   SYMBOL    XDATA    BYTE      packet_size
      00010833H   SYMBOL    XDATA    BYTE      i
      00010834H   SYMBOL    XDATA    ---       temp_oscilloscope
      ---         BLOCKEND  ---      ---       LVL=1
      00FF886DH   LINE      CODE     ---       #131
      00FF8877H   LINE      CODE     ---       #132
      00FF8877H   LINE      CODE     ---       #134
      00FF887CH   LINE      CODE     ---       #137
      00FF8893H   LINE      CODE     ---       #140
      00FF889BH   LINE      CODE     ---       #142
      00FF88D1H   LINE      CODE     ---       #143
      00FF8907H   LINE      CODE     ---       #144
      00FF893DH   LINE      CODE     ---       #145
      00FF8973H   LINE      CODE     ---       #146
      00FF898FH   LINE      CODE     ---       #149
      00FF8995H   LINE      CODE     ---       #152
      00FF89AFH   LINE      CODE     ---       #153
      00FF89B7H   LINE      CODE     ---       #156
      00FF89C1H   LINE      CODE     ---       #159
      00FF89C6H   LINE      CODE     ---       #160
      00FF89DDH   LINE      CODE     ---       #164
      00FF89F5H   LINE      CODE     ---       #165
      ---         BLOCKEND  ---      ---       LVL=0
      00010DCEH   SYMBOL    XDATA    ---       buffer
      00010DD2H   SYMBOL    XDATA    BYTE      i
      00010DD3H   SYMBOL    XDATA    WORD      dot_bytes
      000108E5H   SYMBOL    XDATA    INT       boundary_type
      000108E7H   SYMBOL    XDATA    WORD      dot_num
      000108E9H   SYMBOL    XDATA    ---       dot_x1
      000108EDH   SYMBOL    XDATA    ---       dot_x2
      000108F1H   SYMBOL    XDATA    ---       dot_x3
      000108F5H   SYMBOL    XDATA    ---       dot_y1
      000108F9H   SYMBOL    XDATA    ---       dot_y2
      000108FDH   SYMBOL    XDATA    ---       dot_y3
      00010901H   SYMBOL    XDATA    BYTE      i
      00010902H   SYMBOL    XDATA    BYTE      boundary_num
      00010903H   SYMBOL    XDATA    BYTE      boundary_data_type
      0001050EH   SYMBOL    XDATA    BYTE      temp_sum
      0001050FH   SYMBOL    XDATA    DWORD     read_length
      00010513H   SYMBOL    XDATA    ---       receive_packet
      00010517H   SYMBOL    XDATA    ---       temp_buffer
      00010597H   SYMBOL    XDATA    DWORD     i

      ---         MODULE    ---      ---       seekfree_assistant_inface
      00010EE8H   PUBLIC    XDATA    ---       seekfree_assistant_receive
      00010EEAH   PUBLIC    XDATA    ---       seekfree_assistant_transfer
L251 LINKER/LOCATER V4.66.93.0                                                        06/19/2025  15:56:37  PAGE 111


      000000D0H   SFRSYM    DATA     BYTE      PSW
      0000009DH   SFRSYM    DATA     BYTE      IRCBAND
      00000097H   SFRSYM    DATA     BYTE      AUXR2
      000000EFH   SFRSYM    DATA     BYTE      AUXINTIF
      000000FDH   SFRSYM    DATA     BYTE      S4CON
      000000ACH   SFRSYM    DATA     BYTE      S3CON
      0000009AH   SFRSYM    DATA     BYTE      S2CON
      000000B7H   SFRSYM    DATA     BYTE      IPH
      000000CDH   SFRSYM    DATA     BYTE      SPSTAT
      000000DDH   SFRSYM    DATA     BYTE      T4T3M
      000000C1H   SFRSYM    DATA     BYTE      WDT_CONTR
      000000DFH   SFRSYM    DATA     BYTE      IP3
      000000F4H   SFRSYM    DATA     BYTE      USBCON
      000000B5H   SFRSYM    DATA     BYTE      IP2
      000000FFH   SFRSYM    DATA     BYTE      RSTCFG
      000000F9H   SFRSYM    DATA     BYTE      LINICR
      0000008EH   SFRSYM    DATA     BYTE      AUXR
      000000AFH   SFRSYM    DATA     BYTE      IE2
      00000088H   SFRSYM    DATA     BYTE      TCON
      00000098H   SFRSYM    DATA     BYTE      SCON
      000000F1H   SFRSYM    DATA     BYTE      CANICR
      00000087H   SFRSYM    DATA     BYTE      PCON
      000000BCH   SFRSYM    DATA     BYTE      ADC_CONTR
      000000E7H   SFRSYM    DATA     BYTE      CMPCR2
      000000E6H   SFRSYM    DATA     BYTE      CMPCR1
      000000B8H   SFRSYM    DATA     BYTE      IP
      0000008FH   SFRSYM    DATA     BYTE      INTCLKO
      000000EEH   SFRSYM    DATA     BYTE      IP3H
      000000B6H   SFRSYM    DATA     BYTE      IP2H
      000000A8H   SFRSYM    DATA     BYTE      IE
      000000BBH   SFRSYM    DATA     BYTE      P_SW3
      000000BAH   SFRSYM    DATA     BYTE      P_SW2
      000000A2H   SFRSYM    DATA     BYTE      P_SW1
      000000CEH   SFRSYM    DATA     BYTE      SPCTL
      000000F8H   SFRSYM    DATA     BYTE      P7
      000000E8H   SFRSYM    DATA     BYTE      P6
      000000C8H   SFRSYM    DATA     BYTE      P5
      000000C0H   SFRSYM    DATA     BYTE      P4
      000000B0H   SFRSYM    DATA     BYTE      P3
      000000A0H   SFRSYM    DATA     BYTE      P2
      00000090H   SFRSYM    DATA     BYTE      P1
      00000080H   SFRSYM    DATA     BYTE      P0

      ---         MODULE    ---      ---       SEEKFREE_CONFIG
      00FF00A6H   PUBLIC    CODE     ---       dl1b_default_configuration
      00FF012DH   PUBLIC    CODE     ---       imu660ra_config_file

      ---         MODULE    ---      ---       ?C?DPADD
      00FF2134H   PUBLIC    CODE     ---       ?C?DPADD
      00FF2130H   PUBLIC    CODE     ---       ?C?DPSUB

      ---         MODULE    ---      ---       ?C?DPMUL
      00FF2243H   PUBLIC    CODE     ---       ?C?DPMUL

      ---         MODULE    ---      ---       ?C?DPDIV
      00FF2353H   PUBLIC    CODE     ---       ?C?DPDIV

      ---         MODULE    ---      ---       ?C?DPCMP
      00FF23F4H   PUBLIC    CODE     ---       ?C?DPCMP
      00FF23F2H   PUBLIC    CODE     ---       ?C?DPCMP3

      ---         MODULE    ---      ---       ?C?DPNEG
      00FF2453H   PUBLIC    CODE     ---       ?C?DPNEG

      ---         MODULE    ---      ---       ?C?DCAST
L251 LINKER/LOCATER V4.66.93.0                                                        06/19/2025  15:56:37  PAGE 112


      00FF246BH   PUBLIC    CODE     NEAR LAB  ?C?DCASTC
      00FF2466H   PUBLIC    CODE     NEAR LAB  ?C?DCASTI
      00FF2461H   PUBLIC    CODE     NEAR LAB  ?C?DCASTL

      ---         MODULE    ---      ---       ?C?CASTD
      00FF24AEH   PUBLIC    CODE     NEAR LAB  ?C?CASTD

      ---         MODULE    ---      ---       ?C?DCASTF
      00FF250EH   PUBLIC    CODE     NEAR LAB  ?C?DCASTF

      ---         MODULE    ---      ---       ?C?FCASTD
      00FF2550H   PUBLIC    CODE     NEAR LAB  ?C?FCASTD

      ---         MODULE    ---      ---       PRINTF
      00010880H   PUBLIC    XDATA    ---       ?PRINTF?BYTE
      00FF2587H   PUBLIC    CODE     NEAR LAB  PRINTF

      ---         MODULE    ---      ---       SQRT?_
      00FF25B9H   PUBLIC    CODE     ---       SQRT?_

      ---         MODULE    ---      ---       pow

      ---         MODULE    ---      ---       SIN?_
      00FF2707H   PUBLIC    CODE     ---       COS?_
      00FF2728H   PUBLIC    CODE     ---       SIN?_
      00FF275DH   PUBLIC    CODE     ---       TAN?_

      ---         MODULE    ---      ---       ATAN?_
      00FF289FH   PUBLIC    CODE     ---       ATAN?_

      ---         MODULE    ---      ---       ASIN?_
      00FF29BAH   PUBLIC    CODE     ---       ASIN?_

      ---         MODULE    ---      ---       ?C?DPGETOPN
      00FF29E4H   PUBLIC    CODE     ---       ?C?DPGETOPN2
      00FF2A2FH   PUBLIC    CODE     ---       ?C?DPNANRESULT
      00FF2A3BH   PUBLIC    CODE     ---       ?C?DPOVERFLOW
      00FF2A07H   PUBLIC    CODE     ---       ?C?DPRESULT
      00FF2A20H   PUBLIC    CODE     ---       ?C?DPRESULT2
      00FF2A36H   PUBLIC    CODE     ---       ?C?DPUNDERFLOW

      ---         MODULE    ---      ---       _CHKDOUBLE_?_
      00FF2A49H   PUBLIC    CODE     ---       _CHKDOUBLE_?_

      ---         MODULE    ---      ---       ?C?PRNFMT
      00FF2A94H   PUBLIC    CODE     ---       ?C?PRNFMT

      ---         MODULE    ---      ---       ?C?DPSERIES
      00FF2EC2H   PUBLIC    CODE     ---       ?C?DP2SERIES
      00FF2ECDH   PUBLIC    CODE     ---       ?C?DPSERIES

      ---         MODULE    ---      ---       EXP?_
      00FF2FA9H   PUBLIC    CODE     ---       EXP?_

      ---         MODULE    ---      ---       LOG?_
      00FF3092H   PUBLIC    CODE     NEAR LAB  LOG?_

      ---         MODULE    ---      ---       ?C?DPCONVERT
      00FF31ADH   PUBLIC    CODE     ---       ?C?DPCONVERT
      00FF32D4H   PUBLIC    CODE     ---       ?C?DPROUND

      ---         MODULE    ---      ---       ?C?DTNPWR
      00FF33AFH   PUBLIC    CODE     ---       ?C?DTNPWR

      ---         MODULE    ---      ---       ?C?FPGETOPN
L251 LINKER/LOCATER V4.66.93.0                                                        06/19/2025  15:56:37  PAGE 113


      00FF3435H   PUBLIC    CODE     ---       ?C?FPGETOPN2
      00FF3472H   PUBLIC    CODE     ---       ?C?FPNANRESULT
      00FF347AH   PUBLIC    CODE     ---       ?C?FPOVERFLOW
      00FF344EH   PUBLIC    CODE     ---       ?C?FPRESULT
      00FF3464H   PUBLIC    CODE     ---       ?C?FPRESULT2
      00FF3477H   PUBLIC    CODE     ---       ?C?FPUNDERFLOW

      ---         MODULE    ---      ---       ?C?FPADD
      00FF348CH   PUBLIC    CODE     ---       ?C?FPADD
      00FF3489H   PUBLIC    CODE     ---       ?C?FPSUB

      ---         MODULE    ---      ---       ?C?FPMUL
      00FF3544H   PUBLIC    CODE     ---       ?C?FPMUL

      ---         MODULE    ---      ---       ?C?FPDIV
      00FF35E4H   PUBLIC    CODE     ---       ?C?FPDIV

      ---         MODULE    ---      ---       ?C?FPCMP
      00FF3667H   PUBLIC    CODE     ---       ?C?FPCMP
      00FF3665H   PUBLIC    CODE     ---       ?C?FPCMP3

      ---         MODULE    ---      ---       ?C?FPNEG
      00FF36ABH   PUBLIC    CODE     ---       ?C?FPNEG

      ---         MODULE    ---      ---       ?C?FCAST
      00FF36C3H   PUBLIC    CODE     NEAR LAB  ?C?FCASTC
      00FF36BEH   PUBLIC    CODE     NEAR LAB  ?C?FCASTI
      00FF36B9H   PUBLIC    CODE     NEAR LAB  ?C?FCASTL

      ---         MODULE    ---      ---       ?C?CASTF
      00FF36F6H   PUBLIC    CODE     NEAR LAB  ?C?CASTF

      ---         MODULE    ---      ---       ?C?INITHDATA
      00FFA016H   PUBLIC    CODE     ---       ?C?INITHDATA

      ---         MODULE    ---      ---       ?C?SIDIV
      00FF3733H   PUBLIC    CODE     ---       ?C?SIDIV

      ---         MODULE    ---      ---       ?C?LIMUL
      00FF3765H   PUBLIC    CODE     ---       ?C?LIMUL

      ---         MODULE    ---      ---       ?C?ULDIV
      00FF3770H   PUBLIC    CODE     NEAR LAB  ?C?ULDIV
      00FF376EH   PUBLIC    CODE     NEAR LAB  ?C?ULIDIV

      ---         MODULE    ---      ---       ?C?SLDIV
      00FF37C1H   PUBLIC    CODE     NEAR LAB  ?C?SLDIV

      ---         MODULE    ---      ---       ?C?BMOVEPP
      00FF37F7H   PUBLIC    CODE     ---       ?C?BMOVEPP
      00FF37F5H   PUBLIC    CODE     ---       ?C?BMOVEPP8

      ---         MODULE    ---      ---       STRNCMP
      00FFA68EH   PUBLIC    CODE     ---       strncmp?_

      ---         MODULE    ---      ---       STRNCPY

      ---         MODULE    ---      ---       STRLEN

      ---         MODULE    ---      ---       STRCHR

      ---         MODULE    ---      ---       memcpy
      00FFA7D7H   PUBLIC    CODE     ---       memcpy?_

      ---         MODULE    ---      ---       memset
L251 LINKER/LOCATER V4.66.93.0                                                        06/19/2025  15:56:37  PAGE 114


      00FF0026H   PUBLIC    CODE     ---       memset?_

      ---         MODULE    ---      ---       ?C?INITHDATA_END
      00FFACB3H   PUBLIC    HCONST   WORD      ?C?INITHDATA_END

Program Size: data=10.4 edata+hdata=3182 xdata=3957 const=1537 code=43192
L251 RUN COMPLETE.  0 WARNING(S),  0 ERROR(S)
