L251 LINKER/LOCATER V4.66.93.0                                                          06/23/2025  18:43:06  PAGE 1


L251 LINKER/LOCATER V4.66.93.0, INVOKED BY:
E:\KUST-TRAVEL\KEIL_V5\C251\BIN\L251.EXE .\Out_File\board.obj, .\Out_File\common.obj, .\Out_File\START251.obj, .\Out_Fil
>> e\zf_adc.obj, .\Out_File\zf_delay.obj, .\Out_File\zf_eeprom.obj, .\Out_File\zf_gpio.obj, .\Out_File\zf_nvic.obj, .\Ou
>> t_File\zf_pwm.obj, .\Out_File\zf_spi.obj, .\Out_File\zf_tim.obj, .\Out_File\zf_uart.obj, .\Out_File\zf_fifo.obj, .\Ou
>> t_File\zf_function.obj, .\Out_File\zf_iic.obj, .\Out_File\SEEKFREE_18TFT.obj, .\Out_File\SEEKFREE_BLE6A20.obj, ..\..\
>> Libraries\seekfree_peripheral\SEEKFREE_CONFIG.LIB, .\Out_File\SEEKFREE_DL1B.obj, .\Out_File\SEEKFREE_FONT.obj, .\Out_
>> File\SEEKFREE_ICM20602.obj, .\Out_File\SEEKFREE_IMU660RA.obj, .\Out_File\SEEKFREE_IMU963RA.obj, .\Out_File\SEEKFREE_I
>> PS114_SPI.obj, .\Out_File\SEEKFREE_OLED.obj, .\Out_File\SEEKFREE_PRINTF.obj, .\Out_File\SEEKFREE_TSL1401.obj, .\Out_F
>> ile\SEEKFREE_WIRELESS.obj, .\Out_File\SEEKFREE_GPS_TAU1201.obj, .\Out_File\SEEKFREE_IPS200_SPI.obj, .\Out_File\SEEKFR
>> EE_MPU6050.obj, .\Out_File\isr.obj, .\Out_File\main.obj, .\Out_File\Control.obj, .\Out_File\Key.obj, .\Out_File\Pid.o
>> bj, .\Out_File\Elec.obj, .\Out_File\Filtering.obj, .\Out_File\seekfree_assistant.obj, .\Out_File\seekfree_assistant_i
>> nface.obj TO .\Out_File\Trigger PRINT (.\Out_File\Trigger.map) CASE DISABLEWARNING (15, 16, 57) REMOVEUNUSED CLASSES 
>> (EDATA (0X0-0XFFF), HDATA (0X0-0XFFF))


CPU MODE:     251 SOURCE MODE
INTR FRAME:   2 BYTES SAVED ON INTERRUPT
MEMORY MODEL: LARGE WITH DOUBLE PRECISION FLOATING POINT ARITHMETIC


INPUT MODULES INCLUDED:
  .\Out_File\board.obj (board)
         COMMENT TYPE 0: C251 V5.60.0
  .\Out_File\common.obj (common)
         COMMENT TYPE 0: C251 V5.60.0
  .\Out_File\START251.obj (?C_START)
         COMMENT TYPE 0: A251 V4.69.13.0
  .\Out_File\zf_adc.obj (zf_adc)
         COMMENT TYPE 0: C251 V5.60.0
  .\Out_File\zf_delay.obj (zf_delay)
         COMMENT TYPE 0: C251 V5.60.0
  .\Out_File\zf_eeprom.obj (zf_eeprom)
         COMMENT TYPE 0: C251 V5.60.0
  .\Out_File\zf_gpio.obj (zf_gpio)
         COMMENT TYPE 0: C251 V5.60.0
  .\Out_File\zf_nvic.obj (zf_nvic)
         COMMENT TYPE 0: C251 V5.60.0
  .\Out_File\zf_pwm.obj (zf_pwm)
         COMMENT TYPE 0: C251 V5.60.0
  .\Out_File\zf_spi.obj (zf_spi)
         COMMENT TYPE 0: C251 V5.60.0
  .\Out_File\zf_tim.obj (zf_tim)
         COMMENT TYPE 0: C251 V5.60.0
  .\Out_File\zf_uart.obj (zf_uart)
         COMMENT TYPE 0: C251 V5.60.0
  .\Out_File\zf_fifo.obj (zf_fifo)
         COMMENT TYPE 0: C251 V5.60.0
  .\Out_File\zf_function.obj (zf_function)
         COMMENT TYPE 0: C251 V5.60.0
  .\Out_File\zf_iic.obj (zf_iic)
         COMMENT TYPE 0: C251 V5.60.0
  .\Out_File\SEEKFREE_18TFT.obj (SEEKFREE_18TFT)
         COMMENT TYPE 0: C251 V5.60.0
  .\Out_File\SEEKFREE_BLE6A20.obj (SEEKFREE_BLE6A20)
         COMMENT TYPE 0: C251 V5.60.0
  .\Out_File\SEEKFREE_DL1B.obj (SEEKFREE_DL1B)
         COMMENT TYPE 0: C251 V5.60.0
  .\Out_File\SEEKFREE_FONT.obj (SEEKFREE_FONT)
         COMMENT TYPE 0: C251 V5.60.0
  .\Out_File\SEEKFREE_ICM20602.obj (SEEKFREE_ICM20602)
         COMMENT TYPE 0: C251 V5.60.0
  .\Out_File\SEEKFREE_IMU660RA.obj (SEEKFREE_IMU660RA)
         COMMENT TYPE 0: C251 V5.60.0
  .\Out_File\SEEKFREE_IMU963RA.obj (SEEKFREE_IMU963RA)
         COMMENT TYPE 0: C251 V5.60.0
  .\Out_File\SEEKFREE_IPS114_SPI.obj (SEEKFREE_IPS114_SPI)
L251 LINKER/LOCATER V4.66.93.0                                                        06/23/2025  18:43:06  PAGE 2


         COMMENT TYPE 0: C251 V5.60.0
  .\Out_File\SEEKFREE_OLED.obj (SEEKFREE_OLED)
         COMMENT TYPE 0: C251 V5.60.0
  .\Out_File\SEEKFREE_PRINTF.obj (SEEKFREE_PRINTF)
         COMMENT TYPE 0: C251 V5.60.0
  .\Out_File\SEEKFREE_TSL1401.obj (SEEKFREE_TSL1401)
         COMMENT TYPE 0: C251 V5.60.0
  .\Out_File\SEEKFREE_WIRELESS.obj (SEEKFREE_WIRELESS)
         COMMENT TYPE 0: C251 V5.60.0
  .\Out_File\SEEKFREE_GPS_TAU1201.obj (SEEKFREE_GPS_TAU1201)
         COMMENT TYPE 0: C251 V5.60.0
  .\Out_File\SEEKFREE_IPS200_SPI.obj (SEEKFREE_IPS200_SPI)
         COMMENT TYPE 0: C251 V5.60.0
  .\Out_File\SEEKFREE_MPU6050.obj (SEEKFREE_MPU6050)
         COMMENT TYPE 0: C251 V5.60.0
  .\Out_File\isr.obj (isr)
         COMMENT TYPE 0: C251 V5.60.0
  .\Out_File\main.obj (main)
         COMMENT TYPE 0: C251 V5.60.0
  .\Out_File\Control.obj (Control)
         COMMENT TYPE 0: C251 V5.60.0
  .\Out_File\Key.obj (Key)
         COMMENT TYPE 0: C251 V5.60.0
  .\Out_File\Pid.obj (Pid)
         COMMENT TYPE 0: C251 V5.60.0
  .\Out_File\Elec.obj (Elec)
         COMMENT TYPE 0: C251 V5.60.0
  .\Out_File\Filtering.obj (Filtering)
         COMMENT TYPE 0: C251 V5.60.0
  .\Out_File\seekfree_assistant.obj (seekfree_assistant)
         COMMENT TYPE 0: C251 V5.60.0
  .\Out_File\seekfree_assistant_inface.obj (seekfree_assistant_inface)
         COMMENT TYPE 0: C251 V5.60.0
  ..\..\Libraries\seekfree_peripheral\SEEKFREE_CONFIG.LIB (SEEKFREE_CONFIG)
         COMMENT TYPE 0: C251 V5.60.0
  E:\KUST-TRAVEL\KEIL_V5\C251\LIB\C2SDPL.LIB (?C?DPADD)
         COMMENT TYPE 0: A251 V4.69.6.0
  E:\KUST-TRAVEL\KEIL_V5\C251\LIB\C2SDPL.LIB (?C?DPMUL)
         COMMENT TYPE 0: A251 V4.69.6.0
  E:\KUST-TRAVEL\KEIL_V5\C251\LIB\C2SDPL.LIB (?C?DPDIV)
         COMMENT TYPE 0: A251 V4.69.6.0
  E:\KUST-TRAVEL\KEIL_V5\C251\LIB\C2SDPL.LIB (?C?DPCMP)
         COMMENT TYPE 0: A251 V4.69.6.0
  E:\KUST-TRAVEL\KEIL_V5\C251\LIB\C2SDPL.LIB (?C?DPNEG)
         COMMENT TYPE 0: A251 V4.69.6.0
  E:\KUST-TRAVEL\KEIL_V5\C251\LIB\C2SDPL.LIB (?C?DCAST)
         COMMENT TYPE 0: A251 V4.69.6.0
  E:\KUST-TRAVEL\KEIL_V5\C251\LIB\C2SDPL.LIB (?C?CASTD)
         COMMENT TYPE 0: A251 V4.69.6.0
  E:\KUST-TRAVEL\KEIL_V5\C251\LIB\C2SDPL.LIB (?C?DCASTF)
         COMMENT TYPE 0: A251 V4.69.6.0
  E:\KUST-TRAVEL\KEIL_V5\C251\LIB\C2SDPL.LIB (?C?FCASTD)
         COMMENT TYPE 0: A251 V4.69.6.0
  E:\KUST-TRAVEL\KEIL_V5\C251\LIB\C2SDPL.LIB (PRINTF)
         COMMENT TYPE 0: A251 V4.69.6.0
  E:\KUST-TRAVEL\KEIL_V5\C251\LIB\C2SDPL.LIB (SQRT?_)
         COMMENT TYPE 0: A251 V4.69.6.0
  E:\KUST-TRAVEL\KEIL_V5\C251\LIB\C2SDPL.LIB (pow)
         COMMENT TYPE 0: C251 V5.58.7
  E:\KUST-TRAVEL\KEIL_V5\C251\LIB\C2SDPL.LIB (SIN?_)
         COMMENT TYPE 0: A251 V4.69.6.0
  E:\KUST-TRAVEL\KEIL_V5\C251\LIB\C2SDPL.LIB (ATAN?_)
         COMMENT TYPE 0: A251 V4.69.6.0
  E:\KUST-TRAVEL\KEIL_V5\C251\LIB\C2SDPL.LIB (ASIN?_)
         COMMENT TYPE 0: A251 V4.69.6.0
L251 LINKER/LOCATER V4.66.93.0                                                        06/23/2025  18:43:06  PAGE 3


  E:\KUST-TRAVEL\KEIL_V5\C251\LIB\C2SDPL.LIB (?C?DPGETOPN)
         COMMENT TYPE 0: A251 V4.69.6.0
  E:\KUST-TRAVEL\KEIL_V5\C251\LIB\C2SDPL.LIB (_CHKDOUBLE_?_)
         COMMENT TYPE 0: A251 V4.69.6.0
  E:\KUST-TRAVEL\KEIL_V5\C251\LIB\C2SDPL.LIB (?C?PRNFMT)
         COMMENT TYPE 0: A251 V4.69.6.0
  E:\KUST-TRAVEL\KEIL_V5\C251\LIB\C2SDPL.LIB (?C?DPSERIES)
         COMMENT TYPE 0: A251 V4.69.6.0
  E:\KUST-TRAVEL\KEIL_V5\C251\LIB\C2SDPL.LIB (EXP?_)
         COMMENT TYPE 0: A251 V4.69.6.0
  E:\KUST-TRAVEL\KEIL_V5\C251\LIB\C2SDPL.LIB (LOG?_)
         COMMENT TYPE 0: A251 V4.69.6.0
  E:\KUST-TRAVEL\KEIL_V5\C251\LIB\C2SDPL.LIB (?C?DPCONVERT)
         COMMENT TYPE 0: A251 V4.69.6.0
  E:\KUST-TRAVEL\KEIL_V5\C251\LIB\C2SDPL.LIB (?C?DTNPWR)
         COMMENT TYPE 0: A251 V4.69.6.0
  E:\KUST-TRAVEL\KEIL_V5\C251\LIB\C2SFPL.LIB (?C?FPGETOPN)
         COMMENT TYPE 0: A251 V4.69.6.0
  E:\KUST-TRAVEL\KEIL_V5\C251\LIB\C2SFPL.LIB (?C?FPADD)
         COMMENT TYPE 0: A251 V4.69.6.0
  E:\KUST-TRAVEL\KEIL_V5\C251\LIB\C2SFPL.LIB (?C?FPMUL)
         COMMENT TYPE 0: A251 V4.69.6.0
  E:\KUST-TRAVEL\KEIL_V5\C251\LIB\C2SFPL.LIB (?C?FPDIV)
         COMMENT TYPE 0: A251 V4.69.6.0
  E:\KUST-TRAVEL\KEIL_V5\C251\LIB\C2SFPL.LIB (?C?FPCMP)
         COMMENT TYPE 0: A251 V4.69.6.0
  E:\KUST-TRAVEL\KEIL_V5\C251\LIB\C2SFPL.LIB (?C?FPNEG)
         COMMENT TYPE 0: A251 V4.69.6.0
  E:\KUST-TRAVEL\KEIL_V5\C251\LIB\C2SFPL.LIB (?C?FCAST)
         COMMENT TYPE 0: A251 V4.69.6.0
  E:\KUST-TRAVEL\KEIL_V5\C251\LIB\C2SFPL.LIB (?C?CASTF)
         COMMENT TYPE 0: A251 V4.69.6.0
  E:\KUST-TRAVEL\KEIL_V5\C251\LIB\C2SL.LIB (?C?INITHDATA)
         COMMENT TYPE 0: A251 V4.69.6.0
  E:\KUST-TRAVEL\KEIL_V5\C251\LIB\C2SL.LIB (?C?SIDIV)
         COMMENT TYPE 0: A251 V4.69.6.0
  E:\KUST-TRAVEL\KEIL_V5\C251\LIB\C2SL.LIB (?C?LIMUL)
         COMMENT TYPE 0: A251 V4.69.6.0
  E:\KUST-TRAVEL\KEIL_V5\C251\LIB\C2SL.LIB (?C?ULDIV)
         COMMENT TYPE 0: A251 V4.69.6.0
  E:\KUST-TRAVEL\KEIL_V5\C251\LIB\C2SL.LIB (?C?SLDIV)
         COMMENT TYPE 0: A251 V4.69.6.0
  E:\KUST-TRAVEL\KEIL_V5\C251\LIB\C2SL.LIB (?C?BMOVEPP)
         COMMENT TYPE 0: A251 V4.69.6.0
  E:\KUST-TRAVEL\KEIL_V5\C251\LIB\C2SL.LIB (STRNCMP)
         COMMENT TYPE 0: C251 V5.58.7
  E:\KUST-TRAVEL\KEIL_V5\C251\LIB\C2SL.LIB (STRNCPY)
         COMMENT TYPE 0: C251 V5.58.7
  E:\KUST-TRAVEL\KEIL_V5\C251\LIB\C2SL.LIB (STRLEN)
         COMMENT TYPE 0: C251 V5.58.7
  E:\KUST-TRAVEL\KEIL_V5\C251\LIB\C2SL.LIB (STRCHR)
         COMMENT TYPE 0: C251 V5.58.7
  E:\KUST-TRAVEL\KEIL_V5\C251\LIB\C2SL.LIB (memcpy)
         COMMENT TYPE 0: C251 V5.58.7
  E:\KUST-TRAVEL\KEIL_V5\C251\LIB\C2SL.LIB (memset)
         COMMENT TYPE 0: C251 V5.58.7
  E:\KUST-TRAVEL\KEIL_V5\C251\LIB\C2SL.LIB (?C?INITHDATA_END)
         COMMENT TYPE 0: A251 V4.69.6.0


ACTIVE MEMORY CLASSES OF MODULE:  .\Out_File\Trigger (board)

BASE        START       END         USED      MEMORY CLASS
==========================================================
000000H     000000H     000FFFH     000C6EH   EDATA
L251 LINKER/LOCATER V4.66.93.0                                                        06/23/2025  18:43:06  PAGE 4


000000H     000000H     000FFFH               HDATA
FF0000H     FF0000H     FFFFFFH     00B8D6H   CODE
010000H     010000H     01FFFFH     00111DH   XDATA
000000H     FF0000H     FFFFFFH     000722H   HCONST
000020H.0   000020H.0   00002FH.7   000000H.5 BIT
FF0000H     FF0000H     FFFFFFH     000004H   CONST
000000H     000000H     00007FH     000008H   DATA


MEMORY MAP OF MODULE:  .\Out_File\Trigger (board)


START     STOP      LENGTH    ALIGN  RELOC    MEMORY CLASS   SEGMENT NAME
=========================================================================
000000H   000007H   000008H   ---    AT..     DATA           "REG BANK 0"
000008H   00000EH   000007H   BYTE   UNIT     EDATA          ?ED?IMU660RA_GET_ACC?SEEKFREE_IMU660RA
00000FH   000015H   000007H   BYTE   UNIT     EDATA          ?ED?IMU660RA_GET_GYRO?SEEKFREE_IMU660RA
000016H   00001CH   000007H   BYTE   UNIT     EDATA          ?ED?IMU963RA_GET_MAG?SEEKFREE_IMU963RA
00001DH   00001FH   000003H   BYTE   UNIT     EDATA          ?ED?DL1B_GET_DISTANCE?SEEKFREE_DL1B
000020H.0 000020H.1 000000H.2 BIT    UNIT     BIT            ?BI?ISR
000020H.2 000020H.3 000000H.2 BIT    UNIT     BIT            ?BI?KEY
000020H.4 000020H.4 000000H.1 BIT    UNIT     BIT            ?BI?ADC_ONCE?ZF_ADC
000020H.5 000020H   000000H.3 ---    ---      **GAP**
000021H   000221H   000201H   BYTE   UNIT     EDATA          ?ED?SEEKFREE_TSL1401
000222H   0002ADH   00008CH   BYTE   UNIT     EDATA          ?ED?DL1B_INIT?SEEKFREE_DL1B
0002AEH   000304H   000057H   BYTE   UNIT     EDATA          ?ED?SEEKFREE_BLE6A20
000305H   00035BH   000057H   BYTE   UNIT     EDATA          ?ED?SEEKFREE_WIRELESS
00035CH   00037FH   000024H   BYTE   UNIT     EDATA          ?ED?LCD_SHOWFLOAT?SEEKFREE_18TFT
000380H   0003A3H   000024H   BYTE   UNIT     EDATA          ?ED?IPS114_SHOWFLOAT?SEEKFREE_IPS114_SPI
0003A4H   0003C6H   000023H   BYTE   UNIT     EDATA          ?ED?LCD_SHOWINT32?SEEKFREE_18TFT
0003C7H   0003E9H   000023H   BYTE   UNIT     EDATA          ?ED?IPS114_SHOWINT32?SEEKFREE_IPS114_SPI
0003EAH   0003EFH   000006H   BYTE   UNIT     EDATA          ?ED?LCD_SHOWINT16?SEEKFREE_18TFT
0003F0H   0003F5H   000006H   BYTE   UNIT     EDATA          ?ED?LCD_SHOWUINT16?SEEKFREE_18TFT
0003F6H   0003FBH   000006H   BYTE   UNIT     EDATA          ?ED?ICM20602_GET_ACC?SEEKFREE_ICM20602
0003FCH   000401H   000006H   BYTE   UNIT     EDATA          ?ED?ICM20602_GET_GYRO?SEEKFREE_ICM20602
000402H   000407H   000006H   BYTE   UNIT     EDATA          ?ED?IMU963RA_GET_ACC?SEEKFREE_IMU963RA
000408H   00040DH   000006H   BYTE   UNIT     EDATA          ?ED?IMU963RA_GET_GYRO?SEEKFREE_IMU963RA
00040EH   000413H   000006H   BYTE   UNIT     EDATA          ?ED?IPS114_SHOWINT16?SEEKFREE_IPS114_SPI
000414H   000419H   000006H   BYTE   UNIT     EDATA          ?ED?IPS114_SHOWUINT16?SEEKFREE_IPS114_SPI
00041AH   00041DH   000004H   BYTE   UNIT     EDATA          ?ED?LCD_SHOWINT8?SEEKFREE_18TFT
00041EH   000421H   000004H   BYTE   UNIT     EDATA          ?ED?LCD_SHOWUINT8?SEEKFREE_18TFT
000422H   000425H   000004H   BYTE   UNIT     EDATA          ?ED?BLE6A20_READ_BUFF?SEEKFREE_BLE6A20
000426H   000429H   000004H   BYTE   UNIT     EDATA          ?ED?ICM20602_SIMSPI_R_REG_BYTES?SEEKFREE_ICM20602
00042AH   00042DH   000004H   BYTE   UNIT     EDATA          ?ED?IMU963RA_ACC_GYRO_SELF_CHECK?SEEKFREE_IMU963RA
00042EH   000431H   000004H   BYTE   UNIT     EDATA          ?ED?IMU963RA_MAG_SELF_CHECK?SEEKFREE_IMU963RA
000432H   000435H   000004H   BYTE   UNIT     EDATA          ?ED?IPS114_SHOWINT8?SEEKFREE_IPS114_SPI
000436H   000439H   000004H   BYTE   UNIT     EDATA          ?ED?IPS114_SHOWUINT8?SEEKFREE_IPS114_SPI
00043AH   00043DH   000004H   BYTE   UNIT     EDATA          ?ED?WIRELESS_UART_READ_BUFF?SEEKFREE_WIRELESS
00043EH   000440H   000003H   BYTE   UNIT     EDATA          ?ED?ICM20602_SELF_CHECK?SEEKFREE_ICM20602
000441H   000443H   000003H   BYTE   UNIT     EDATA          ?ED?ICM20602_INIT?SEEKFREE_ICM20602
000444H   000446H   000003H   BYTE   UNIT     EDATA          ?ED?IMU660RA_SELF_CHECK?SEEKFREE_IMU660RA
000447H   000449H   000003H   BYTE   UNIT     EDATA          ?ED?IMU963RA_WRITE_MAG_REGISTER?SEEKFREE_IMU963RA
00044AH   00044BH   000002H   BYTE   UNIT     EDATA          ?ED?LCD_WRITEDATA_16BIT?SEEKFREE_18TFT
00044CH   00044DH   000002H   BYTE   UNIT     EDATA          ?ED?LCD_SHOWCHAR?SEEKFREE_18TFT
00044EH   00044FH   000002H   BYTE   UNIT     EDATA          ?ED?LCD_SHOWSTR?SEEKFREE_18TFT
000450H   000451H   000002H   BYTE   UNIT     EDATA          ?ED?DL1B_SIMIIC_DELAY?SEEKFREE_DL1B
000452H   000453H   000002H   BYTE   UNIT     EDATA          ?ED?DL1B_READ_CH?SEEKFREE_DL1B
000454H   000455H   000002H   BYTE   UNIT     EDATA          ?ED?IMU660RA_READ_REGISTER?SEEKFREE_IMU660RA
000456H   000457H   000002H   BYTE   UNIT     EDATA          ?ED?IMU963RA_READ_MAG_REGISTER?SEEKFREE_IMU963RA
000458H   000459H   000002H   BYTE   UNIT     EDATA          ?ED?IPS114_WRITEDATA_16BIT?SEEKFREE_IPS114_SPI
00045AH   00045BH   000002H   BYTE   UNIT     EDATA          ?ED?IPS114_CLEAR?SEEKFREE_IPS114_SPI
00045CH   00045DH   000002H   BYTE   UNIT     EDATA          ?ED?IPS114_SHOWCHAR?SEEKFREE_IPS114_SPI
00045EH   00045FH   000002H   BYTE   UNIT     EDATA          ?ED?IPS114_SHOWSTR?SEEKFREE_IPS114_SPI
000460H   000461H   000002H   BYTE   UNIT     EDATA          ?ED?OLED_HEXASCII?SEEKFREE_OLED
000462H   000463H   000002H   BYTE   UNIT     EDATA          ?ED?OLED_DIS_BMP?SEEKFREE_OLED
L251 LINKER/LOCATER V4.66.93.0                                                        06/23/2025  18:43:06  PAGE 5


000464H   000465H   000002H   BYTE   UNIT     EDATA          ?ED?OLED_HEXASCII_SPI?SEEKFREE_OLED
000466H   000467H   000002H   BYTE   UNIT     EDATA          ?ED?OLED_DIS_BMP_SPI?SEEKFREE_OLED
000468H   000468H   000001H   BYTE   UNIT     EDATA          ?ED?LCD_CLEAR?SEEKFREE_18TFT
000469H   000469H   000001H   BYTE   UNIT     EDATA          ?ED?DL1B_SEND_CH?SEEKFREE_DL1B
00046AH   00046AH   000001H   BYTE   UNIT     EDATA          ?ED?ICM20602_SIMSPI_WR_BYTE?SEEKFREE_ICM20602
00046BH   00046BH   000001H   BYTE   UNIT     EDATA          ?ED?ICM20602_READ_REGISTER?SEEKFREE_ICM20602
00046CH   00046CH   000001H   BYTE   UNIT     EDATA          ?ED?IMU660RA_SIMSPI_WR_BYTE?SEEKFREE_IMU660RA
00046DH   00046DH   000001H   BYTE   UNIT     EDATA          ?ED?IMU660RA_INIT?SEEKFREE_IMU660RA
00046EH   00046EH   000001H   BYTE   UNIT     EDATA          ?ED?IMU963RA_SIMSPI_WR_BYTE?SEEKFREE_IMU963RA
00046FH   00046FH   000001H   BYTE   UNIT     EDATA          ?ED?IMU963RA_READ_ACC_GYRO_REGISTER?SEEKFREE_IMU963RA
000470H   000470H   000001H   BYTE   UNIT     EDATA          ?ED?IMU963RA_INIT?SEEKFREE_IMU963RA
000471H   000471H   000001H   BYTE   UNIT     EDATA          ?ED?OLED_WRDAT?SEEKFREE_OLED
000472H   000472H   000001H   BYTE   UNIT     EDATA          ?ED?OLED_WRCMD?SEEKFREE_OLED
000473H   000473H   000001H   BYTE   UNIT     EDATA          ?ED?OLED_FILL?SEEKFREE_OLED
000474H   000474H   000001H   BYTE   UNIT     EDATA          ?ED?OLED_P6X8STR?SEEKFREE_OLED
000475H   000475H   000001H   BYTE   UNIT     EDATA          ?ED?OLED_FILL_SPI?SEEKFREE_OLED
000476H   000476H   000001H   BYTE   UNIT     EDATA          ?ED?OLED_P6X8STR_SPI?SEEKFREE_OLED
000477H   000C76H   000800H   BYTE   UNIT     EDATA          ?STACK
000C77H   00FFFFH   00F389H   ---    ---      **GAP**
010000H   0101CFH   0001D0H   BYTE   INSEG    XDATA          ?XD?SEEKFREE_GPS_TAU1201
0101D0H   01030CH   00013DH   BYTE   INSEG    XDATA          ?XD?SEEKFREE_ASSISTANT
01030DH   010440H   000134H   BYTE   INSEG    XDATA          ?XD?ELEC
010441H   010550H   000110H   BYTE   INSEG    XDATA          ?XD?PID
010551H   0105E5H   000095H   BYTE   UNIT     XDATA          ?XD?GPS_INIT?SEEKFREE_GPS_TAU1201
0105E6H   010672H   00008DH   BYTE   UNIT     XDATA          ?XD?SEEKFREE_ASSISTANT_DATA_ANALYSIS?SEEKFREE_ASSISTANT
010673H   0106D5H   000063H   BYTE   UNIT     XDATA          ?XD?ZF_SPRINTF?SEEKFREE_PRINTF
0106D6H   010735H   000060H   BYTE   UNIT     XDATA          ?XD?GET_TWO_POINTS_DISTANCE?SEEKFREE_GPS_TAU1201
010736H   010778H   000043H   BYTE   UNIT     XDATA          ?XD?GPS_GNRMC_PARSE?SEEKFREE_GPS_TAU1201
010779H   0107B4H   00003CH   BYTE   UNIT     XDATA          ?XD?FUNC_DOUBLE_TO_STR?ZF_FUNCTION
0107B5H   0107ECH   000038H   BYTE   UNIT     XDATA          ?XD?GET_TWO_POINTS_AZIMUTH?SEEKFREE_GPS_TAU1201
0107EDH   010820H   000034H   BYTE   UNIT     XDATA          ?XD?OLED_PRINTF_FLOAT?SEEKFREE_OLED
010821H   010854H   000034H   BYTE   UNIT     XDATA          ?XD?OLED_PRINTF_FLOAT_SPI?SEEKFREE_OLED
010855H   010888H   000034H   BYTE   UNIT     XDATA          ?XD?CALCULATE_POSITION_IMPROVED?ELEC
010889H   0108BCH   000034H   BYTE   INSEG    XDATA          ?XD?FILTERING
0108BDH   0108EBH   00002FH   BYTE   UNIT     XDATA          ?XD?IPS200_SHOW_FLOAT?SEEKFREE_IPS200_SPI
0108ECH   010917H   00002CH   BYTE   UNIT     XDATA          ?XD?OLED_PRINTF_INT32?SEEKFREE_OLED
010918H   010943H   00002CH   BYTE   UNIT     XDATA          ?XD?OLED_PRINTF_INT32_SPI?SEEKFREE_OLED
010944H   01096DH   00002AH   BYTE   UNIT     XDATA          ?XD?FUNC_FLOAT_TO_STR?ZF_FUNCTION
01096EH   010997H   00002AH   BYTE   UNIT     XDATA          ?XD?SEEKFREE_ASSISTANT_OSCILLOSCOPE_SEND?SEEKFREE_ASSISTAN
                                                             -T
010998H   0109BDH   000026H   BYTE   INSEG    XDATA          ?XD?ISR
0109BEH   0109E2H   000025H   BYTE   UNIT     XDATA          ?XD?FUNC_HEX_TO_STR?ZF_FUNCTION
0109E3H   010A06H   000024H   BYTE   UNIT     XDATA          ?XD?PID_INIT?PID
010A07H   010A26H   000020H   BYTE   UNIT     XDATA          ?XD?IPS200_SHOW_WAVE?SEEKFREE_IPS200_SPI
010A27H   010A45H   00001FH   BYTE   UNIT     XDATA          ?XD?SEEKFREE_ASSISTANT_CAMERA_BOUNDARY_CONFIG?SEEKFREE_ASS
                                                             -ISTANT
010A46H   010A62H   00001DH   BYTE   UNIT     XDATA          ?XD?FUNC_INT_TO_STR?ZF_FUNCTION
010A63H   010A7FH   00001DH   BYTE   UNIT     XDATA          ?XD?FUNC_STR_TO_DOUBLE?ZF_FUNCTION
010A80H   010A9CH   00001DH   BYTE   UNIT     XDATA          ?XD?IPS200_SHOW_INT?SEEKFREE_IPS200_SPI
010A9DH   010AB9H   00001DH   BYTE   UNIT     XDATA          ?XD?IPS200_SHOW_UINT?SEEKFREE_IPS200_SPI
010ABAH   010AD5H   00001CH   BYTE   UNIT     XDATA          ?XD?GET_DOUBLE_NUMBER?SEEKFREE_GPS_TAU1201
010AD6H   010AEEH   000019H   BYTE   UNIT     XDATA          ?XD?FUNC_UINT_TO_STR?ZF_FUNCTION
010AEFH   010B07H   000019H   BYTE   UNIT     XDATA          ?XD?IPS200_SHOW_CHINESE?SEEKFREE_IPS200_SPI
010B08H   010B1FH   000018H   BYTE   INSEG    XDATA          ?XD?ZF_TIM
010B20H   010B37H   000018H   BYTE   UNIT     XDATA          ?XD?FIFO_READ_BUFFER?ZF_FIFO
010B38H   010B4FH   000018H   BYTE   UNIT     XDATA          ?XD?FIFO_READ_TAIL_BUFFER?ZF_FIFO
010B50H   010B67H   000018H   BYTE   UNIT     XDATA          ?XD?GET_FLOAT_NUMBER?SEEKFREE_GPS_TAU1201
010B68H   010B7FH   000018H   BYTE   UNIT     XDATA          ?XD?KALMAN_INIT?FILTERING
010B80H   010B95H   000016H   BYTE   UNIT     XDATA          ?XD?IPS200_DRAW_LINE?SEEKFREE_IPS200_SPI
010B96H   010BA9H   000014H   BYTE   UNIT     XDATA          ?XD?PWM_INIT?ZF_PWM
010BAAH   010BBDH   000014H   BYTE   UNIT     XDATA          ?XD?PWM_FREQ?ZF_PWM
010BBEH   010BD1H   000014H   BYTE   UNIT     XDATA          ?XD?NUMBER_CONVERSION_ASCII?SEEKFREE_PRINTF
010BD2H   010BE5H   000014H   BYTE   UNIT     XDATA          ?XD?MID_FILTER?ELEC
010BE6H   010BF7H   000012H   BYTE   UNIT     XDATA          ?XD?FIFO_WRITE_BUFFER?ZF_FIFO
010BF8H   010C09H   000012H   BYTE   INSEG    XDATA          ?XD?SEEKFREE_IMU963RA
L251 LINKER/LOCATER V4.66.93.0                                                        06/23/2025  18:43:06  PAGE 6


010C0AH   010C1AH   000011H   BYTE   UNIT     XDATA          ?XD?FUNC_STR_TO_FLOAT?ZF_FUNCTION
010C1BH   010C2BH   000011H   BYTE   UNIT     XDATA          ?XD?GET_INT_NUMBER?SEEKFREE_GPS_TAU1201
010C2CH   010C3BH   000010H   BYTE   UNIT     XDATA          ?XD?ADC_MEDIAN_AVERAGE?ZF_ADC
010C3CH   010C4BH   000010H   BYTE   UNIT     XDATA          ?XD?FIFO_INIT?ZF_FIFO
010C4CH   010C5BH   000010H   BYTE   UNIT     XDATA          ?XD?LCD_SHOWFLOAT?SEEKFREE_18TFT
010C5CH   010C6BH   000010H   BYTE   UNIT     XDATA          ?XD?DL1B_IIC_TRANSFER_8BIT_ARRAY?SEEKFREE_DL1B
010C6CH   010C7BH   000010H   BYTE   UNIT     XDATA          ?XD?IPS114_SHOWFLOAT?SEEKFREE_IPS114_SPI
010C7CH   010C8BH   000010H   BYTE   UNIT     XDATA          ?XD?OLED_DIS_BMP?SEEKFREE_OLED
010C8CH   010C9BH   000010H   BYTE   UNIT     XDATA          ?XD?OLED_DIS_BMP_SPI?SEEKFREE_OLED
010C9CH   010CABH   000010H   BYTE   INSEG    XDATA          ?XD?KEY
010CACH   010CBAH   00000FH   BYTE   UNIT     XDATA          ?XD?SEEKFREE_ASSISTANT_CAMERA_DATA_SEND?SEEKFREE_ASSISTANT
010CBBH   010CC8H   00000EH   BYTE   UNIT     XDATA          ?XD?PWM_DUTY?ZF_PWM
010CC9H   010CD6H   00000EH   BYTE   UNIT     XDATA          ?XD?UART_INIT?ZF_UART
010CD7H   010CE4H   00000EH   BYTE   UNIT     XDATA          ?XD?FUNC_STR_TO_HEX?ZF_FUNCTION
010CE5H   010CF2H   00000EH   BYTE   UNIT     XDATA          ?XD?OLED_PRINT_CHINESE?SEEKFREE_OLED
010CF3H   010D00H   00000EH   BYTE   UNIT     XDATA          ?XD?OLED_PRINT_CHINESE_SPI?SEEKFREE_OLED
010D01H   010D0EH   00000EH   BYTE   UNIT     XDATA          ?XD?GPS_GNGGA_PARSE?SEEKFREE_GPS_TAU1201
010D0FH   010D1CH   00000EH   BYTE   INSEG    XDATA          ?XD?SEEKFREE_IPS200_SPI
010D1DH   010D29H   00000DH   BYTE   UNIT     XDATA          ?XD?SPI_INIT?ZF_SPI
010D2AH   010D36H   00000DH   BYTE   UNIT     XDATA          ?XD?PRINTF_REVERSE_ORDER?SEEKFREE_PRINTF
010D37H   010D43H   00000DH   BYTE   UNIT     XDATA          ?XD?GET_PARAMETER_INDEX?SEEKFREE_GPS_TAU1201
010D44H   010D4FH   00000CH   BYTE   UNIT     XDATA          ?XD?FIFO_READ_ELEMENT?ZF_FIFO
010D50H   010D5BH   00000CH   BYTE   UNIT     XDATA          ?XD?SHOWIMAGE?SEEKFREE_18TFT
010D5CH   010D67H   00000CH   BYTE   INSEG    XDATA          ?XD?SEEKFREE_ICM20602
010D68H   010D73H   00000CH   BYTE   INSEG    XDATA          ?XD?SEEKFREE_IMU660RA
010D74H   010D7FH   00000CH   BYTE   UNIT     XDATA          ?XD?GPS_DATA_PARSE?SEEKFREE_GPS_TAU1201
010D80H   010D8BH   00000CH   BYTE   INSEG    XDATA          ?XD?SEEKFREE_MPU6050
010D8CH   010D97H   00000CH   BYTE   UNIT     XDATA          ?XD?PID_INC_FF?PID
010D98H   010DA3H   00000CH   BYTE   UNIT     XDATA          ?XD?PID_POS_GYROZ?PID
010DA4H   010DAEH   00000BH   BYTE   UNIT     XDATA          ?XD?OLED_UINT16?SEEKFREE_OLED
010DAFH   010DB9H   00000BH   BYTE   UNIT     XDATA          ?XD?OLED_INT16?SEEKFREE_OLED
010DBAH   010DC4H   00000BH   BYTE   UNIT     XDATA          ?XD?OLED_UINT16_SPI?SEEKFREE_OLED
010DC5H   010DCFH   00000BH   BYTE   UNIT     XDATA          ?XD?OLED_INT16_SPI?SEEKFREE_OLED
010DD0H   010DDAH   00000BH   BYTE   UNIT     XDATA          ?XD?GPS_UART_CALLBACK?SEEKFREE_GPS_TAU1201
010DDBH   010DE4H   00000AH   BYTE   UNIT     XDATA          ?XD?IAP_READ_BYTES?ZF_EEPROM
010DE5H   010DEEH   00000AH   BYTE   UNIT     XDATA          ?XD?IAP_WRITE_BYTES?ZF_EEPROM
010DEFH   010DF8H   00000AH   BYTE   UNIT     XDATA          ?XD?UART_PUTBUFF?ZF_UART
010DF9H   010E02H   00000AH   BYTE   UNIT     XDATA          ?XD?FIFO_WRITE_ELEMENT?ZF_FIFO
010E03H   010E0CH   00000AH   BYTE   UNIT     XDATA          ?XD?IPS200_SHOW_STRING?SEEKFREE_IPS200_SPI
010E0DH   010E16H   00000AH   BYTE   UNIT     XDATA          ?XD?SEEKFREE_ASSISTANT_CAMERA_INFORMATION_CONFIG?SEEKFREE_
                                                             -ASSISTANT
010E17H   010E1FH   000009H   BYTE   UNIT     XDATA          ?XD?ADC_VOLTAGE?ZF_ADC
010E20H   010E28H   000009H   BYTE   UNIT     XDATA          ?XD?FUNC_STR_TO_INT?ZF_FUNCTION
010E29H   010E31H   000009H   BYTE   UNIT     XDATA          ?XD?LCD_SHOWINT32?SEEKFREE_18TFT
010E32H   010E3AH   000009H   BYTE   UNIT     XDATA          ?XD?ICM20602_SIMSPI_R_REG_BYTES?SEEKFREE_ICM20602
010E3BH   010E43H   000009H   BYTE   UNIT     XDATA          ?XD?ICM20602_READ_REGISTERS?SEEKFREE_ICM20602
010E44H   010E4CH   000009H   BYTE   UNIT     XDATA          ?XD?IMU660RA_SIMSPI_W_REG_BYTES?SEEKFREE_IMU660RA
010E4DH   010E55H   000009H   BYTE   UNIT     XDATA          ?XD?IMU660RA_SIMSPI_R_REG_BYTES?SEEKFREE_IMU660RA
010E56H   010E5EH   000009H   BYTE   UNIT     XDATA          ?XD?IMU660RA_WRITE_REGISTERS?SEEKFREE_IMU660RA
010E5FH   010E67H   000009H   BYTE   UNIT     XDATA          ?XD?IMU660RA_READ_REGISTERS?SEEKFREE_IMU660RA
010E68H   010E70H   000009H   BYTE   UNIT     XDATA          ?XD?IMU963RA_SIMSPI_R_REG_BYTES?SEEKFREE_IMU963RA
010E71H   010E79H   000009H   BYTE   UNIT     XDATA          ?XD?IMU963RA_READ_ACC_GYRO_REGISTERS?SEEKFREE_IMU963RA
010E7AH   010E82H   000009H   BYTE   UNIT     XDATA          ?XD?IPS114_SHOWINT32?SEEKFREE_IPS114_SPI
010E83H   010E8BH   000009H   BYTE   UNIT     XDATA          ?XD?IPS200_SHOW_CHAR?SEEKFREE_IPS200_SPI
010E8CH   010E94H   000009H   BYTE   UNIT     XDATA          ?XD?SEEKFREE_ASSISTANT_SUM?SEEKFREE_ASSISTANT
010E95H   010E9CH   000008H   BYTE   UNIT     XDATA          ?XD?ADC_ONCE?ZF_ADC
010E9DH   010EA4H   000008H   BYTE   UNIT     XDATA          ?XD?FIFO_HEAD_OFFSET?ZF_FIFO
010EA5H   010EACH   000008H   BYTE   UNIT     XDATA          ?XD?FIFO_END_OFFSET?ZF_FIFO
010EADH   010EB4H   000008H   BYTE   UNIT     XDATA          ?XD?FUNC_GET_GREATEST_COMMON_DIVISOR?ZF_FUNCTION
010EB5H   010EBCH   000008H   BYTE   UNIT     XDATA          ?XD?FUNC_STR_TO_UINT?ZF_FUNCTION
010EBDH   010EC4H   000008H   BYTE   UNIT     XDATA          ?XD?LCD_SET_REGION?SEEKFREE_18TFT
010EC5H   010ECCH   000008H   BYTE   UNIT     XDATA          ?XD?LCD_SHOWSTR?SEEKFREE_18TFT
010ECDH   010ED4H   000008H   BYTE   UNIT     XDATA          ?XD?BLE6A20_SEND_BUFF?SEEKFREE_BLE6A20
010ED5H   010EDCH   000008H   BYTE   UNIT     XDATA          ?XD?BLE6A20_READ_BUFF?SEEKFREE_BLE6A20
010EDDH   010EE4H   000008H   BYTE   UNIT     XDATA          ?XD?IPS114_SET_REGION?SEEKFREE_IPS114_SPI
L251 LINKER/LOCATER V4.66.93.0                                                        06/23/2025  18:43:06  PAGE 7


010EE5H   010EECH   000008H   BYTE   UNIT     XDATA          ?XD?IPS114_SHOWSTR?SEEKFREE_IPS114_SPI
010EEDH   010EF4H   000008H   BYTE   UNIT     XDATA          ?XD?OLED_P6X8STR?SEEKFREE_OLED
010EF5H   010EFCH   000008H   BYTE   UNIT     XDATA          ?XD?OLED_P6X8STR_SPI?SEEKFREE_OLED
010EFDH   010F04H   000008H   BYTE   UNIT     XDATA          ?XD?WIRELESS_UART_SEND_BUFF?SEEKFREE_WIRELESS
010F05H   010F0CH   000008H   BYTE   UNIT     XDATA          ?XD?WIRELESS_UART_READ_BUFF?SEEKFREE_WIRELESS
010F0DH   010F14H   000008H   BYTE   UNIT     XDATA          ?XD?SEEKFREE_ASSISTANT_TRANSFER_CALLBACK?SEEKFREE_WIRELESS
010F15H   010F1CH   000008H   BYTE   UNIT     XDATA          ?XD?IPS200_SET_REGION?SEEKFREE_IPS200_SPI
010F1DH   010F24H   000008H   BYTE   UNIT     XDATA          ?XD?KALMAN_PREDICT?FILTERING
010F25H   010F2CH   000008H   BYTE   UNIT     XDATA          ?XD?KALMAN_UPDATE?FILTERING
010F2DH   010F34H   000008H   BYTE   UNIT     XDATA          ?XD?LOWPASS_INIT?FILTERING
010F35H   010F3CH   000008H   BYTE   UNIT     XDATA          ?XD?LOWPASS_FILTER?FILTERING
010F3DH   010F43H   000007H   BYTE   UNIT     XDATA          ?XD?IIC_READ_REG_BYTES?ZF_IIC
010F44H   010F4AH   000007H   BYTE   UNIT     XDATA          ?XD?CCD_SEND_DATA?SEEKFREE_TSL1401
010F4BH   010F51H   000007H   BYTE   UNIT     XDATA          ?XD?MPU6050_SIMIIC_READ_REGS?SEEKFREE_MPU6050
010F52H   010F58H   000007H   BYTE   UNIT     XDATA          ?XD?CHECK_ELECTROMAGNETIC_PROTECTION?ELEC
010F59H   010F5FH   000007H   BYTE   UNIT     XDATA          ?XD?SEEKFREE_ASSISTANT_CAMERA_DOT_SEND?SEEKFREE_ASSISTANT
010F60H   010F65H   000006H   BYTE   UNIT     XDATA          ?XD?DELAY_US?ZF_DELAY
010F66H   010F6BH   000006H   BYTE   UNIT     XDATA          ?XD?PIT_TIMER_MS?ZF_TIM
010F6CH   010F71H   000006H   BYTE   UNIT     XDATA          ?XD?ENCODER_DEBOUNCE?ZF_TIM
010F72H   010F77H   000006H   BYTE   UNIT     XDATA          ?XD?UART_PUTSTR?ZF_UART
010F78H   010F7DH   000006H   BYTE   UNIT     XDATA          ?XD?FIFO_CLEAR?ZF_FIFO
010F7EH   010F83H   000006H   BYTE   UNIT     XDATA          ?XD?IIC_INIT?ZF_IIC
010F84H   010F89H   000006H   BYTE   UNIT     XDATA          ?XD?IIC_READ_REG?ZF_IIC
010F8AH   010F8FH   000006H   BYTE   UNIT     XDATA          ?XD?LCD_DRAWPOINT?SEEKFREE_18TFT
010F90H   010F95H   000006H   BYTE   UNIT     XDATA          ?XD?LCD_SHOWCHAR?SEEKFREE_18TFT
010F96H   010F9BH   000006H   BYTE   UNIT     XDATA          ?XD?LCD_SHOWINT16?SEEKFREE_18TFT
010F9CH   010FA1H   000006H   BYTE   UNIT     XDATA          ?XD?LCD_SHOWUINT16?SEEKFREE_18TFT
010FA2H   010FA7H   000006H   BYTE   UNIT     XDATA          ?XD?ICM20602_ACC_TRANSITION?SEEKFREE_ICM20602
010FA8H   010FADH   000006H   BYTE   UNIT     XDATA          ?XD?ICM20602_GYRO_TRANSITION?SEEKFREE_ICM20602
010FAEH   010FB3H   000006H   BYTE   UNIT     XDATA          ?XD?IMU660RA_ACC_TRANSITION?SEEKFREE_IMU660RA
010FB4H   010FB9H   000006H   BYTE   UNIT     XDATA          ?XD?IMU660RA_GYRO_TRANSITION?SEEKFREE_IMU660RA
010FBAH   010FBFH   000006H   BYTE   UNIT     XDATA          ?XD?IMU963RA_ACC_TRANSITION?SEEKFREE_IMU963RA
010FC0H   010FC5H   000006H   BYTE   UNIT     XDATA          ?XD?IMU963RA_GYRO_TRANSITION?SEEKFREE_IMU963RA
010FC6H   010FCBH   000006H   BYTE   UNIT     XDATA          ?XD?IMU963RA_MAG_TRANSITION?SEEKFREE_IMU963RA
010FCCH   010FD1H   000006H   BYTE   UNIT     XDATA          ?XD?IPS114_DRAWPOINT?SEEKFREE_IPS114_SPI
010FD2H   010FD7H   000006H   BYTE   UNIT     XDATA          ?XD?IPS114_SHOWCHAR?SEEKFREE_IPS114_SPI
010FD8H   010FDDH   000006H   BYTE   UNIT     XDATA          ?XD?IPS114_SHOWINT16?SEEKFREE_IPS114_SPI
010FDEH   010FE3H   000006H   BYTE   UNIT     XDATA          ?XD?IPS114_SHOWUINT16?SEEKFREE_IPS114_SPI
010FE4H   010FE9H   000006H   BYTE   UNIT     XDATA          ?XD?OLED_HEXASCII?SEEKFREE_OLED
010FEAH   010FEFH   000006H   BYTE   UNIT     XDATA          ?XD?OLED_HEXASCII_SPI?SEEKFREE_OLED
010FF0H   010FF5H   000006H   BYTE   UNIT     XDATA          ?XD?IPS200_FULL?SEEKFREE_IPS200_SPI
010FF6H   010FFBH   000006H   BYTE   UNIT     XDATA          ?XD?IPS200_DRAW_POINT?SEEKFREE_IPS200_SPI
010FFCH   011001H   000006H   BYTE   UNIT     XDATA          ?XD?MPU6050_GET_ACCDATA?SEEKFREE_MPU6050
011002H   011007H   000006H   BYTE   UNIT     XDATA          ?XD?MPU6050_GET_GYRO?SEEKFREE_MPU6050
011008H   01100CH   000005H   BYTE   INSEG    XDATA          ?XD?ZF_UART
01100DH   011011H   000005H   BYTE   UNIT     XDATA          ?XD?LCD_SHOWINT8?SEEKFREE_18TFT
011012H   011016H   000005H   BYTE   UNIT     XDATA          ?XD?LCD_SHOWUINT8?SEEKFREE_18TFT
011017H   01101BH   000005H   BYTE   UNIT     XDATA          ?XD?ICM20602_SIMSPI_R_REG_BYTE?SEEKFREE_ICM20602
01101CH   011020H   000005H   BYTE   UNIT     XDATA          ?XD?IMU963RA_SIMSPI_R_REG_BYTE?SEEKFREE_IMU963RA
011021H   011025H   000005H   BYTE   UNIT     XDATA          ?XD?IPS114_SHOWINT8?SEEKFREE_IPS114_SPI
011026H   01102AH   000005H   BYTE   UNIT     XDATA          ?XD?IPS114_SHOWUINT8?SEEKFREE_IPS114_SPI
01102BH   01102FH   000005H   BYTE   UNIT     XDATA          ?XD?UTC_TO_BTC?SEEKFREE_GPS_TAU1201
011030H   011034H   000005H   BYTE   UNIT     XDATA          ?XD?NORMALIZE_SENSORS?ELEC
011035H   011038H   000004H   BYTE   INSEG    XDATA          ?XD?BOARD
011039H   01103CH   000004H   BYTE   INSEG    XDATA          ?XD?COMMON
01103DH   011040H   000004H   BYTE   UNIT     XDATA          ?XD?ADC_INIT?ZF_ADC
011041H   011044H   000004H   BYTE   INSEG    XDATA          ?XD?ZF_DELAY
011045H   011048H   000004H   BYTE   UNIT     XDATA          ?XD?DELAY_MS?ZF_DELAY
011049H   01104CH   000004H   BYTE   UNIT     XDATA          ?XD?IAP_ERASE_PAGE?ZF_EEPROM
01104DH   011050H   000004H   BYTE   UNIT     XDATA          ?XD?GPIO_PULL_SET?ZF_GPIO
011051H   011054H   000004H   BYTE   UNIT     XDATA          ?XD?GPIO_MODE?ZF_GPIO
011055H   011058H   000004H   BYTE   UNIT     XDATA          ?XD?MOTOR_CTRL?ZF_PWM
011059H   01105CH   000004H   BYTE   UNIT     XDATA          ?XD?CTIMER_COUNT_READ?ZF_TIM
01105DH   011060H   000004H   BYTE   UNIT     XDATA          ?XD?FIFO_USED?ZF_FIFO
011061H   011064H   000004H   BYTE   UNIT     XDATA          ?XD?FUNC_SOFT_DELAY?ZF_FUNCTION
L251 LINKER/LOCATER V4.66.93.0                                                        06/23/2025  18:43:06  PAGE 8


011065H   011068H   000004H   BYTE   INSEG    XDATA          ?XD?SEEKFREE_DL1B
011069H   01106CH   000004H   BYTE   UNIT     XDATA          ?XD?IPS114_CLEAR?SEEKFREE_IPS114_SPI
01106DH   011070H   000004H   BYTE   UNIT     XDATA          ?XD?IPS200_WRITE_16BIT_DATA_SPI?SEEKFREE_IPS200_SPI
011071H   011074H   000004H   BYTE   UNIT     XDATA          ?XD?IPS200_CLEAR?SEEKFREE_IPS200_SPI
011075H   011078H   000004H   BYTE   UNIT     XDATA          ?XD?IPS200_SET_COLOR?SEEKFREE_IPS200_SPI
011079H   01107CH   000004H   BYTE   UNIT     XDATA          ?XD?F_ABS?PID
01107DH   011080H   000004H   BYTE   UNIT     XDATA          ?XD?PID_CLEAN?PID
011081H   011084H   000004H   BYTE   UNIT     XDATA          ?XD?AVERAGE_FILTER?ELEC
011085H   011088H   000004H   BYTE   INSEG    XDATA          ?XD?SEEKFREE_ASSISTANT_INFACE
011089H   01108BH   000003H   BYTE   UNIT     XDATA          ?XD?NVIC_SETPRIORITY?ZF_NVIC
01108CH   01108EH   000003H   BYTE   UNIT     XDATA          ?XD?UART_PUTCHAR?ZF_UART
01108FH   011091H   000003H   BYTE   UNIT     XDATA          ?XD?IIC_DELAY_US?ZF_IIC
011092H   011094H   000003H   BYTE   UNIT     XDATA          ?XD?WAIT?ZF_IIC
011095H   011097H   000003H   BYTE   UNIT     XDATA          ?XD?IIC_WRITE_REG?ZF_IIC
011098H   01109AH   000003H   BYTE   UNIT     XDATA          ?XD?LCD_CLEAR?SEEKFREE_18TFT
01109BH   01109DH   000003H   BYTE   UNIT     XDATA          ?XD?IMU963RA_WRITE_MAG_REGISTER?SEEKFREE_IMU963RA
01109EH   0110A0H   000003H   BYTE   UNIT     XDATA          ?XD?OLED_PUTPIXEL?SEEKFREE_OLED
0110A1H   0110A3H   000003H   BYTE   UNIT     XDATA          ?XD?OLED_PUTPIXEL_SPI?SEEKFREE_OLED
0110A4H   0110A6H   000003H   BYTE   UNIT     XDATA          ?XD?MPU6050_READ_CH?SEEKFREE_MPU6050
0110A7H   0110A9H   000003H   BYTE   UNIT     XDATA          ?XD?MPU6050_SIMIIC_WRITE_REG?SEEKFREE_MPU6050
0110AAH   0110ACH   000003H   BYTE   UNIT     XDATA          ?XD?MPU6050_SIMIIC_READ_REG?SEEKFREE_MPU6050
0110ADH   0110AEH   000002H   BYTE   INSEG    XDATA          ?XD?ZF_ADC
0110AFH   0110B0H   000002H   BYTE   UNIT     XDATA          ?XD?ADC_INIT_5?ZF_ADC
0110B1H   0110B2H   000002H   BYTE   UNIT     XDATA          ?XD?PWM_SET_GPIO?ZF_PWM
0110B3H   0110B4H   000002H   BYTE   UNIT     XDATA          ?XD?SPI_CHANGE_PIN?ZF_SPI
0110B5H   0110B6H   000002H   BYTE   UNIT     XDATA          ?XD?CTIMER_COUNT_INIT?ZF_TIM
0110B7H   0110B8H   000002H   BYTE   UNIT     XDATA          ?XD?CTIMER_COUNT_CLEAN?ZF_TIM
0110B9H   0110BAH   000002H   BYTE   UNIT     XDATA          ?XD?I_ABS?ZF_TIM
0110BBH   0110BCH   000002H   BYTE   UNIT     XDATA          ?XD?GET_LEFT_ENCODER?ZF_TIM
0110BDH   0110BEH   000002H   BYTE   UNIT     XDATA          ?XD?GET_RIGHT_ENCODER?ZF_TIM
0110BFH   0110C0H   000002H   BYTE   UNIT     XDATA          ?XD?SEND_DATA?ZF_IIC
0110C1H   0110C2H   000002H   BYTE   UNIT     XDATA          ?XD?IIC_CHANGE_PIN?ZF_IIC
0110C3H   0110C4H   000002H   BYTE   UNIT     XDATA          ?XD?LCD_WRITEDATA_16BIT?SEEKFREE_18TFT
0110C5H   0110C6H   000002H   BYTE   UNIT     XDATA          ?XD?DL1B_GET_DISTANCE?SEEKFREE_DL1B
0110C7H   0110C8H   000002H   BYTE   UNIT     XDATA          ?XD?ICM20602_SIMSPI_W_REG_BYTE?SEEKFREE_ICM20602
0110C9H   0110CAH   000002H   BYTE   UNIT     XDATA          ?XD?ICM20602_WRITE_REGISTER?SEEKFREE_ICM20602
0110CBH   0110CCH   000002H   BYTE   UNIT     XDATA          ?XD?IMU660RA_SIMSPI_W_REG_BYTE?SEEKFREE_IMU660RA
0110CDH   0110CEH   000002H   BYTE   UNIT     XDATA          ?XD?IMU660RA_WRITE_REGISTER?SEEKFREE_IMU660RA
0110CFH   0110D0H   000002H   BYTE   UNIT     XDATA          ?XD?IMU963RA_SIMSPI_W_REG_BYTE?SEEKFREE_IMU963RA
0110D1H   0110D2H   000002H   BYTE   UNIT     XDATA          ?XD?IMU963RA_WRITE_ACC_GYRO_REGISTER?SEEKFREE_IMU963RA
0110D3H   0110D4H   000002H   BYTE   UNIT     XDATA          ?XD?IMU963RA_READ_MAG_REGISTER?SEEKFREE_IMU963RA
0110D5H   0110D6H   000002H   BYTE   UNIT     XDATA          ?XD?IMU963RA_CONNECT_MAG?SEEKFREE_IMU963RA
0110D7H   0110D8H   000002H   BYTE   UNIT     XDATA          ?XD?IPS114_WRITEDATA_16BIT?SEEKFREE_IPS114_SPI
0110D9H   0110DAH   000002H   BYTE   UNIT     XDATA          ?XD?OLED_SET_POS?SEEKFREE_OLED
0110DBH   0110DCH   000002H   BYTE   UNIT     XDATA          ?XD?OLED_FILL?SEEKFREE_OLED
0110DDH   0110DEH   000002H   BYTE   UNIT     XDATA          ?XD?OLED_CLRPIXEL?SEEKFREE_OLED
0110DFH   0110E0H   000002H   BYTE   UNIT     XDATA          ?XD?OLED_SET_POS_SPI?SEEKFREE_OLED
0110E1H   0110E2H   000002H   BYTE   UNIT     XDATA          ?XD?OLED_FILL_SPI?SEEKFREE_OLED
0110E3H   0110E4H   000002H   BYTE   UNIT     XDATA          ?XD?OLED_CLRPIXEL_SPI?SEEKFREE_OLED
0110E5H   0110E6H   000002H   BYTE   UNIT     XDATA          ?XD?IPS200_WRITE_16BIT_DATA?SEEKFREE_IPS200_SPI
0110E7H   0110E8H   000002H   BYTE   UNIT     XDATA          ?XD?IPS200_SET_DIR?SEEKFREE_IPS200_SPI
0110E9H   0110EAH   000002H   BYTE   UNIT     XDATA          ?XD?IPS200_SET_FONT?SEEKFREE_IPS200_SPI
0110EBH   0110ECH   000002H   BYTE   UNIT     XDATA          ?XD?MPU6050_SIMIIC_DELAY?SEEKFREE_MPU6050
0110EDH   0110EEH   000002H   BYTE   UNIT     XDATA          ?XD?MPU6050_SEND_CH?SEEKFREE_MPU6050
0110EFH   0110F0H   000002H   BYTE   UNIT     XDATA          ?XD?I_ABS?PID
0110F1H   0110F2H   000002H   BYTE   UNIT     XDATA          ?XD?ELECTROMAGNETIC_INIT?ELEC
0110F3H   0110F4H   000002H   BYTE   UNIT     XDATA          ?XD?GET_ADC?ELEC
0110F5H   0110F5H   000001H   BYTE   UNIT     XDATA          ?XD?PUTCHAR?BOARD
0110F6H   0110F6H   000001H   BYTE   UNIT     XDATA          ?XD?IAP_SET_TPS?ZF_EEPROM
0110F7H   0110F7H   000001H   BYTE   UNIT     XDATA          ?XD?SPI_MOSI?ZF_SPI
0110F8H   0110F8H   000001H   BYTE   UNIT     XDATA          ?XD?SPI_CHANGE_MODE?ZF_SPI
0110F9H   0110F9H   000001H   BYTE   UNIT     XDATA          ?XD?START?ZF_IIC
0110FAH   0110FAH   000001H   BYTE   UNIT     XDATA          ?XD?RECV_ACK?ZF_IIC
0110FBH   0110FBH   000001H   BYTE   UNIT     XDATA          ?XD?SEND_ACK?ZF_IIC
0110FCH   0110FCH   000001H   BYTE   UNIT     XDATA          ?XD?STOP?ZF_IIC
L251 LINKER/LOCATER V4.66.93.0                                                        06/23/2025  18:43:06  PAGE 9


0110FDH   0110FDH   000001H   BYTE   UNIT     XDATA          ?XD?LCD_WRITEINDEX?SEEKFREE_18TFT
0110FEH   0110FEH   000001H   BYTE   UNIT     XDATA          ?XD?LCD_WRITEDATA?SEEKFREE_18TFT
0110FFH   0110FFH   000001H   BYTE   UNIT     XDATA          ?XD?BLE6A20_CALLBACK?SEEKFREE_BLE6A20
011100H   011100H   000001H   BYTE   UNIT     XDATA          ?XD?BLE6A20_SEND_BYTE?SEEKFREE_BLE6A20
011101H   011101H   000001H   BYTE   UNIT     XDATA          ?XD?DL1B_SIMIIC_SENDACK?SEEKFREE_DL1B
011102H   011102H   000001H   BYTE   UNIT     XDATA          ?XD?DL1B_SEND_CH?SEEKFREE_DL1B
011103H   011103H   000001H   BYTE   UNIT     XDATA          ?XD?DL1B_READ_CH?SEEKFREE_DL1B
011104H   011104H   000001H   BYTE   UNIT     XDATA          ?XD?ICM20602_SIMSPI_WR_BYTE?SEEKFREE_ICM20602
011105H   011105H   000001H   BYTE   UNIT     XDATA          ?XD?ICM20602_READ_REGISTER?SEEKFREE_ICM20602
011106H   011106H   000001H   BYTE   UNIT     XDATA          ?XD?ICM20602_SELF_CHECK?SEEKFREE_ICM20602
011107H   011107H   000001H   BYTE   UNIT     XDATA          ?XD?ICM20602_INIT?SEEKFREE_ICM20602
011108H   011108H   000001H   BYTE   UNIT     XDATA          ?XD?IMU660RA_SIMSPI_WR_BYTE?SEEKFREE_IMU660RA
011109H   011109H   000001H   BYTE   UNIT     XDATA          ?XD?IMU660RA_READ_REGISTER?SEEKFREE_IMU660RA
01110AH   01110AH   000001H   BYTE   UNIT     XDATA          ?XD?IMU660RA_SELF_CHECK?SEEKFREE_IMU660RA
01110BH   01110BH   000001H   BYTE   UNIT     XDATA          ?XD?IMU963RA_SIMSPI_WR_BYTE?SEEKFREE_IMU963RA
01110CH   01110CH   000001H   BYTE   UNIT     XDATA          ?XD?IMU963RA_READ_ACC_GYRO_REGISTER?SEEKFREE_IMU963RA
01110DH   01110DH   000001H   BYTE   UNIT     XDATA          ?XD?IPS114_WRITEINDEX?SEEKFREE_IPS114_SPI
01110EH   01110EH   000001H   BYTE   UNIT     XDATA          ?XD?IPS114_WRITEDATA?SEEKFREE_IPS114_SPI
01110FH   01110FH   000001H   BYTE   UNIT     XDATA          ?XD?OLED_WRDAT?SEEKFREE_OLED
011110H   011110H   000001H   BYTE   UNIT     XDATA          ?XD?OLED_WRCMD?SEEKFREE_OLED
011111H   011111H   000001H   BYTE   UNIT     XDATA          ?XD?OLED_WRDAT_SPI?SEEKFREE_OLED
011112H   011112H   000001H   BYTE   UNIT     XDATA          ?XD?OLED_WRCMD_SPI?SEEKFREE_OLED
011113H   011113H   000001H   BYTE   UNIT     XDATA          ?XD?CCD_COLLECT?SEEKFREE_TSL1401
011114H   011114H   000001H   BYTE   UNIT     XDATA          ?XD?WIRELESS_UART_CALLBACK?SEEKFREE_WIRELESS
011115H   011115H   000001H   BYTE   UNIT     XDATA          ?XD?WIRELESS_UART_SEND_BYTE?SEEKFREE_WIRELESS
011116H   011116H   000001H   BYTE   UNIT     XDATA          ?XD?IPS200_WRITE_8BIT_DATA_SPI?SEEKFREE_IPS200_SPI
011117H   011117H   000001H   BYTE   UNIT     XDATA          ?XD?IPS200_WRITE_COMMAND?SEEKFREE_IPS200_SPI
011118H   011118H   000001H   BYTE   UNIT     XDATA          ?XD?IPS200_WRITE_8BIT_DATA?SEEKFREE_IPS200_SPI
011119H   011119H   000001H   BYTE   UNIT     XDATA          ?XD?MPU6050_SIMIIC_SENDACK?SEEKFREE_MPU6050
01111AH   01111AH   000001H   BYTE   UNIT     XDATA          ?XD?UART1_ISR?ISR
01111BH   01111BH   000001H   BYTE   UNIT     XDATA          ?XD?KEY_SCAN?KEY
01111CH   01111CH   000001H   BYTE   UNIT     XDATA          ?XD?UPDATE_MIN_MAX_VALUES?ELEC
01111DH   FEFFFFH   FDEEE3H   ---    ---      **GAP**
FF0000H   FF0002H   000003H   ---    OFFS..   CODE           ?CO?START251?4
FF0003H   FF0005H   000003H   ---    OFFS..   CODE           ?PR?IV?0
FF0006H   FF0009H   000004H   BYTE   INSEG    CODE           ?PR?ENABLEGLOBALIRQ?BOARD
FF000AH   FF000AH   000001H   BYTE   INSEG    CODE           ?PR?INT1_ISR?ISR
FF000BH   FF000DH   000003H   ---    OFFS..   CODE           ?PR?IV?1
FF000EH   FF0011H   000004H   BYTE   UNIT     CONST          ?CO?PRINTF
FF0012H   FF0012H   000001H   ---    ---      **GAP**
FF0013H   FF0015H   000003H   ---    OFFS..   CODE           ?PR?IV?2
FF0016H   FF001AH   000005H   ---    ---      **GAP**
FF001BH   FF001DH   000003H   ---    OFFS..   CODE           ?PR?IV?3
FF001EH   FF0022H   000005H   ---    ---      **GAP**
FF0023H   FF0025H   000003H   ---    OFFS..   CODE           ?PR?IV?4
FF0026H   FF003FH   00001AH   BYTE   INSEG    CODE           ?PR?MEMSET?_?MEMSET
FF0040H   FF0042H   000003H   ---    ---      **GAP**
FF0043H   FF0045H   000003H   ---    OFFS..   CODE           ?PR?IV?8
FF0046H   FF004DH   000008H   BYTE   INSEG    CODE           ?PR?INT0_ISR?ISR
FF004EH   FF0052H   000005H   ---    ---      **GAP**
FF0053H   FF0055H   000003H   ---    OFFS..   CODE           ?PR?IV?10
FF0056H   FF005AH   000005H   ---    ---      **GAP**
FF005BH   FF005DH   000003H   ---    OFFS..   CODE           ?PR?IV?11
FF005EH   FF0062H   000005H   ---    ---      **GAP**
FF0063H   FF0065H   000003H   ---    OFFS..   CODE           ?PR?IV?12
FF0066H   FF007BH   000016H   BYTE   INSEG    CODE           ?PR?SPI_MOSI?ZF_SPI
FF007CH   FF0081H   000006H   BYTE   UNIT     HCONST         ?HC?SEEKFREE_18TFT
FF0082H   FF0082H   000001H   ---    ---      **GAP**
FF0083H   FF0085H   000003H   ---    OFFS..   CODE           ?PR?IV?16
FF0086H   FF008AH   000005H   ---    ---      **GAP**
FF008BH   FF008DH   000003H   ---    OFFS..   CODE           ?PR?IV?17
FF008EH   FF0092H   000005H   ---    ---      **GAP**
FF0093H   FF0095H   000003H   ---    OFFS..   CODE           ?PR?IV?18
FF0096H   FF009AH   000005H   ---    ---      **GAP**
FF009BH   FF009DH   000003H   ---    OFFS..   CODE           ?PR?IV?19
L251 LINKER/LOCATER V4.66.93.0                                                        06/23/2025  18:43:06  PAGE 10


FF009EH   FF00A2H   000005H   ---    ---      **GAP**
FF00A3H   FF00A5H   000003H   ---    OFFS..   CODE           ?PR?IV?20
FF00A6H   FF212CH   002087H   BYTE   UNIT     CODE           ?CO?SEEKFREE_CONFIG
FF212DH   FF381DH   0016F1H   BYTE   UNIT     CODE           ?C?LIB_CODE
FF381EH   FF4625H   000E08H   BYTE   UNIT     CODE           ?CO?SEEKFREE_FONT
FF4626H   FF5066H   000A41H   BYTE   INSEG    CODE           ?PR?CALCULATE_POSITION_IMPROVED?ELEC
FF5067H   FF5A3FH   0009D9H   BYTE   INSEG    CODE           ?PR?GPIO_MODE?ZF_GPIO
FF5A40H   FF63B6H   000977H   BYTE   INSEG    CODE           ?PR?ZF_SPRINTF?SEEKFREE_PRINTF
FF63B7H   FF6938H   000582H   BYTE   INSEG    CODE           ?PR?FIFO_WRITE_BUFFER?ZF_FIFO
FF6939H   FF6EA3H   00056BH   BYTE   INSEG    CODE           ?PR?FIFO_READ_BUFFER?ZF_FIFO
FF6EA4H   FF7321H   00047EH   BYTE   INSEG    CODE           ?PR?PWM_INIT?ZF_PWM
FF7322H   FF774FH   00042EH   BYTE   INSEG    CODE           ?PR?TM1_ISR?ISR
FF7750H   FF7B1FH   0003D0H   BYTE   INSEG    CODE           ?PR?PID_INC_FF?PID
FF7B20H   FF7EDBH   0003BCH   BYTE   INSEG    CODE           ?PR?PWM_SET_GPIO?ZF_PWM
FF7EDCH   FF8258H   00037DH   BYTE   INSEG    CODE           ?PR?MID_FILTER?ELEC
FF8259H   FF8574H   00031CH   BYTE   INSEG    CODE           ?PR?UART_INIT?ZF_UART
FF8575H   FF8848H   0002D4H   BYTE   INSEG    CODE           ?PR?NORMALIZE_SENSORS?ELEC
FF8849H   FF8B0AH   0002C2H   BYTE   INSEG    CODE           ?PR?AVERAGE_FILTER?ELEC
FF8B0BH   FF8D40H   000236H   BYTE   INSEG    CODE           ?PR?SET_CLK?BOARD
FF8D41H   FF8F62H   000222H   BYTE   INSEG    CODE           ?PR?DISPLAY_ELECTROMAGNETIC_DATA?ELEC
FF8F63H   FF9138H   0001D6H   BYTE   INSEG    CODE           ?PR?PID_INIT?PID
FF9139H   FF930BH   0001D3H   BYTE   INSEG    CODE           ?PR?OLED_PRINTF_FLOAT_SPI?SEEKFREE_OLED
FF930CH   FF94CFH   0001C4H   BYTE   INSEG    CODE           ?PR?ALL_INIT?MAIN
FF94D0H   FF9688H   0001B9H   BYTE   INSEG    CODE           ?PR?PID_POS_GYROZ?PID
FF9689H   FF981FH   000197H   BYTE   INSEG    CODE           ?PR?NUMBER_CONVERSION_ASCII?SEEKFREE_PRINTF
FF9820H   FF99B0H   000191H   BYTE   INSEG    CODE           ?PR?GPS_UART_CALLBACK?SEEKFREE_GPS_TAU1201
FF99B1H   FF9B30H   000180H   BYTE   INSEG    CODE           ?PR?CHECK_ELECTROMAGNETIC_PROTECTION?ELEC
FF9B31H   FF9C92H   000162H   BYTE   INSEG    CODE           ?PR?PWM_DUTY?ZF_PWM
FF9C93H   FF9DF4H   000162H   BYTE   INSEG    CODE           ?PR?KEY_SCAN?KEY
FF9DF5H   FF9F39H   000145H   BYTE   INSEG    CODE           ?PR?FIFO_CLEAR?ZF_FIFO
FF9F3AH   FFA05DH   000124H   BYTE   INSEG    CODE           ?PR?KALMAN_UPDATE?FILTERING
FFA05EH   FFA16EH   000111H   BYTE   INSEG    CODE           ?PR?PIT_TIMER_MS?ZF_TIM
FFA16FH   FFA267H   0000F9H   BYTE   INSEG    CODE           ?PR?PRINTF_REVERSE_ORDER?SEEKFREE_PRINTF
FFA268H   FFA354H   0000EDH   BYTE   INSEG    CODE           ?PR?MOTOR_CTRL?ZF_PWM
FFA355H   FFA440H   0000ECH   BYTE   INSEG    CODE           ?PR?TM0_ISR?ISR
FFA441H   FFA52AH   0000EAH   BYTE   INSEG    CODE           ?PR?KALMAN_PREDICT?FILTERING
FFA52BH   FFA612H   0000E8H   BYTE   INSEG    CODE           ?PR?SPI_INIT?ZF_SPI
FFA613H   FFA6F5H   0000E3H   BYTE   INSEG    CODE           ?PR?OLED_P6X8STR_SPI?SEEKFREE_OLED
FFA6F6H   FFA7D8H   0000E3H   BYTE   INSEG    CODE           ?PR?ELECTROMAGNETIC_INIT?ELEC
FFA7D9H   FFA8B6H   0000DEH   BYTE   INSEG    CODE           ?PR?CTIMER_COUNT_READ?ZF_TIM
FFA8B7H   FFA97FH   0000C9H   BYTE   INSEG    CODE           ?PR?ADC_INIT?ZF_ADC
FFA980H   FFAA48H   0000C9H   BYTE   INSEG    CODE           ?PR?OLED_INIT_SPI?SEEKFREE_OLED
FFAA49H   FFAB0DH   0000C5H   BYTE   INSEG    CODE           ?PR?KALMAN_INIT?FILTERING
FFAB0EH   FFABD0H   0000C3H   BYTE   INSEG    CODE           ?PR?ENCODER_DEBOUNCE?ZF_TIM
FFABD1H   FFAC8CH   0000BCH   BYTE   INSEG    CODE           ?PR?LOWPASS_FILTER?FILTERING
FFAC8DH   FFAD40H   0000B4H   BYTE   INSEG    CODE           ?PR?ADC_ONCE?ZF_ADC
FFAD41H   FFADEDH   0000ADH   BYTE   INSEG    CODE           ?PR?IMU660RA_ACC_TRANSITION?SEEKFREE_IMU660RA
FFADEEH   FFAE90H   0000A3H   BYTE   INSEG    CODE           ?PR?BOARD_INIT?BOARD
FFAE91H   FFAF30H   0000A0H   BYTE   INSEG    CODE           ?PR?FIFO_HEAD_OFFSET?ZF_FIFO
FFAF31H   FFAFD0H   0000A0H   BYTE   INSEG    CODE           ?PR?FIFO_END_OFFSET?ZF_FIFO
FFAFD1H   FFB056H   000086H   BYTE   INSEG    CODE           ?PR?OLED_HEXASCII_SPI?SEEKFREE_OLED
FFB057H   FFB0C6H   000070H   BYTE   INSEG    CODE           ?PR?IMU660RA_SIMSPI_R_REG_BYTES?SEEKFREE_IMU660RA
FFB0C7H   FFB12DH   000067H   BYTE   INSEG    CODE           ?PR?PID_CLEAN?PID
FFB12EH   FFB192H   000065H   BYTE   INSEG    CODE           ?PR?CTIMER_COUNT_CLEAN?ZF_TIM
FFB193H   FFB1F4H   000062H   BYTE   INSEG    CODE           ?PR?GET_ADC?ELEC
FFB1F5H   FFB215H   000021H   BYTE   UNIT     CODE           ?C_C51STARTUP
FFB216H   FFB21DH   000008H   BYTE   UNIT     CODE           ?C_C51STARTUP?1
FFB21EH   FFB24EH   000031H   BYTE   UNIT     CODE           ?C_C51STARTUP?2
FFB24FH   FFB251H   000003H   BYTE   UNIT     CODE           ?C_C51STARTUP?3
FFB252H   FFB2AEH   00005DH   BYTE   INSEG    CODE           ?PR?OLED_FILL_SPI?SEEKFREE_OLED
FFB2AFH   FFB30AH   00005CH   BYTE   INSEG    CODE           ?PR?CTIMER_COUNT_INIT?ZF_TIM
FFB30BH   FFB366H   00005CH   BYTE   INSEG    CODE           ?PR?LOWPASS_INIT?FILTERING
FFB367H   FFB3BEH   000058H   BYTE   INSEG    CODE           ?PR?DELAY_INIT?ZF_DELAY
FFB3BFH   FFB416H   000058H   BYTE   INSEG    CODE           ?PR?UART4_ISR?ISR
FFB417H   FFB46CH   000056H   BYTE   INSEG    CODE           ?PR?IMU660RA_GET_GYRO?SEEKFREE_IMU660RA
L251 LINKER/LOCATER V4.66.93.0                                                        06/23/2025  18:43:06  PAGE 11


FFB46DH   FFB4C2H   000056H   BYTE   INSEG    CODE           ?PR?IMU660RA_SIMSPI_WR_BYTE?SEEKFREE_IMU660RA
FFB4C3H   FFB513H   000051H   BYTE   INSEG    CODE           ?PR?UART1_ISR?ISR
FFB514H   FFB55AH   000047H   BYTE   INSEG    CODE           ?PR?DELAY_US?ZF_DELAY
FFB55BH   FFB5A1H   000047H   BYTE   INSEG    CODE           ?PR?UART2_ISR?ISR
FFB5A2H   FFB5E6H   000045H   BYTE   INSEG    CODE           ?PR?MOTOR_INIT?ZF_PWM
FFB5E7H   FFB626H   000040H   BYTE   INSEG    CODE           ?PR?IMU660RA_READ_REGISTERS?SEEKFREE_IMU660RA
FFB627H   FFB663H   00003DH   BYTE   INSEG    CODE           ?PR?DELAY_MS?ZF_DELAY
FFB664H   FFB6A0H   00003DH   BYTE   INSEG    CODE           ?PR?OLED_SET_POS_SPI?SEEKFREE_OLED
FFB6A1H   FFB6DCH   00003CH   BYTE   INSEG    CODE           ?PR?KEY_TASK?KEY
FFB6DDH   FFB715H   000039H   BYTE   INSEG    CODE           ?PR?GET_RIGHT_ENCODER?ZF_TIM
FFB716H   FFB74CH   000037H   BYTE   INSEG    CODE           ?PR?GET_LEFT_ENCODER?ZF_TIM
FFB74DH   FFB783H   000037H   BYTE   INSEG    CODE           ?PR?FIFO_USED?ZF_FIFO
FFB784H   FFB7BAH   000037H   BYTE   INSEG    CODE           ?PR?OLED_UINT16_SPI?SEEKFREE_OLED
FFB7BBH   FFB7F1H   000037H   BYTE   INSEG    CODE           ?PR?STRNCMP?_?STRNCMP
FFB7F2H   FFB820H   00002FH   BYTE   INSEG    CODE           ?PR?ENCODER_INIT?ZF_TIM
FFB821H   FFB847H   000027H   BYTE   INSEG    CODE           ?PR?I_ABS?ZF_TIM
FFB848H   FFB86DH   000026H   BYTE   INSEG    CODE           ?PR?UART3_ISR?ISR
FFB86EH   FFB892H   000025H   BYTE   INSEG    CODE           ?PR?MAIN?MAIN
FFB893H   FFB8B7H   000025H   BYTE   INSEG    CODE           ?PR?MEMCPY?_?MEMCPY
FFB8B8H   FFB8CCH   000015H   BYTE   INSEG    CODE           ?PR?OLED_WRCMD_SPI?SEEKFREE_OLED
FFB8CDH   FFB8E1H   000015H   BYTE   INSEG    CODE           ?PR?OLED_WRDAT_SPI?SEEKFREE_OLED
FFB8E2H   FFB8E9H   000008H   BYTE   INSEG    CODE           ?PR?INT2_ISR?ISR
FFB8EAH   FFB8F1H   000008H   BYTE   INSEG    CODE           ?PR?INT3_ISR?ISR
FFB8F2H   FFB8F9H   000008H   BYTE   INSEG    CODE           ?PR?INT4_ISR?ISR
FFB8FAH   FFB901H   000008H   BYTE   INSEG    CODE           ?PR?TM2_ISR?ISR
FFB902H   FFB909H   000008H   BYTE   INSEG    CODE           ?PR?TM3_ISR?ISR
FFB90AH   FFB911H   000008H   BYTE   INSEG    CODE           ?PR?TM4_ISR?ISR
FFB912H   FFBDE4H   0004D3H   BYTE   UNIT     HCONST         ?C_INITHDATA
FFBDE5H   FFBE86H   0000A2H   BYTE   UNIT     HCONST         ?HC?SEEKFREE_GPS_TAU1201
FFBE87H   FFBEDEH   000058H   BYTE   UNIT     HCONST         ?HC?ZF_PWM
FFBEDFH   FFBF29H   00004BH   BYTE   UNIT     HCONST         ?HC?SEEKFREE_IMU963RA
FFBF2AH   FFBF5DH   000034H   BYTE   UNIT     HCONST         ?HC?SEEKFREE_IMU660RA
FFBF5EH   FFBF90H   000033H   BYTE   UNIT     HCONST         ?HC?SEEKFREE_ICM20602
FFBF91H   FFBFC3H   000033H   BYTE   UNIT     HCONST         ?HC?ELEC
FFBFC4H   FFBFF1H   00002EH   BYTE   UNIT     HCONST         ?HC?SEEKFREE_MPU6050
FFBFF2H   FFC00FH   00001EH   BYTE   UNIT     HCONST         ?HC?SEEKFREE_OLED
FFC010H   FFC01FH   000010H   BYTE   UNIT     HCONST         ?HC?ZF_FUNCTION
FFC020H   FFC027H   000008H   BYTE   UNIT     HCONST         ?HC?FILTERING
FFC028H   FFC02DH   000006H   BYTE   UNIT     HCONST         ?HC?SEEKFREE_IPS114_SPI

* * * * * * * * *   R E M O V E D     S E G M E N T S   * * * * * * * *
   *DEL*:           000004H   BYTE   INSEG    CODE           ?PR?DISABLEGLOBALIRQ?BOARD
   *DEL*:           000012H   BYTE   INSEG    CODE           ?PR?PUTCHAR?BOARD
   *DEL*:           000096H   BYTE   INSEG    CODE           ?PR?ADC_VOLTAGE?ZF_ADC
   *DEL*:           00014DH   BYTE   INSEG    CODE           ?PR?ADC_MEDIAN_AVERAGE?ZF_ADC
   *DEL*:           000046H   BYTE   INSEG    CODE           ?PR?ADC_INIT_5?ZF_ADC
   *DEL*:           000022H   BYTE   INSEG    CODE           ?PR?IAP_SET_TPS?ZF_EEPROM
   *DEL*:           000015H   BYTE   INSEG    CODE           ?PR?EEPROM_TRIG?ZF_EEPROM
   *DEL*:           000041H   BYTE   INSEG    CODE           ?PR?IAP_ERASE_PAGE?ZF_EEPROM
   *DEL*:           000004H   BYTE   INSEG    CODE           ?PR?IAP_IDLE?ZF_EEPROM
   *DEL*:           00009FH   BYTE   INSEG    CODE           ?PR?IAP_READ_BYTES?ZF_EEPROM
   *DEL*:           000008H   BYTE   INSEG    CODE           ?PR?IAP_INIT?ZF_EEPROM
   *DEL*:           00008FH   BYTE   INSEG    CODE           ?PR?IAP_WRITE_BYTES?ZF_EEPROM
   *DEL*:           000012H   BYTE   INSEG    CODE           ?PR?IAP_GET_CMD_STATE?ZF_EEPROM
   *DEL*:           0000A5H   BYTE   INSEG    CODE           ?PR?GPIO_PULL_SET?ZF_GPIO
   *DEL*:           0000CDH   BYTE   INSEG    CODE           ?PR?NVIC_SETPRIORITY?ZF_NVIC
   *DEL*:           000231H   BYTE   INSEG    CODE           ?PR?PWM_FREQ?ZF_PWM
   *DEL*:           000026H   BYTE   INSEG    CODE           ?PR?SPI_CHANGE_MODE?ZF_SPI
   *DEL*:           0000D2H   BYTE   INSEG    CODE           ?PR?SPI_CHANGE_PIN?ZF_SPI
   *DEL*:           00007DH   BYTE   INSEG    CODE           ?PR?UART_PUTCHAR?ZF_UART
   *DEL*:           00004FH   BYTE   INSEG    CODE           ?PR?UART_PUTBUFF?ZF_UART
   *DEL*:           000044H   BYTE   INSEG    CODE           ?PR?UART_PUTSTR?ZF_UART
   *DEL*:           0001B3H   BYTE   INSEG    CODE           ?PR?FIFO_WRITE_ELEMENT?ZF_FIFO
   *DEL*:           000622H   BYTE   INSEG    CODE           ?PR?FIFO_READ_TAIL_BUFFER?ZF_FIFO
   *DEL*:           0000CDH   BYTE   INSEG    CODE           ?PR?FIFO_INIT?ZF_FIFO
L251 LINKER/LOCATER V4.66.93.0                                                        06/23/2025  18:43:06  PAGE 12


   *DEL*:           000221H   BYTE   INSEG    CODE           ?PR?FIFO_READ_ELEMENT?ZF_FIFO
   *DEL*:           0003D2H   BYTE   INSEG    CODE           ?PR?FUNC_DOUBLE_TO_STR?ZF_FUNCTION
   *DEL*:           000309H   BYTE   INSEG    CODE           ?PR?FUNC_STR_TO_DOUBLE?ZF_FUNCTION
   *DEL*:           000399H   BYTE   INSEG    CODE           ?PR?FUNC_FLOAT_TO_STR?ZF_FUNCTION
   *DEL*:           000258H   BYTE   INSEG    CODE           ?PR?FUNC_STR_TO_FLOAT?ZF_FUNCTION
   *DEL*:           000028H   BYTE   INSEG    CODE           ?PR?FUNC_SOFT_DELAY?ZF_FUNCTION
   *DEL*:           0000F9H   BYTE   INSEG    CODE           ?PR?FUNC_UINT_TO_STR?ZF_FUNCTION
   *DEL*:           00009EH   BYTE   INSEG    CODE           ?PR?FUNC_STR_TO_UINT?ZF_FUNCTION
   *DEL*:           000162H   BYTE   INSEG    CODE           ?PR?FUNC_HEX_TO_STR?ZF_FUNCTION
   *DEL*:           0001CAH   BYTE   INSEG    CODE           ?PR?FUNC_STR_TO_HEX?ZF_FUNCTION
   *DEL*:           000193H   BYTE   INSEG    CODE           ?PR?FUNC_INT_TO_STR?ZF_FUNCTION
   *DEL*:           00011FH   BYTE   INSEG    CODE           ?PR?FUNC_STR_TO_INT?ZF_FUNCTION
   *DEL*:           0000A6H   BYTE   INSEG    CODE           ?PR?FUNC_GET_GREATEST_COMMON_DIVISOR?ZF_FUNCTION
   *DEL*:           00002CH   BYTE   INSEG    CODE           ?PR?SEND_DATA?ZF_IIC
   *DEL*:           00003BH   BYTE   INSEG    CODE           ?PR?IIC_CHANGE_PIN?ZF_IIC
   *DEL*:           00001CH   BYTE   INSEG    CODE           ?PR?RECV_DATA?ZF_IIC
   *DEL*:           000019H   BYTE   INSEG    CODE           ?PR?START?ZF_IIC
   *DEL*:           00005AH   BYTE   INSEG    CODE           ?PR?WAIT?ZF_IIC
   *DEL*:           000025H   BYTE   INSEG    CODE           ?PR?SEND_ACK?ZF_IIC
   *DEL*:           000019H   BYTE   INSEG    CODE           ?PR?RECV_ACK?ZF_IIC
   *DEL*:           000019H   BYTE   INSEG    CODE           ?PR?STOP?ZF_IIC
   *DEL*:           00001EH   BYTE   INSEG    CODE           ?PR?SEND_NAK?ZF_IIC
   *DEL*:           000084H   BYTE   INSEG    CODE           ?PR?IIC_INIT?ZF_IIC
   *DEL*:           0000A9H   BYTE   INSEG    CODE           ?PR?IIC_READ_REG?ZF_IIC
   *DEL*:           0000F7H   BYTE   INSEG    CODE           ?PR?IIC_READ_REG_BYTES?ZF_IIC
   *DEL*:           000080H   BYTE   INSEG    CODE           ?PR?IIC_WRITE_REG?ZF_IIC
   *DEL*:           000039H   BYTE   INSEG    CODE           ?PR?IIC_DELAY_US?ZF_IIC
   *DEL*:           0000E1H   BYTE   INSEG    CODE           ?PR?LCD_SHOWUINT16?SEEKFREE_18TFT
   *DEL*:           0000FBH   BYTE   INSEG    CODE           ?PR?LCD_SHOWINT32?SEEKFREE_18TFT
   *DEL*:           00013BH   BYTE   INSEG    CODE           ?PR?LCD_SHOWINT16?SEEKFREE_18TFT
   *DEL*:           00005BH   BYTE   INSEG    CODE           ?PR?LCD_CLEAR?SEEKFREE_18TFT
   *DEL*:           000077H   BYTE   INSEG    CODE           ?PR?LCD_SHOWSTR?SEEKFREE_18TFT
   *DEL*:           000015H   BYTE   INSEG    CODE           ?PR?LCD_WRITEINDEX?SEEKFREE_18TFT
   *DEL*:           000015H   BYTE   INSEG    CODE           ?PR?LCD_WRITEDATA?SEEKFREE_18TFT
   *DEL*:           00011DH   BYTE   INSEG    CODE           ?PR?SHOWIMAGE?SEEKFREE_18TFT
   *DEL*:           000074H   BYTE   INSEG    CODE           ?PR?LCD_SET_REGION?SEEKFREE_18TFT
   *DEL*:           0001F7H   BYTE   INSEG    CODE           ?PR?LCD_INIT?SEEKFREE_18TFT
   *DEL*:           0000B1H   BYTE   INSEG    CODE           ?PR?LCD_SHOWUINT8?SEEKFREE_18TFT
   *DEL*:           0000FCH   BYTE   INSEG    CODE           ?PR?LCD_SHOWINT8?SEEKFREE_18TFT
   *DEL*:           000034H   BYTE   INSEG    CODE           ?PR?LCD_WRITEDATA_16BIT?SEEKFREE_18TFT
   *DEL*:           0001ABH   BYTE   INSEG    CODE           ?PR?LCD_SHOWFLOAT?SEEKFREE_18TFT
   *DEL*:           000037H   BYTE   INSEG    CODE           ?PR?LCD_DRAWPOINT?SEEKFREE_18TFT
   *DEL*:           0000CBH   BYTE   INSEG    CODE           ?PR?LCD_SHOWCHAR?SEEKFREE_18TFT
   *DEL*:           00004EH   BYTE   INSEG    CODE           ?PR?BLE6A20_READ_BUFF?SEEKFREE_BLE6A20
   *DEL*:           0000C4H   BYTE   INSEG    CODE           ?PR?BLE6A20_SEND_BUFF?SEEKFREE_BLE6A20
   *DEL*:           000022H   BYTE   INSEG    CODE           ?PR?BLE6A20_CALLBACK?SEEKFREE_BLE6A20
   *DEL*:           000062H   BYTE   INSEG    CODE           ?PR?BLE6A20_INIT?SEEKFREE_BLE6A20
   *DEL*:           00001EH   BYTE   INSEG    CODE           ?PR?BLE6A20_SEND_BYTE?SEEKFREE_BLE6A20
   *DEL*:           000028H   BYTE   INSEG    CODE           ?PR?DL1B_SIMIIC_SENDACK?SEEKFREE_DL1B
   *DEL*:           00006AH   BYTE   INSEG    CODE           ?PR?DL1B_READ_CH?SEEKFREE_DL1B
   *DEL*:           000046H   BYTE   INSEG    CODE           ?PR?DL1B_SEND_CH?SEEKFREE_DL1B
   *DEL*:           0000B8H   BYTE   INSEG    CODE           ?PR?DL1B_IIC_TRANSFER_8BIT_ARRAY?SEEKFREE_DL1B
   *DEL*:           000021H   BYTE   INSEG    CODE           ?PR?DL1B_SCCB_WAITACK?SEEKFREE_DL1B
   *DEL*:           00017CH   BYTE   INSEG    CODE           ?PR?DL1B_GET_DISTANCE?SEEKFREE_DL1B
   *DEL*:           00001DH   BYTE   INSEG    CODE           ?PR?DL1B_SIMIIC_DELAY?SEEKFREE_DL1B
   *DEL*:           000013H   BYTE   INSEG    CODE           ?PR?DL1B_SIMIIC_START?SEEKFREE_DL1B
   *DEL*:           000016H   BYTE   INSEG    CODE           ?PR?DL1B_SIMIIC_STOP?SEEKFREE_DL1B
   *DEL*:           000136H   BYTE   INSEG    CODE           ?PR?DL1B_INIT?SEEKFREE_DL1B
   *DEL*:           000020H   BYTE   INSEG    CODE           ?PR?ICM20602_READ_REGISTER?SEEKFREE_ICM20602
   *DEL*:           0000BEH   BYTE   INSEG    CODE           ?PR?ICM20602_GYRO_TRANSITION?SEEKFREE_ICM20602
   *DEL*:           00001EH   BYTE   INSEG    CODE           ?PR?ICM20602_WRITE_REGISTER?SEEKFREE_ICM20602
   *DEL*:           000056H   BYTE   INSEG    CODE           ?PR?ICM20602_SIMSPI_WR_BYTE?SEEKFREE_ICM20602
   *DEL*:           00004EH   BYTE   INSEG    CODE           ?PR?ICM20602_SELF_CHECK?SEEKFREE_ICM20602
   *DEL*:           000076H   BYTE   INSEG    CODE           ?PR?ICM20602_SIMSPI_R_REG_BYTES?SEEKFREE_ICM20602
   *DEL*:           000031H   BYTE   INSEG    CODE           ?PR?ICM20602_SIMSPI_R_REG_BYTE?SEEKFREE_ICM20602
L251 LINKER/LOCATER V4.66.93.0                                                        06/23/2025  18:43:06  PAGE 13


   *DEL*:           00001DH   BYTE   INSEG    CODE           ?PR?ICM20602_SIMSPI_W_REG_BYTE?SEEKFREE_ICM20602
   *DEL*:           0000C2H   BYTE   INSEG    CODE           ?PR?ICM20602_INIT?SEEKFREE_ICM20602
   *DEL*:           000056H   BYTE   INSEG    CODE           ?PR?ICM20602_GET_ACC?SEEKFREE_ICM20602
   *DEL*:           0000BAH   BYTE   INSEG    CODE           ?PR?ICM20602_ACC_TRANSITION?SEEKFREE_ICM20602
   *DEL*:           000040H   BYTE   INSEG    CODE           ?PR?ICM20602_READ_REGISTERS?SEEKFREE_ICM20602
   *DEL*:           000056H   BYTE   INSEG    CODE           ?PR?ICM20602_GET_GYRO?SEEKFREE_ICM20602
   *DEL*:           000024H   BYTE   INSEG    CODE           ?PR?IMU660RA_READ_REGISTER?SEEKFREE_IMU660RA
   *DEL*:           00003AH   BYTE   INSEG    CODE           ?PR?IMU660RA_WRITE_REGISTERS?SEEKFREE_IMU660RA
   *DEL*:           0000E2H   BYTE   INSEG    CODE           ?PR?IMU660RA_GYRO_TRANSITION?SEEKFREE_IMU660RA
   *DEL*:           00001EH   BYTE   INSEG    CODE           ?PR?IMU660RA_WRITE_REGISTER?SEEKFREE_IMU660RA
   *DEL*:           00004BH   BYTE   INSEG    CODE           ?PR?IMU660RA_SELF_CHECK?SEEKFREE_IMU660RA
   *DEL*:           00005CH   BYTE   INSEG    CODE           ?PR?IMU660RA_SIMSPI_W_REG_BYTES?SEEKFREE_IMU660RA
   *DEL*:           00001DH   BYTE   INSEG    CODE           ?PR?IMU660RA_SIMSPI_W_REG_BYTE?SEEKFREE_IMU660RA
   *DEL*:           0000AEH   BYTE   INSEG    CODE           ?PR?IMU660RA_INIT?SEEKFREE_IMU660RA
   *DEL*:           000056H   BYTE   INSEG    CODE           ?PR?IMU660RA_GET_ACC?SEEKFREE_IMU660RA
   *DEL*:           0000BEH   BYTE   INSEG    CODE           ?PR?IMU963RA_ACC_TRANSITION?SEEKFREE_IMU963RA
   *DEL*:           000056H   BYTE   INSEG    CODE           ?PR?IMU963RA_GET_GYRO?SEEKFREE_IMU963RA
   *DEL*:           00006FH   BYTE   INSEG    CODE           ?PR?IMU963RA_MAG_TRANSITION?SEEKFREE_IMU963RA
   *DEL*:           000114H   BYTE   INSEG    CODE           ?PR?IMU963RA_GYRO_TRANSITION?SEEKFREE_IMU963RA
   *DEL*:           000056H   BYTE   INSEG    CODE           ?PR?IMU963RA_SIMSPI_WR_BYTE?SEEKFREE_IMU963RA
   *DEL*:           00006FH   BYTE   INSEG    CODE           ?PR?IMU963RA_READ_MAG_REGISTER?SEEKFREE_IMU963RA
   *DEL*:           00003DH   BYTE   INSEG    CODE           ?PR?IMU963RA_CONNECT_MAG?SEEKFREE_IMU963RA
   *DEL*:           000040H   BYTE   INSEG    CODE           ?PR?IMU963RA_READ_ACC_GYRO_REGISTERS?SEEKFREE_IMU963RA
   *DEL*:           000086H   BYTE   INSEG    CODE           ?PR?IMU963RA_WRITE_MAG_REGISTER?SEEKFREE_IMU963RA
   *DEL*:           000025H   BYTE   INSEG    CODE           ?PR?IMU963RA_READ_ACC_GYRO_REGISTER?SEEKFREE_IMU963RA
   *DEL*:           000070H   BYTE   INSEG    CODE           ?PR?IMU963RA_SIMSPI_R_REG_BYTES?SEEKFREE_IMU963RA
   *DEL*:           000037H   BYTE   INSEG    CODE           ?PR?IMU963RA_SIMSPI_R_REG_BYTE?SEEKFREE_IMU963RA
   *DEL*:           000051H   BYTE   INSEG    CODE           ?PR?IMU963RA_MAG_SELF_CHECK?SEEKFREE_IMU963RA
   *DEL*:           00001EH   BYTE   INSEG    CODE           ?PR?IMU963RA_WRITE_ACC_GYRO_REGISTER?SEEKFREE_IMU963RA
   *DEL*:           000023H   BYTE   INSEG    CODE           ?PR?IMU963RA_SIMSPI_W_REG_BYTE?SEEKFREE_IMU963RA
   *DEL*:           00011DH   BYTE   INSEG    CODE           ?PR?IMU963RA_INIT?SEEKFREE_IMU963RA
   *DEL*:           00004EH   BYTE   INSEG    CODE           ?PR?IMU963RA_ACC_GYRO_SELF_CHECK?SEEKFREE_IMU963RA
   *DEL*:           000056H   BYTE   INSEG    CODE           ?PR?IMU963RA_GET_ACC?SEEKFREE_IMU963RA
   *DEL*:           000071H   BYTE   INSEG    CODE           ?PR?IMU963RA_GET_MAG?SEEKFREE_IMU963RA
   *DEL*:           0000ADH   BYTE   INSEG    CODE           ?PR?IPS114_SHOWUINT8?SEEKFREE_IPS114_SPI
   *DEL*:           0000F8H   BYTE   INSEG    CODE           ?PR?IPS114_SHOWINT8?SEEKFREE_IPS114_SPI
   *DEL*:           000034H   BYTE   INSEG    CODE           ?PR?IPS114_WRITEDATA_16BIT?SEEKFREE_IPS114_SPI
   *DEL*:           0001ABH   BYTE   INSEG    CODE           ?PR?IPS114_SHOWFLOAT?SEEKFREE_IPS114_SPI
   *DEL*:           000037H   BYTE   INSEG    CODE           ?PR?IPS114_DRAWPOINT?SEEKFREE_IPS114_SPI
   *DEL*:           0000CBH   BYTE   INSEG    CODE           ?PR?IPS114_SHOWCHAR?SEEKFREE_IPS114_SPI
   *DEL*:           0000E1H   BYTE   INSEG    CODE           ?PR?IPS114_SHOWUINT16?SEEKFREE_IPS114_SPI
   *DEL*:           0000FBH   BYTE   INSEG    CODE           ?PR?IPS114_SHOWINT32?SEEKFREE_IPS114_SPI
   *DEL*:           000137H   BYTE   INSEG    CODE           ?PR?IPS114_SHOWINT16?SEEKFREE_IPS114_SPI
   *DEL*:           000068H   BYTE   INSEG    CODE           ?PR?IPS114_CLEAR?SEEKFREE_IPS114_SPI
   *DEL*:           000077H   BYTE   INSEG    CODE           ?PR?IPS114_SHOWSTR?SEEKFREE_IPS114_SPI
   *DEL*:           000015H   BYTE   INSEG    CODE           ?PR?IPS114_WRITEINDEX?SEEKFREE_IPS114_SPI
   *DEL*:           000015H   BYTE   INSEG    CODE           ?PR?IPS114_WRITEDATA?SEEKFREE_IPS114_SPI
   *DEL*:           000064H   BYTE   INSEG    CODE           ?PR?IPS114_SET_REGION?SEEKFREE_IPS114_SPI
   *DEL*:           000178H   BYTE   INSEG    CODE           ?PR?IPS114_INIT?SEEKFREE_IPS114_SPI
   *DEL*:           000057H   BYTE   INSEG    CODE           ?PR?OLED_PUTPIXEL?SEEKFREE_OLED
   *DEL*:           00003DH   BYTE   INSEG    CODE           ?PR?OLED_SET_POS?SEEKFREE_OLED
   *DEL*:           0004E4H   BYTE   INSEG    CODE           ?PR?OLED_DIS_BMP_SPI?SEEKFREE_OLED
   *DEL*:           0001D3H   BYTE   INSEG    CODE           ?PR?OLED_PRINTF_FLOAT?SEEKFREE_OLED
   *DEL*:           00004EH   BYTE   INSEG    CODE           ?PR?OLED_CLRPIXEL_SPI?SEEKFREE_OLED
   *DEL*:           000049H   BYTE   INSEG    CODE           ?PR?OLED_WRCMD?SEEKFREE_OLED
   *DEL*:           000074H   BYTE   INSEG    CODE           ?PR?TEST_OLED?SEEKFREE_OLED
   *DEL*:           0000F4H   BYTE   INSEG    CODE           ?PR?OLED_PRINT_CHINESE_SPI?SEEKFREE_OLED
   *DEL*:           000049H   BYTE   INSEG    CODE           ?PR?OLED_WRDAT?SEEKFREE_OLED
   *DEL*:           00005DH   BYTE   INSEG    CODE           ?PR?OLED_FILL?SEEKFREE_OLED
   *DEL*:           000116H   BYTE   INSEG    CODE           ?PR?OLED_PRINTF_INT32?SEEKFREE_OLED
   *DEL*:           000037H   BYTE   INSEG    CODE           ?PR?OLED_UINT16?SEEKFREE_OLED
   *DEL*:           000057H   BYTE   INSEG    CODE           ?PR?OLED_PUTPIXEL_SPI?SEEKFREE_OLED
   *DEL*:           0000E3H   BYTE   INSEG    CODE           ?PR?OLED_P6X8STR?SEEKFREE_OLED
   *DEL*:           00008BH   BYTE   INSEG    CODE           ?PR?OLED_INT16?SEEKFREE_OLED
   *DEL*:           0000A8H   BYTE   INSEG    CODE           ?PR?OLED_INIT?SEEKFREE_OLED
L251 LINKER/LOCATER V4.66.93.0                                                        06/23/2025  18:43:06  PAGE 14


   *DEL*:           000086H   BYTE   INSEG    CODE           ?PR?OLED_HEXASCII?SEEKFREE_OLED
   *DEL*:           000116H   BYTE   INSEG    CODE           ?PR?OLED_PRINTF_INT32_SPI?SEEKFREE_OLED
   *DEL*:           00008BH   BYTE   INSEG    CODE           ?PR?OLED_INT16_SPI?SEEKFREE_OLED
   *DEL*:           000519H   BYTE   INSEG    CODE           ?PR?OLED_DIS_BMP?SEEKFREE_OLED
   *DEL*:           00004EH   BYTE   INSEG    CODE           ?PR?OLED_CLRPIXEL?SEEKFREE_OLED
   *DEL*:           0000F4H   BYTE   INSEG    CODE           ?PR?OLED_PRINT_CHINESE?SEEKFREE_OLED
   *DEL*:           0000ACH   BYTE   INSEG    CODE           ?PR?CCD_SEND_DATA?SEEKFREE_TSL1401
   *DEL*:           000022H   BYTE   INSEG    CODE           ?PR?CCD_INIT?SEEKFREE_TSL1401
   *DEL*:           00007EH   BYTE   INSEG    CODE           ?PR?CCD_COLLECT?SEEKFREE_TSL1401
   *DEL*:           00004EH   BYTE   INSEG    CODE           ?PR?WIRELESS_UART_READ_BUFF?SEEKFREE_WIRELESS
   *DEL*:           0000C4H   BYTE   INSEG    CODE           ?PR?WIRELESS_UART_SEND_BUFF?SEEKFREE_WIRELESS
   *DEL*:           000022H   BYTE   INSEG    CODE           ?PR?WIRELESS_UART_CALLBACK?SEEKFREE_WIRELESS
   *DEL*:           000062H   BYTE   INSEG    CODE           ?PR?WIRELESS_UART_INIT?SEEKFREE_WIRELESS
   *DEL*:           00006FH   BYTE   INSEG    CODE           ?PR?TEST_WIRELESS_OSCILLOSCOPE?SEEKFREE_WIRELESS
   *DEL*:           00001EH   BYTE   INSEG    CODE           ?PR?WIRELESS_UART_SEND_BYTE?SEEKFREE_WIRELESS
   *DEL*:           00003CH   BYTE   INSEG    CODE           ?PR?SEEKFREE_ASSISTANT_TRANSFER_CALLBACK?SEEKFREE_WIRELESS
   *DEL*:           0000AEH   BYTE   INSEG    CODE           ?PR?GET_DOUBLE_NUMBER?SEEKFREE_GPS_TAU1201
   *DEL*:           000097H   BYTE   INSEG    CODE           ?PR?GET_FLOAT_NUMBER?SEEKFREE_GPS_TAU1201
   *DEL*:           0001CEH   BYTE   INSEG    CODE           ?PR?UTC_TO_BTC?SEEKFREE_GPS_TAU1201
   *DEL*:           000372H   BYTE   INSEG    CODE           ?PR?GET_TWO_POINTS_DISTANCE?SEEKFREE_GPS_TAU1201
   *DEL*:           000102H   BYTE   INSEG    CODE           ?PR?GPS_GNGGA_PARSE?SEEKFREE_GPS_TAU1201
   *DEL*:           00075CH   BYTE   INSEG    CODE           ?PR?GPS_GNRMC_PARSE?SEEKFREE_GPS_TAU1201
   *DEL*:           000212H   BYTE   INSEG    CODE           ?PR?GPS_DATA_PARSE?SEEKFREE_GPS_TAU1201
   *DEL*:           000088H   BYTE   INSEG    CODE           ?PR?GET_INT_NUMBER?SEEKFREE_GPS_TAU1201
   *DEL*:           00030CH   BYTE   INSEG    CODE           ?PR?GPS_INIT?SEEKFREE_GPS_TAU1201
   *DEL*:           0000D3H   BYTE   INSEG    CODE           ?PR?GET_PARAMETER_INDEX?SEEKFREE_GPS_TAU1201
   *DEL*:           000564H   BYTE   INSEG    CODE           ?PR?GET_TWO_POINTS_AZIMUTH?SEEKFREE_GPS_TAU1201
   *DEL*:           00019DH   BYTE   INSEG    CODE           ?PR?IPS200_SHOW_FLOAT?SEEKFREE_IPS200_SPI
   *DEL*:           00003DH   BYTE   INSEG    CODE           ?PR?IPS200_DRAW_POINT?SEEKFREE_IPS200_SPI
   *DEL*:           000086H   BYTE   INSEG    CODE           ?PR?IPS200_SHOW_STRING?SEEKFREE_IPS200_SPI
   *DEL*:           000147H   BYTE   INSEG    CODE           ?PR?IPS200_SHOW_CHAR?SEEKFREE_IPS200_SPI
   *DEL*:           000025H   BYTE   INSEG    CODE           ?PR?IPS200_SET_COLOR?SEEKFREE_IPS200_SPI
   *DEL*:           0001E6H   BYTE   INSEG    CODE           ?PR?IPS200_SHOW_WAVE?SEEKFREE_IPS200_SPI
   *DEL*:           00002DH   BYTE   INSEG    CODE           ?PR?IPS200_WRITE_16BIT_DATA_SPI?SEEKFREE_IPS200_SPI
   *DEL*:           0001D6H   BYTE   INSEG    CODE           ?PR?IPS200_INIT_SPI?SEEKFREE_IPS200_SPI
   *DEL*:           0000E8H   BYTE   INSEG    CODE           ?PR?IPS200_SHOW_UINT?SEEKFREE_IPS200_SPI
   *DEL*:           000013H   BYTE   INSEG    CODE           ?PR?IPS200_SET_FONT?SEEKFREE_IPS200_SPI
   *DEL*:           00004BH   BYTE   INSEG    CODE           ?PR?IPS200_SET_DIR?SEEKFREE_IPS200_SPI
   *DEL*:           0000EEH   BYTE   INSEG    CODE           ?PR?IPS200_SHOW_INT?SEEKFREE_IPS200_SPI
   *DEL*:           00001EH   BYTE   INSEG    CODE           ?PR?IPS200_WRITE_COMMAND?SEEKFREE_IPS200_SPI
   *DEL*:           000015H   BYTE   INSEG    CODE           ?PR?IPS200_WRITE_8BIT_DATA?SEEKFREE_IPS200_SPI
   *DEL*:           0001B6H   BYTE   INSEG    CODE           ?PR?IPS200_SHOW_CHINESE?SEEKFREE_IPS200_SPI
   *DEL*:           000081H   BYTE   INSEG    CODE           ?PR?IPS200_CLEAR?SEEKFREE_IPS200_SPI
   *DEL*:           00000CH   BYTE   INSEG    CODE           ?PR?IPS200_WRITE_8BIT_DATA_SPI?SEEKFREE_IPS200_SPI
   *DEL*:           000019H   BYTE   INSEG    CODE           ?PR?IPS200_WRITE_16BIT_DATA?SEEKFREE_IPS200_SPI
   *DEL*:           000087H   BYTE   INSEG    CODE           ?PR?IPS200_FULL?SEEKFREE_IPS200_SPI
   *DEL*:           00004CH   BYTE   INSEG    CODE           ?PR?IPS200_SET_REGION?SEEKFREE_IPS200_SPI
   *DEL*:           00025FH   BYTE   INSEG    CODE           ?PR?IPS200_DRAW_LINE?SEEKFREE_IPS200_SPI
   *DEL*:           000013H   BYTE   INSEG    CODE           ?PR?MPU6050_SIMIIC_START?SEEKFREE_MPU6050
   *DEL*:           00008EH   BYTE   INSEG    CODE           ?PR?MPU6050_SIMIIC_READ_REGS?SEEKFREE_MPU6050
   *DEL*:           00003FH   BYTE   INSEG    CODE           ?PR?MPU6050_SIMIIC_READ_REG?SEEKFREE_MPU6050
   *DEL*:           000016H   BYTE   INSEG    CODE           ?PR?MPU6050_SIMIIC_STOP?SEEKFREE_MPU6050
   *DEL*:           00002EH   BYTE   INSEG    CODE           ?PR?MPU6050_SIMIIC_WRITE_REG?SEEKFREE_MPU6050
   *DEL*:           000060H   BYTE   INSEG    CODE           ?PR?MPU6050_INIT?SEEKFREE_MPU6050
   *DEL*:           000033H   BYTE   INSEG    CODE           ?PR?MPU6050_SELF1_CHECK?SEEKFREE_MPU6050
   *DEL*:           000028H   BYTE   INSEG    CODE           ?PR?MPU6050_SIMIIC_SENDACK?SEEKFREE_MPU6050
   *DEL*:           000065H   BYTE   INSEG    CODE           ?PR?TEST_MPU6050?SEEKFREE_MPU6050
   *DEL*:           000065H   BYTE   INSEG    CODE           ?PR?MPU6050_READ_CH?SEEKFREE_MPU6050
   *DEL*:           000045H   BYTE   INSEG    CODE           ?PR?MPU6050_SEND_CH?SEEKFREE_MPU6050
   *DEL*:           00005CH   BYTE   INSEG    CODE           ?PR?MPU6050_GET_GYRO?SEEKFREE_MPU6050
   *DEL*:           000021H   BYTE   INSEG    CODE           ?PR?MPU6050_SCCB_WAITACK?SEEKFREE_MPU6050
   *DEL*:           00005CH   BYTE   INSEG    CODE           ?PR?MPU6050_GET_ACCDATA?SEEKFREE_MPU6050
   *DEL*:           000020H   BYTE   INSEG    CODE           ?PR?MPU6050_SIMIIC_DELAY?SEEKFREE_MPU6050
   *DEL*:           000035H   BYTE   INSEG    CODE           ?PR?F_ABS?PID
   *DEL*:           000027H   BYTE   INSEG    CODE           ?PR?I_ABS?PID
L251 LINKER/LOCATER V4.66.93.0                                                        06/23/2025  18:43:06  PAGE 15


   *DEL*:           000335H   BYTE   INSEG    CODE           ?PR?UPDATE_MIN_MAX_VALUES?ELEC
   *DEL*:           0004A6H   BYTE   INSEG    CODE           ?PR?SEEKFREE_ASSISTANT_CAMERA_BOUNDARY_CONFIG?SEEKFREE_ASS
                                                             -ISTANT
   *DEL*:           000142H   BYTE   INSEG    CODE           ?PR?SEEKFREE_ASSISTANT_CAMERA_DOT_SEND?SEEKFREE_ASSISTANT
   *DEL*:           000189H   BYTE   INSEG    CODE           ?PR?SEEKFREE_ASSISTANT_OSCILLOSCOPE_SEND?SEEKFREE_ASSISTAN
                                                             -T
   *DEL*:           00002EH   BYTE   INSEG    CODE           ?PR?SEEKFREE_ASSISTANT_INIT?SEEKFREE_ASSISTANT
   *DEL*:           00005AH   BYTE   INSEG    CODE           ?PR?SEEKFREE_ASSISTANT_SUM?SEEKFREE_ASSISTANT
   *DEL*:           000061H   BYTE   INSEG    CODE           ?PR?SEEKFREE_ASSISTANT_CAMERA_INFORMATION_CONFIG?SEEKFREE_
                                                             -ASSISTANT
   *DEL*:           00026CH   BYTE   INSEG    CODE           ?PR?SEEKFREE_ASSISTANT_DATA_ANALYSIS?SEEKFREE_ASSISTANT
   *DEL*:           00015FH   BYTE   INSEG    CODE           ?PR?SEEKFREE_ASSISTANT_CAMERA_DATA_SEND?SEEKFREE_ASSISTANT
   *DEL*:           00004AH   BYTE   INSEG    CODE           ?PR?SEEKFREE_ASSISTANT_CAMERA_SEND?SEEKFREE_ASSISTANT
   *DEL*:           000028H   BYTE   UNIT     XDATA          ?XT?PRINTF
   *DEL*:           00019BH   BYTE   INSEG    CODE           ?PR?POW?_?POW
   *DEL*:           000030H   BYTE   INSEG    CODE           ?PR?STRNCPY?_?STRNCPY
   *DEL*:           00000EH   BYTE   INSEG    CODE           ?PR?STRLEN?_?STRLEN
   *DEL*:           00001FH   BYTE   INSEG    CODE           ?PR?STRCHR?_?STRCHR



OVERLAY MAP OF MODULE:   .\Out_File\Trigger (board)


FUNCTION/MODULE                                BIT_GROUP   DATA_GROUP 
--> CALLED FUNCTION/MODULE                    START  STOP  START  STOP
======================================================================
?C_C51STARTUP                                 ----- -----  ----- -----

*** NEW ROOT ********************************

?C_C51STARTUP?3                               ----- -----  ----- -----
  +--> main/main

main/main                                     ----- -----  ----- -----
  +--> board_init/board
  +--> All_Init/main
  +--> Key_Task/Key
  +--> mid_filter/Elec
  +--> normalize_sensors/Elec
  +--> check_electromagnetic_protection/Elec
  +--> calculate_position_improved/Elec
  +--> display_electromagnetic_data/Elec

board_init/board                              ----- -----  ----- -----
  +--> set_clk/board
  +--> delay_init/zf_delay
  +--> uart_init/zf_uart
  +--> EnableGlobalIRQ/board

set_clk/board                                 ----- -----  ----- -----

delay_init/zf_delay                           ----- -----  ----- -----
  +--> ?C?SLDIV/?C?SLDIV

?C?SLDIV/?C?SLDIV                             ----- -----  ----- -----
  +--> ?C?ULIDIV/?C?ULDIV

?C?ULIDIV/?C?ULDIV                            ----- -----  ----- -----

uart_init/zf_uart                             ----- -----  ----- -----
  +--> ?C?ULIDIV/?C?ULDIV

EnableGlobalIRQ/board                         ----- -----  ----- -----

L251 LINKER/LOCATER V4.66.93.0                                                        06/23/2025  18:43:06  PAGE 16


All_Init/main                                 ----- -----  ----- -----
  +--> oled_init_spi/SEEKFREE_OLED
  +--> oled_fill_spi/SEEKFREE_OLED
  +--> electromagnetic_init/Elec
  +--> adc_init/zf_adc
  +--> Motor_Init/zf_pwm
  +--> Encoder_Init/zf_tim
  +--> gpio_mode/zf_gpio
  +--> Pid_Init/Pid
  +--> LowPass_init/Filtering
  +--> Kalman_Init/Filtering
  +--> pit_timer_ms/zf_tim
  +--> delay_ms/zf_delay

oled_init_spi/SEEKFREE_OLED                   ----- -----  ----- -----
  +--> spi_init/zf_spi
  +--> delay_ms/zf_delay
  +--> oled_wrcmd_spi/SEEKFREE_OLED
  +--> oled_fill_spi/SEEKFREE_OLED
  +--> oled_set_pos_spi/SEEKFREE_OLED

spi_init/zf_spi                               ----- -----  ----- -----
  +--> gpio_mode/zf_gpio

gpio_mode/zf_gpio                             ----- -----  ----- -----

delay_ms/zf_delay                             ----- -----  ----- -----

oled_wrcmd_spi/SEEKFREE_OLED                  ----- -----  ----- -----
  +--> spi_mosi/zf_spi

spi_mosi/zf_spi                               ----- -----  ----- -----

oled_fill_spi/SEEKFREE_OLED                   ----- -----  ----- -----
  +--> oled_wrcmd_spi/SEEKFREE_OLED
  +--> oled_wrdat_spi/SEEKFREE_OLED

oled_wrdat_spi/SEEKFREE_OLED                  ----- -----  ----- -----
  +--> spi_mosi/zf_spi

oled_set_pos_spi/SEEKFREE_OLED                ----- -----  ----- -----
  +--> oled_wrcmd_spi/SEEKFREE_OLED

electromagnetic_init/Elec                     ----- -----  ----- -----
  +--> adc_init/zf_adc

adc_init/zf_adc                               ----- -----  ----- -----

Motor_Init/zf_pwm                             ----- -----  ----- -----
  +--> pwm_init/zf_pwm
  +--> gpio_mode/zf_gpio

pwm_init/zf_pwm                               ----- -----  ----- -----
  +--> pwm_set_gpio/zf_pwm
  +--> ?C?ULIDIV/?C?ULDIV

pwm_set_gpio/zf_pwm                           ----- -----  ----- -----
  +--> gpio_mode/zf_gpio

Encoder_Init/zf_tim                           ----- -----  ----- -----
  +--> ctimer_count_init/zf_tim

ctimer_count_init/zf_tim                      ----- -----  ----- -----

Pid_Init/Pid                                  ----- -----  ----- -----
L251 LINKER/LOCATER V4.66.93.0                                                        06/23/2025  18:43:06  PAGE 17



LowPass_init/Filtering                        ----- -----  ----- -----

Kalman_Init/Filtering                         ----- -----  ----- -----

pit_timer_ms/zf_tim                           ----- -----  ----- -----
  +--> ?C?SLDIV/?C?SLDIV

Key_Task/Key                                  ----- -----  ----- -----

mid_filter/Elec                               ----- -----  ----- -----
  +--> average_filter/Elec

average_filter/Elec                           ----- -----  ----- -----
  +--> get_adc/Elec
  +--> delay_us/zf_delay

get_adc/Elec                                  ----- -----  ----- -----
  +--> adc_once/zf_adc

adc_once/zf_adc                               ----- -----  ----- -----

delay_us/zf_delay                             ----- -----  ----- -----

normalize_sensors/Elec                        ----- -----  ----- -----

check_electromagnetic_protection/Elec         ----- -----  ----- -----

calculate_position_improved/Elec              ----- -----  ----- -----

display_electromagnetic_data/Elec             ----- -----  ----- -----
  +--> oled_p6x8str_spi/SEEKFREE_OLED
  +--> oled_uint16_spi/SEEKFREE_OLED
  +--> oled_printf_float_spi/SEEKFREE_OLED

oled_p6x8str_spi/SEEKFREE_OLED                ----- -----  ----- -----
  +--> oled_set_pos_spi/SEEKFREE_OLED
  +--> oled_wrdat_spi/SEEKFREE_OLED

oled_uint16_spi/SEEKFREE_OLED                 ----- -----  ----- -----
  +--> oled_hexascii_spi/SEEKFREE_OLED
  +--> oled_p6x8str_spi/SEEKFREE_OLED

oled_hexascii_spi/SEEKFREE_OLED               ----- -----  ----- -----

oled_printf_float_spi/SEEKFREE_OLED           ----- -----  ----- -----
  +--> zf_sprintf/SEEKFREE_PRINTF
  +--> oled_p6x8str_spi/SEEKFREE_OLED

zf_sprintf/SEEKFREE_PRINTF                    ----- -----  ----- -----
  +--> number_conversion_ascii/SEEKFREE_PRINTF
  +--> printf_reverse_order/SEEKFREE_PRINTF
  +--> memcpy?_/memcpy

number_conversion_ascii/SEEKFREE_PRINTF       ----- -----  ----- -----
  +--> ?C?SLDIV/?C?SLDIV
  +--> ?C?ULIDIV/?C?ULDIV

printf_reverse_order/SEEKFREE_PRINTF          ----- -----  ----- -----

memcpy?_/memcpy                               ----- -----  ----- -----

*** NEW ROOT ********************************

UART1_Isr/isr                                 ----- -----  ----- -----
L251 LINKER/LOCATER V4.66.93.0                                                        06/23/2025  18:43:06  PAGE 18



*** NEW ROOT ********************************

UART2_Isr/isr                                 ----- -----  ----- -----
  +--> gps_uart_callback/SEEKFREE_GPS_TAU1201

gps_uart_callback/SEEKFREE_GPS_TAU1201        ----- -----  ----- -----
  +--> fifo_write_buffer/zf_fifo
  +--> fifo_read_buffer/zf_fifo
  +--> strncmp?_/STRNCMP
  +--> fifo_used/zf_fifo
  +--> fifo_clear/zf_fifo

fifo_write_buffer/zf_fifo                     ----- -----  ----- -----
  +--> memcpy?_/memcpy
  +--> fifo_head_offset/zf_fifo

fifo_head_offset/zf_fifo                      ----- -----  ----- -----

fifo_read_buffer/zf_fifo                      ----- -----  ----- -----
  +--> fifo_used/zf_fifo
  +--> memcpy?_/memcpy
  +--> fifo_end_offset/zf_fifo

fifo_used/zf_fifo                             ----- -----  ----- -----

fifo_end_offset/zf_fifo                       ----- -----  ----- -----

strncmp?_/STRNCMP                             ----- -----  ----- -----

fifo_clear/zf_fifo                            ----- -----  ----- -----
  +--> memset?_/memset

memset?_/memset                               ----- -----  ----- -----

*** NEW ROOT ********************************

UART3_Isr/isr                                 ----- -----  ----- -----

*** NEW ROOT ********************************

UART4_Isr/isr                                 ----- -----  ----- -----

*** NEW ROOT ********************************

INT0_Isr/isr                                  ----- -----  ----- -----

*** NEW ROOT ********************************

INT1_Isr/isr                                  ----- -----  ----- -----

*** NEW ROOT ********************************

INT2_Isr/isr                                  ----- -----  ----- -----

*** NEW ROOT ********************************

INT3_Isr/isr                                  ----- -----  ----- -----

*** NEW ROOT ********************************

INT4_Isr/isr                                  ----- -----  ----- -----

*** NEW ROOT ********************************

L251 LINKER/LOCATER V4.66.93.0                                                        06/23/2025  18:43:06  PAGE 19


TM0_Isr/isr                                   ----- -----  ----- -----
  +--> Key_Scan/Key

Key_Scan/Key                                  ----- -----  ----- -----

*** NEW ROOT ********************************

TM1_Isr/isr                                   ----- -----  ----- -----
  +--> get_left_encoder/zf_tim
  +--> get_right_encoder/zf_tim
  +--> LowPass_Filter/Filtering
  +--> encoder_debounce/zf_tim
  +--> imu660ra_get_gyro/SEEKFREE_IMU660RA
  +--> imu660ra_acc_transition/SEEKFREE_IMU660RA
  +--> Kalman_Update/Filtering
  +--> Pid_Pos_GyroZ/Pid
  +--> Kalman_Predict/Filtering
  +--> Pid_Inc_Ff/Pid
  +--> Pid_Clean/Pid
  +--> Motor_Ctrl/zf_pwm

get_left_encoder/zf_tim                       ----- -----  ----- -----
  +--> ctimer_count_read/zf_tim
  +--> ctimer_count_clean/zf_tim

ctimer_count_read/zf_tim                      ----- -----  ----- -----

ctimer_count_clean/zf_tim                     ----- -----  ----- -----

get_right_encoder/zf_tim                      ----- -----  ----- -----
  +--> ctimer_count_read/zf_tim
  +--> ctimer_count_clean/zf_tim

LowPass_Filter/Filtering                      ----- -----  ----- -----

encoder_debounce/zf_tim                       ----- -----  ----- -----
  +--> I_abs/zf_tim

I_abs/zf_tim                                  ----- -----  ----- -----

imu660ra_get_gyro/SEEKFREE_IMU660RA           ----- -----  ----- -----
  +--> imu660ra_read_registers/SEEKFREE_IMU660RA

imu660ra_read_registers/SEEKFREE_IMU660R+     ----- -----  ----- -----
... A
  +--> imu660ra_simspi_r_reg_bytes/SEEKFREE_IMU660RA

imu660ra_simspi_r_reg_bytes/SEEKFREE_IMU+     ----- -----  ----- -----
... 660RA
  +--> imu660ra_simspi_wr_byte/SEEKFREE_IMU660RA

imu660ra_simspi_wr_byte/SEEKFREE_IMU660R+     ----- -----  ----- -----
... A

imu660ra_acc_transition/SEEKFREE_IMU660R+     ----- -----  ----- -----
... A

Kalman_Update/Filtering                       ----- -----  ----- -----

Pid_Pos_GyroZ/Pid                             ----- -----  ----- -----

Kalman_Predict/Filtering                      ----- -----  ----- -----

Pid_Inc_Ff/Pid                                ----- -----  ----- -----

L251 LINKER/LOCATER V4.66.93.0                                                        06/23/2025  18:43:06  PAGE 20


Pid_Clean/Pid                                 ----- -----  ----- -----

Motor_Ctrl/zf_pwm                             ----- -----  ----- -----
  +--> pwm_duty/zf_pwm

pwm_duty/zf_pwm                               ----- -----  ----- -----

*** NEW ROOT ********************************

TM2_Isr/isr                                   ----- -----  ----- -----

*** NEW ROOT ********************************

TM3_Isr/isr                                   ----- -----  ----- -----

*** NEW ROOT ********************************

TM4_Isr/isr                                   ----- -----  ----- -----

*** NEW ROOT ********************************

?C_C51STARTUP?1                               ----- -----  ----- -----

*** NEW ROOT ********************************

?C_C51STARTUP?2                               ----- -----  ----- -----



PUBLIC SYMBOLS OF MODULE:  .\Out_File\Trigger (board)


      VALUE       CLASS    TYPE      PUBLIC SYMBOL NAME
      =================================================
      00FF37F7H   CODE     ---       ?C?BMOVEPP
      00FF37F5H   CODE     ---       ?C?BMOVEPP8
      00FF24AEH   CODE     NEAR LAB  ?C?CASTD
      00FF36F6H   CODE     NEAR LAB  ?C?CASTF
      000000FFH   NUMBER   ---       ?C?CODESEG
      00FF246BH   CODE     NEAR LAB  ?C?DCASTC
      00FF250EH   CODE     NEAR LAB  ?C?DCASTF
      00FF2466H   CODE     NEAR LAB  ?C?DCASTI
      00FF2461H   CODE     NEAR LAB  ?C?DCASTL
      00FF2EC2H   CODE     ---       ?C?DP2SERIES
      00FF2134H   CODE     ---       ?C?DPADD
      00FF23F4H   CODE     ---       ?C?DPCMP
      00FF23F2H   CODE     ---       ?C?DPCMP3
      00FF31ADH   CODE     ---       ?C?DPCONVERT
      00FF2353H   CODE     ---       ?C?DPDIV
      00FF29E4H   CODE     ---       ?C?DPGETOPN2
      00FF2243H   CODE     ---       ?C?DPMUL
      00FF2A2FH   CODE     ---       ?C?DPNANRESULT
      00FF2453H   CODE     ---       ?C?DPNEG
      00FF2A3BH   CODE     ---       ?C?DPOVERFLOW
      00FF2A07H   CODE     ---       ?C?DPRESULT
      00FF2A20H   CODE     ---       ?C?DPRESULT2
      00FF32D4H   CODE     ---       ?C?DPROUND
      00FF2ECDH   CODE     ---       ?C?DPSERIES
      00FF2130H   CODE     ---       ?C?DPSUB
      00FF2A36H   CODE     ---       ?C?DPUNDERFLOW
      00FF33AFH   CODE     ---       ?C?DTNPWR
      00FF36C3H   CODE     NEAR LAB  ?C?FCASTC
      00FF2550H   CODE     NEAR LAB  ?C?FCASTD
      00FF36BEH   CODE     NEAR LAB  ?C?FCASTI
      00FF36B9H   CODE     NEAR LAB  ?C?FCASTL
L251 LINKER/LOCATER V4.66.93.0                                                        06/23/2025  18:43:06  PAGE 21


      00FF348CH   CODE     ---       ?C?FPADD
      00FF3667H   CODE     ---       ?C?FPCMP
      00FF3665H   CODE     ---       ?C?FPCMP3
      00FF35E4H   CODE     ---       ?C?FPDIV
      00FF3435H   CODE     ---       ?C?FPGETOPN2
      00FF3544H   CODE     ---       ?C?FPMUL
      00FF3472H   CODE     ---       ?C?FPNANRESULT
      00FF36ABH   CODE     ---       ?C?FPNEG
      00FF347AH   CODE     ---       ?C?FPOVERFLOW
      00FF344EH   CODE     ---       ?C?FPRESULT
      00FF3464H   CODE     ---       ?C?FPRESULT2
      00FF3489H   CODE     ---       ?C?FPSUB
      00FF3477H   CODE     ---       ?C?FPUNDERFLOW
      00FFB21EH   CODE     ---       ?C?INITHDATA
      00FFBDE3H   HCONST   WORD      ?C?INITHDATA_END
      00FF3765H   CODE     ---       ?C?LIMUL
      00FF2A94H   CODE     ---       ?C?PRNFMT
      00FF3733H   CODE     ---       ?C?SIDIV
      00FF37C1H   CODE     NEAR LAB  ?C?SLDIV
      00FF0000H   CODE     ---       ?C?STARTUP
      00FF3770H   CODE     NEAR LAB  ?C?ULDIV
      00FF376EH   CODE     NEAR LAB  ?C?ULIDIV
      00000001H   NUMBER   ---       ?C?XDATASEG
      00FF0000H   CODE     ---       ?C_STARTUP
      00010C5CH   XDATA    BYTE      ?dl1b_iic_transfer_8bit_array?BYTE
      00010C3CH   XDATA    BYTE      ?fifo_init?BYTE
      00010B20H   XDATA    BYTE      ?fifo_read_buffer?BYTE
      00010D44H   XDATA    BYTE      ?fifo_read_element?BYTE
      00010B38H   XDATA    BYTE      ?fifo_read_tail_buffer?BYTE
      00010BE6H   XDATA    BYTE      ?fifo_write_buffer?BYTE
      00010779H   XDATA    BYTE      ?func_double_to_str?BYTE
      000107B5H   XDATA    BYTE      ?get_two_points_azimuth?BYTE
      000106D6H   XDATA    BYTE      ?get_two_points_distance?BYTE
      00010DDBH   XDATA    BYTE      ?iap_read_bytes?BYTE
      00010DE5H   XDATA    BYTE      ?iap_write_bytes?BYTE
      00010F7AH   XDATA    BYTE      ?iic_init?BYTE
      00010C6CH   XDATA    BYTE      ?ips114_showfloat?BYTE
      00010B80H   XDATA    BYTE      ?ips200_draw_line?BYTE
      00010AEFH   XDATA    BYTE      ?ips200_show_chinese?BYTE
      000108BDH   XDATA    BYTE      ?ips200_show_float?BYTE
      00010A07H   XDATA    BYTE      ?ips200_show_wave?BYTE
      00010B68H   XDATA    BYTE      ?Kalman_Init?BYTE
      00010C4CH   XDATA    BYTE      ?lcd_showfloat?BYTE
      00010BBEH   XDATA    BYTE      ?number_conversion_ascii?BYTE
      000107EDH   XDATA    BYTE      ?oled_printf_float?BYTE
      00010821H   XDATA    BYTE      ?oled_printf_float_spi?BYTE
      00010D8CH   XDATA    BYTE      ?Pid_Inc_Ff?BYTE
      000109E3H   XDATA    BYTE      ?Pid_Init?BYTE
      00010D98H   XDATA    BYTE      ?Pid_Pos_GyroZ?BYTE
*DEL*:00000028H   XDATA    ---       ?printf?BYTE
      00010BAAH   XDATA    BYTE      ?pwm_freq?BYTE
      00010B96H   XDATA    BYTE      ?pwm_init?BYTE
      00010A27H   XDATA    BYTE      ?seekfree_assistant_camera_boundary_config?BYTE
      00010CACH   XDATA    BYTE      ?seekfree_assistant_camera_data_send?BYTE
      00010E0DH   XDATA    BYTE      ?seekfree_assistant_camera_information_config?BYTE
      00010D1DH   XDATA    BYTE      ?spi_init?BYTE
      00010CC9H   XDATA    BYTE      ?uart_init?BYTE
      00010DEFH   XDATA    BYTE      ?uart_putbuff?BYTE
      0001069BH   XDATA    BYTE      ?zf_sprintf?BYTE
      00FF2A49H   CODE     ---       _chkdouble_?_
*SFR* 000000D0H.6 DATA     BIT       AC
*SFR* 000000E0H   DATA     BYTE      ACC
*SFR* 000000BCH   DATA     BYTE      ADC_CONTR
      00010313H   XDATA    ---       adc_fliter_data
      00FFA8B7H   CODE     ---       adc_init
L251 LINKER/LOCATER V4.66.93.0                                                        06/23/2025  18:43:06  PAGE 22


*DEL*:00000000H   CODE     ---       adc_init_5
*DEL*:00000000H   CODE     ---       ADC_Median_Average
      00FFAC8DH   CODE     ---       adc_once
*SFR* 000000BDH   DATA     BYTE      ADC_RES
*SFR* 000000BEH   DATA     BYTE      ADC_RESL
*DEL*:00000000H   CODE     ---       ADC_Voltage
*SFR* 000000DEH   DATA     BYTE      ADCCFG
      00FF930CH   CODE     ---       All_Init
      00FF381EH   CODE     ---       ascii_font_8x16
      00FF29BAH   CODE     ---       asin?_
      00FF289FH   CODE     ---       atan?_
*SFR* 000000EFH   DATA     BYTE      AUXINTIF
*SFR* 0000008EH   DATA     BYTE      AUXR
*SFR* 00000097H   DATA     BYTE      AUXR2
      00FF8849H   CODE     ---       average_filter
*SFR* 000000F0H   DATA     BYTE      B
*DEL*:00000000H   CODE     ---       ble6a20_callback
*DEL*:00000000H   CODE     ---       ble6a20_init
*DEL*:00000000H   CODE     ---       ble6a20_read_buff
*DEL*:00000000H   CODE     ---       ble6a20_send_buff
*DEL*:00000000H   CODE     ---       ble6a20_send_byte
      00FFADEEH   CODE     ---       board_init
      00011008H   XDATA    ---       busy
*SFR* 000000C8H.1 DATA     BIT       C_T2
      00FF4626H   CODE     ---       calculate_position_improved
*SFR* 000000F1H   DATA     BYTE      CANICR
*SFR* 000000FAH   DATA     BYTE      CCAP0H
*SFR* 000000EAH   DATA     BYTE      CCAP0L
*SFR* 000000FBH   DATA     BYTE      CCAP1H
*SFR* 000000EBH   DATA     BYTE      CCAP1L
*SFR* 000000FCH   DATA     BYTE      CCAP2H
*SFR* 000000ECH   DATA     BYTE      CCAP2L
*SFR* 000000FDH   DATA     BYTE      CCAP3H
*SFR* 000000EDH   DATA     BYTE      CCAP3L
*SFR* 000000FEH   DATA     BYTE      CCAP4H
*SFR* 000000EEH   DATA     BYTE      CCAP4L
*SFR* 000000DAH   DATA     BYTE      CCAPM0
*SFR* 000000DBH   DATA     BYTE      CCAPM1
*SFR* 000000DCH   DATA     BYTE      CCAPM2
*SFR* 000000DDH   DATA     BYTE      CCAPM3
*SFR* 000000DEH   DATA     BYTE      CCAPM4
*DEL*:00000000H   CODE     ---       ccd_collect
      00000022H   EDATA    ---       ccd_data_ch1
      00000122H   EDATA    ---       ccd_data_ch2
*DEL*:00000000H   CODE     ---       ccd_init
*DEL*:00000000H   CODE     ---       ccd_send_data
*SFR* 000000D8H.0 DATA     BIT       CCF0
*SFR* 000000D8H.1 DATA     BIT       CCF1
*SFR* 000000D8H.2 DATA     BIT       CCF2
*SFR* 000000D8H.3 DATA     BIT       CCF3
*SFR* 000000D8H.4 DATA     BIT       CCF4
*SFR* 000000D8H   DATA     BYTE      CCON
*SFR* 00000090H.3 DATA     BIT       CEX0
*SFR* 00000090H.4 DATA     BIT       CEX1
*SFR* 00000090H.5 DATA     BIT       CEX2
*SFR* 00000090H.6 DATA     BIT       CEX3
*SFR* 00000090H.7 DATA     BIT       CEX4
*SFR* 000000D8H.7 DATA     BIT       CF
*SFR* 000000F9H   DATA     BYTE      CH
      00FF99B1H   CODE     ---       check_electromagnetic_protection
*SFR* 000000EAH   DATA     BYTE      CKCON
*SFR* 000000E9H   DATA     BYTE      CL
*SFR* 000000D9H   DATA     BYTE      CMOD
*SFR* 000000E6H   DATA     BYTE      CMPCR1
*SFR* 000000E7H   DATA     BYTE      CMPCR2
L251 LINKER/LOCATER V4.66.93.0                                                        06/23/2025  18:43:06  PAGE 23


      00FF2707H   CODE     ---       cos?_
*SFR* 000000C8H.0 DATA     BIT       CP_RL2
*SFR* 000000D8H.6 DATA     BIT       CR
      00FFB12EH   CODE     ---       ctimer_count_clean
      00FFB2AFH   CODE     ---       ctimer_count_init
      00FFA7D9H   CODE     ---       ctimer_count_read
*SFR* 000000D0H.7 DATA     BIT       CY
      00FFB367H   CODE     ---       delay_init
      00FFB627H   CODE     ---       delay_ms
      00FFB514H   CODE     ---       delay_us
*DEL*:00000000H   CODE     ---       DisableGlobalIRQ
      00FF8D41H   CODE     ---       display_electromagnetic_data
      00FF00A6H   CODE     ---       dl1b_default_configuration
      00011065H   XDATA    WORD      dl1b_distance_mm
      00011067H   XDATA    BYTE      dl1b_finsh_flag
*DEL*:00000000H   CODE     ---       dl1b_get_distance
*DEL*:00000000H   CODE     ---       dl1b_iic_transfer_8bit_array
*DEL*:00000000H   CODE     ---       dl1b_init
      00011068H   XDATA    BYTE      dl1b_init_flag
*SFR* 00000083H   DATA     BYTE      DPH
*SFR* 00000082H   DATA     BYTE      DPL
*SFR* 00000084H   DATA     BYTE      DPXL
*SFR* 000000A8H.7 DATA     BIT       EA
*SFR* 000000BAH.7 DATA     BIT       EAXFR
*SFR* 000000A8H.6 DATA     BIT       EC
*SFR* 00000090H.2 DATA     BIT       ECI
*DEL*:00000000H   CODE     ---       eeprom_trig
      00FFA6F6H   CODE     ---       electromagnetic_init
      00FF0006H   CODE     ---       EnableGlobalIRQ
      00FFAB0EH   CODE     ---       encoder_debounce
      00FFB7F2H   CODE     ---       Encoder_Init
      00010B0AH   XDATA    ---       EncoderL
      00010B0EH   XDATA    ---       EncoderR
*SFR* 000000A8H.4 DATA     BIT       ES
*SFR* 000000A8H.1 DATA     BIT       ET0
*SFR* 000000A8H.3 DATA     BIT       ET1
*SFR* 000000A8H.5 DATA     BIT       ET2
*SFR* 000000A8H.0 DATA     BIT       EX0
*SFR* 000000A8H.2 DATA     BIT       EX1
*SFR* 000000C8H.3 DATA     BIT       EXEN2
*SFR* 000000C8H.6 DATA     BIT       EXF2
      00FF2FA9H   CODE     ---       exp?_
*SFR* 000000D0H.5 DATA     BIT       F0
*DEL*:00000000H   CODE     ---       F_abs
*SFR* 00000098H.7 DATA     BIT       FE
      00FF9DF5H   CODE     ---       fifo_clear
*DEL*:00000000H   CODE     ---       fifo_init
      00FF6939H   CODE     ---       fifo_read_buffer
*DEL*:00000000H   CODE     ---       fifo_read_element
*DEL*:00000000H   CODE     ---       fifo_read_tail_buffer
      00FFB74DH   CODE     ---       fifo_used
      00FF63B7H   CODE     ---       fifo_write_buffer
*DEL*:00000000H   CODE     ---       fifo_write_element
      0001030DH   XDATA    FLOAT     filter_param
      0001099AH   XDATA    FLOAT     Filtered_GyroZ
*DEL*:00000000H   CODE     ---       func_double_to_str
*DEL*:00000000H   CODE     ---       func_float_to_str
*DEL*:00000000H   CODE     ---       func_get_greatest_common_divisor
*DEL*:00000000H   CODE     ---       func_hex_to_str
*DEL*:00000000H   CODE     ---       func_int_to_str
*DEL*:00000000H   CODE     ---       func_soft_delay
*DEL*:00000000H   CODE     ---       func_str_to_double
*DEL*:00000000H   CODE     ---       func_str_to_float
*DEL*:00000000H   CODE     ---       func_str_to_hex
*DEL*:00000000H   CODE     ---       func_str_to_int
L251 LINKER/LOCATER V4.66.93.0                                                        06/23/2025  18:43:06  PAGE 24


*DEL*:00000000H   CODE     ---       func_str_to_uint
*DEL*:00000000H   CODE     ---       func_uint_to_str
      000109B7H   XDATA    INT       g_DutyLeft
      000109B5H   XDATA    INT       g_DutyRight
      00010B1CH   XDATA    INT       g_EncoderAverage
      00010B12H   XDATA    INT       g_EncoderLeft
      00010B08H   XDATA    INT       g_EncoderRight
      00010B16H   XDATA    INT       g_encoleft_init
      00010B14H   XDATA    INT       g_encoright_init
      00010B1EH   XDATA    INT       g_intencoderALL
      00010B18H   XDATA    INT       g_intencoderL
      00010B1AH   XDATA    INT       g_intencoderR
      000109ABH   XDATA    INT       g_SpeedPoint
      00FFB193H   CODE     ---       get_adc
      00FFB716H   CODE     ---       get_left_encoder
      00FFB6DDH   CODE     ---       get_right_encoder
*DEL*:00000000H   CODE     ---       get_two_points_azimuth
*DEL*:00000000H   CODE     ---       get_two_points_distance
      00000020H.2 BIT      BIT       Go_Flag
      00FF5067H   CODE     ---       gpio_mode
*DEL*:00000000H   CODE     ---       gpio_pull_set
*DEL*:00000000H   CODE     ---       gps_data_parse
      000101CCH   XDATA    INT       gps_gga_state
*DEL*:00000000H   CODE     ---       gps_init
      000101CEH   XDATA    INT       gps_rmc_state
      00010098H   XDATA    ---       gps_tau1201
      00010017H   XDATA    BYTE      gps_tau1201_flag
      00FF9820H   CODE     ---       gps_uart_callback
      00000020H.1 BIT      BIT       Gyro_Int
      000109B0H   XDATA    FLOAT     Gyro_Z
*DEL*:00000000H   CODE     ---       I_abs
*SFR* 000000F6H   DATA     BYTE      IAP_ADDRE
*SFR* 000000C3H   DATA     BYTE      IAP_ADDRH
*SFR* 000000C4H   DATA     BYTE      IAP_ADDRL
*SFR* 000000C5H   DATA     BYTE      IAP_CMD
*SFR* 000000C7H   DATA     BYTE      IAP_CONTR
*SFR* 000000C2H   DATA     BYTE      IAP_DATA
*DEL*:00000000H   CODE     ---       iap_erase_page
*DEL*:00000000H   CODE     ---       iap_get_cmd_state
*DEL*:00000000H   CODE     ---       iap_idle
*DEL*:00000000H   CODE     ---       iap_init
*DEL*:00000000H   CODE     ---       iap_read_bytes
*DEL*:00000000H   CODE     ---       iap_set_tps
*SFR* 000000F5H   DATA     BYTE      IAP_TPS
*SFR* 000000C6H   DATA     BYTE      IAP_TRIG
*DEL*:00000000H   CODE     ---       iap_write_bytes
*DEL*:00000000H   CODE     ---       icm20602_acc_transition
      00010D5CH   XDATA    INT       icm20602_acc_x
      00010D5EH   XDATA    INT       icm20602_acc_y
      00010D60H   XDATA    INT       icm20602_acc_z
*DEL*:00000000H   CODE     ---       icm20602_get_acc
*DEL*:00000000H   CODE     ---       icm20602_get_gyro
*DEL*:00000000H   CODE     ---       icm20602_gyro_transition
      00010D62H   XDATA    INT       icm20602_gyro_x
      00010D64H   XDATA    INT       icm20602_gyro_y
      00010D66H   XDATA    INT       icm20602_gyro_z
*DEL*:00000000H   CODE     ---       icm20602_init
*SFR* 000000A8H   DATA     BYTE      IE
*SFR* 000000A8H   DATA     BYTE      IE0
*SFR* 00000088H.1 DATA     BIT       IE0_
*SFR* 000000B1H   DATA     BYTE      IE1
*SFR* 00000088H.3 DATA     BIT       IE1_
*SFR* 000000AFH   DATA     BYTE      IE2
*DEL*:00000000H   CODE     ---       iic_change_pin
*DEL*:00000000H   CODE     ---       iic_delay_us
L251 LINKER/LOCATER V4.66.93.0                                                        06/23/2025  18:43:06  PAGE 25


*DEL*:00000000H   CODE     ---       iic_init
*DEL*:00000000H   CODE     ---       iic_read_reg
*DEL*:00000000H   CODE     ---       iic_read_reg_bytes
*DEL*:00000000H   CODE     ---       iic_write_reg
      00FFAD41H   CODE     ---       imu660ra_acc_transition
      00010D68H   XDATA    INT       imu660ra_acc_x
      00010D6AH   XDATA    INT       imu660ra_acc_y
      00010D6CH   XDATA    INT       imu660ra_acc_z
      00FF012DH   CODE     ---       imu660ra_config_file
*DEL*:00000000H   CODE     ---       imu660ra_get_acc
      00FFB417H   CODE     ---       imu660ra_get_gyro
*DEL*:00000000H   CODE     ---       imu660ra_gyro_transition
      00010D6EH   XDATA    INT       imu660ra_gyro_x
      00010D70H   XDATA    INT       imu660ra_gyro_y
      00010D72H   XDATA    INT       imu660ra_gyro_z
*DEL*:00000000H   CODE     ---       imu660ra_init
      00010889H   XDATA    ---       imu693_kf
      00FFC020H   HCONST   FLOAT     imu693kf_Q
      00FFC024H   HCONST   FLOAT     imu693kf_R
*DEL*:00000000H   CODE     ---       imu963ra_acc_transition
      00010BF8H   XDATA    INT       imu963ra_acc_x
      00010BFAH   XDATA    INT       imu963ra_acc_y
      00010BFCH   XDATA    INT       imu963ra_acc_z
*DEL*:00000000H   CODE     ---       imu963ra_get_acc
*DEL*:00000000H   CODE     ---       imu963ra_get_gyro
*DEL*:00000000H   CODE     ---       imu963ra_get_mag
*DEL*:00000000H   CODE     ---       imu963ra_gyro_transition
      00010C04H   XDATA    INT       imu963ra_gyro_x
      00010C06H   XDATA    INT       imu963ra_gyro_y
      00010C08H   XDATA    INT       imu963ra_gyro_z
*DEL*:00000000H   CODE     ---       imu963ra_init
*DEL*:00000000H   CODE     ---       imu963ra_mag_transition
      00010BFEH   XDATA    INT       imu963ra_mag_x
      00010C00H   XDATA    INT       imu963ra_mag_y
      00010C02H   XDATA    INT       imu963ra_mag_z
*SFR* 000000B0H.2 DATA     BIT       INT0
      00FF0046H   CODE     ---       INT0_Isr
*SFR* 000000B0H.3 DATA     BIT       INT1
      00FF000AH   CODE     ---       INT1_Isr
      00FFB8E2H   CODE     ---       INT2_Isr
      00FFB8EAH   CODE     ---       INT3_Isr
      00FFB8F2H   CODE     ---       INT4_Isr
*SFR* 0000008FH   DATA     BYTE      INTCLKO
*SFR* 000000B8H   DATA     BYTE      IP
*SFR* 000000B5H   DATA     BYTE      IP2
*SFR* 000000B6H   DATA     BYTE      IP2H
*SFR* 000000DFH   DATA     BYTE      IP3
*SFR* 000000EEH   DATA     BYTE      IP3H
*SFR* 000000B7H   DATA     BYTE      IPH
*SFR* 000000B7H   DATA     BYTE      IPH0
*SFR* 000000B8H   DATA     BYTE      IPL0
*DEL*:00000000H   CODE     ---       ips114_clear
*DEL*:00000000H   CODE     ---       ips114_drawpoint
*DEL*:00000000H   CODE     ---       ips114_init
*DEL*:00000000H   CODE     ---       ips114_set_region
*DEL*:00000000H   CODE     ---       ips114_showchar
*DEL*:00000000H   CODE     ---       ips114_showfloat
*DEL*:00000000H   CODE     ---       ips114_showint16
*DEL*:00000000H   CODE     ---       ips114_showint32
*DEL*:00000000H   CODE     ---       ips114_showint8
*DEL*:00000000H   CODE     ---       ips114_showstr
*DEL*:00000000H   CODE     ---       ips114_showuint16
*DEL*:00000000H   CODE     ---       ips114_showuint8
*DEL*:00000000H   CODE     ---       ips114_writeData
*DEL*:00000000H   CODE     ---       ips114_writedata_16bit
L251 LINKER/LOCATER V4.66.93.0                                                        06/23/2025  18:43:06  PAGE 26


*DEL*:00000000H   CODE     ---       ips114_writeIndex
*DEL*:00000000H   CODE     ---       ips200_clear
*DEL*:00000000H   CODE     ---       ips200_draw_line
*DEL*:00000000H   CODE     ---       ips200_draw_point
*DEL*:00000000H   CODE     ---       ips200_full
*DEL*:00000000H   CODE     ---       ips200_init_spi
*DEL*:00000000H   CODE     ---       ips200_set_color
*DEL*:00000000H   CODE     ---       ips200_set_dir
*DEL*:00000000H   CODE     ---       ips200_set_font
*DEL*:00000000H   CODE     ---       ips200_show_char
*DEL*:00000000H   CODE     ---       ips200_show_chinese
*DEL*:00000000H   CODE     ---       ips200_show_float
*DEL*:00000000H   CODE     ---       ips200_show_int
*DEL*:00000000H   CODE     ---       ips200_show_string
*DEL*:00000000H   CODE     ---       ips200_show_uint
*DEL*:00000000H   CODE     ---       ips200_show_wave
*DEL*:00000000H   CODE     ---       ips200_write_16bit_data_spi
*DEL*:00000000H   CODE     ---       ips200_write_8bit_data_spi
*SFR* 0000009DH   DATA     BYTE      IRCBAND
*SFR* 0000009FH   DATA     BYTE      IRTRIM
*SFR* 00000088H.0 DATA     BIT       IT0
*SFR* 00000088H.2 DATA     BIT       IT1
      00FFAA49H   CODE     ---       Kalman_Init
      00FFA441H   CODE     ---       Kalman_Predict
      00FF9F3AH   CODE     ---       Kalman_Update
      00010C9EH   XDATA    ---       Key
      00FF9C93H   CODE     ---       Key_Scan
      00FFB6A1H   CODE     ---       Key_Task
*DEL*:00000000H   CODE     ---       lcd_clear
*DEL*:00000000H   CODE     ---       lcd_drawpoint
*DEL*:00000000H   CODE     ---       lcd_init
*DEL*:00000000H   CODE     ---       lcd_set_region
*DEL*:00000000H   CODE     ---       lcd_showchar
*DEL*:00000000H   CODE     ---       lcd_showfloat
*DEL*:00000000H   CODE     ---       lcd_showint16
*DEL*:00000000H   CODE     ---       lcd_showint32
*DEL*:00000000H   CODE     ---       lcd_showint8
*DEL*:00000000H   CODE     ---       lcd_showstr
*DEL*:00000000H   CODE     ---       lcd_showuint16
*DEL*:00000000H   CODE     ---       lcd_showuint8
*DEL*:00000000H   CODE     ---       lcd_writeData
*DEL*:00000000H   CODE     ---       lcd_writedata_16bit
*DEL*:00000000H   CODE     ---       lcd_writeIndex
      0001050DH   XDATA    ---       LeftPID
      000108B1H   XDATA    ---       leftSpeedFilt
*SFR* 000000F9H   DATA     BYTE      LINICR
      00FF3092H   CODE     NEAR LAB  log?_
      00FFABD1H   CODE     ---       LowPass_Filter
      00FFB30BH   CODE     ---       LowPass_init
      00FFB86EH   CODE     ---       MAIN
      00010381H   XDATA    ---       max_value
      00FFB893H   CODE     ---       memcpy?_
      00FF0026H   CODE     ---       memset?_
      00FF7EDCH   CODE     ---       mid_filter
      00010377H   XDATA    ---       min_value
      00FFA268H   CODE     ---       Motor_Ctrl
      00FFB5A2H   CODE     ---       Motor_Init
      00010D80H   XDATA    INT       mpu6050_acc_x
      00010D82H   XDATA    INT       mpu6050_acc_y
      00010D84H   XDATA    INT       mpu6050_acc_z
*DEL*:00000000H   CODE     ---       mpu6050_get_accdata
*DEL*:00000000H   CODE     ---       mpu6050_get_gyro
      00010D86H   XDATA    INT       mpu6050_gyro_x
      00010D88H   XDATA    INT       mpu6050_gyro_y
      00010D8AH   XDATA    INT       mpu6050_gyro_z
L251 LINKER/LOCATER V4.66.93.0                                                        06/23/2025  18:43:06  PAGE 27


*DEL*:00000000H   CODE     ---       mpu6050_init
*DEL*:00000000H   CODE     ---       mpu6050_simiic_read_reg
*DEL*:00000000H   CODE     ---       mpu6050_simiic_read_regs
      00FF8575H   CODE     ---       normalize_sensors
      00010360H   XDATA    ---       normalized_data
      00FF9689H   CODE     ---       number_conversion_ascii
*DEL*:00000000H   CODE     ---       NVIC_SetPriority
      00FF43FEH   CODE     ---       oled_6x8
*DEL*:00000000H   CODE     ---       oled_clrpixel
*DEL*:00000000H   CODE     ---       oled_clrpixel_spi
*DEL*:00000000H   CODE     ---       oled_dis_bmp
*DEL*:00000000H   CODE     ---       oled_dis_bmp_spi
*DEL*:00000000H   CODE     ---       oled_fill
      00FFB252H   CODE     ---       oled_fill_spi
*DEL*:00000000H   CODE     ---       oled_hexascii
      00FFAFD1H   CODE     ---       oled_hexascii_spi
*DEL*:00000000H   CODE     ---       oled_init
      00FFA980H   CODE     ---       oled_init_spi
*DEL*:00000000H   CODE     ---       oled_int16
*DEL*:00000000H   CODE     ---       oled_int16_spi
*DEL*:00000000H   CODE     ---       oled_p6x8str
      00FFA613H   CODE     ---       oled_p6x8str_spi
*DEL*:00000000H   CODE     ---       oled_print_chinese
*DEL*:00000000H   CODE     ---       oled_print_chinese_spi
*DEL*:00000000H   CODE     ---       oled_printf_float
      00FF9139H   CODE     ---       oled_printf_float_spi
*DEL*:00000000H   CODE     ---       oled_printf_int32
*DEL*:00000000H   CODE     ---       oled_printf_int32_spi
*DEL*:00000000H   CODE     ---       oled_putpixel
*DEL*:00000000H   CODE     ---       oled_putpixel_spi
*DEL*:00000000H   CODE     ---       oled_set_pos
      00FFB664H   CODE     ---       oled_set_pos_spi
*DEL*:00000000H   CODE     ---       oled_uint16
      00FFB784H   CODE     ---       oled_uint16_spi
*DEL*:00000000H   CODE     ---       oled_wrcmd
      00FFB8B8H   CODE     ---       oled_wrcmd_spi
*DEL*:00000000H   CODE     ---       oled_wrdat
      00FFB8CDH   CODE     ---       oled_wrdat_spi
*SFR* 000000D0H.2 DATA     BIT       OV
*SFR* 000000D0H.0 DATA     BIT       P
*SFR* 00000080H   DATA     BYTE      P0
*SFR* 00000080H.7 DATA     BIT       P07
*SFR* 00000094H   DATA     BYTE      P0M0
*SFR* 00000093H   DATA     BYTE      P0M1
*SFR* 00000090H   DATA     BYTE      P1
*SFR* 00000092H   DATA     BYTE      P1M0
*SFR* 00000091H   DATA     BYTE      P1M1
*SFR* 000000A0H   DATA     BYTE      P2
*SFR* 000000A0H.0 DATA     BIT       P20
*SFR* 000000A0H.1 DATA     BIT       P21
*SFR* 000000A0H.2 DATA     BIT       P22
*SFR* 000000A0H.4 DATA     BIT       P24
*SFR* 000000A0H.5 DATA     BIT       P25
*SFR* 000000A0H.6 DATA     BIT       P26
*SFR* 000000A0H.7 DATA     BIT       P27
*SFR* 00000096H   DATA     BYTE      P2M0
*SFR* 00000095H   DATA     BYTE      P2M1
*SFR* 000000B0H   DATA     BYTE      P3
*SFR* 000000B0H.5 DATA     BIT       P35
*SFR* 000000B0H.6 DATA     BIT       P36
*SFR* 000000B0H.7 DATA     BIT       P37
*SFR* 000000B2H   DATA     BYTE      P3M0
*SFR* 000000B1H   DATA     BYTE      P3M1
*SFR* 000000C0H   DATA     BYTE      P4
*SFR* 000000C0H.0 DATA     BIT       P40
L251 LINKER/LOCATER V4.66.93.0                                                        06/23/2025  18:43:06  PAGE 28


*SFR* 000000C0H.1 DATA     BIT       P41
*SFR* 000000C0H.2 DATA     BIT       P42
*SFR* 000000C0H.3 DATA     BIT       P43
*SFR* 000000C0H.4 DATA     BIT       P44
*SFR* 000000C0H.6 DATA     BIT       P46
*SFR* 000000C0H.7 DATA     BIT       P47
*SFR* 000000B4H   DATA     BYTE      P4M0
*SFR* 000000B3H   DATA     BYTE      P4M1
*SFR* 000000C8H   DATA     BYTE      P5
*SFR* 000000C8H.2 DATA     BIT       P52
*SFR* 000000CAH   DATA     BYTE      P5M0
*SFR* 000000C9H   DATA     BYTE      P5M1
*SFR* 000000E8H   DATA     BYTE      P6
*SFR* 000000E8H.3 DATA     BIT       P63
*SFR* 000000E8H.4 DATA     BIT       P64
*SFR* 000000E8H.5 DATA     BIT       P65
*SFR* 000000E8H.6 DATA     BIT       P66
*SFR* 000000E8H.7 DATA     BIT       P67
*SFR* 000000CCH   DATA     BYTE      P6M0
*SFR* 000000CBH   DATA     BYTE      P6M1
*SFR* 000000F8H   DATA     BYTE      P7
*SFR* 000000F8H.0 DATA     BIT       P70
*SFR* 000000F8H.7 DATA     BIT       P77
*SFR* 000000E2H   DATA     BYTE      P7M0
*SFR* 000000E1H   DATA     BYTE      P7M1
*SFR* 000000A2H   DATA     BYTE      P_SW1
*SFR* 000000BAH   DATA     BYTE      P_SW2
*SFR* 000000BBH   DATA     BYTE      P_SW3
*SFR* 00000087H   DATA     BYTE      PCON
      00FFB0C7H   CODE     ---       Pid_Clean
      00FF7750H   CODE     ---       Pid_Inc_Ff
      00FF8F63H   CODE     ---       Pid_Init
      00FF94D0H   CODE     ---       Pid_Pos_GyroZ
      00FFA05EH   CODE     ---       pit_timer_ms
      0001041BH   XDATA    INT       position
      00010998H   XDATA    INT       positionReal
*DEL*:00000000H   CODE     ---       pow?_
*SFR* 000000B8H.6 DATA     BIT       PPC
      00FF2587H   CODE     NEAR LAB  printf
      00FFA16FH   CODE     ---       printf_reverse_order
      0001038BH   XDATA    BYTE      protection_flag
*SFR* 000000B8H.4 DATA     BIT       PS
*SFR* 000000D0H   DATA     BYTE      PSW
*SFR* 000000D1H   DATA     BYTE      PSW1
*SFR* 000000B8H.1 DATA     BIT       PT0
*SFR* 000000B8H.3 DATA     BIT       PT1
*SFR* 000000B8H.5 DATA     BIT       PT2
*DEL*:00000000H   CODE     ---       putchar
      00FFBEA7H   HCONST   ---       PWM_ARR_ADDR
      00FFBEAFH   HCONST   ---       PWM_CCER_ADDR
      00FFBEBFH   HCONST   ---       PWM_CCMR_ADDR
      00FFBE87H   HCONST   ---       PWM_CCR_ADDR
      00FF9B31H   CODE     ---       pwm_duty
*DEL*:00000000H   CODE     ---       pwm_freq
      00FF6EA4H   CODE     ---       pwm_init
      00FF7B20H   CODE     ---       pwm_set_gpio
*SFR* 000000B8H.0 DATA     BIT       PX0
*SFR* 000000B8H.2 DATA     BIT       PX1
      000109A2H   XDATA    WORD      r_distance
      000109ADH   XDATA    BYTE      r_position
*SFR* 00000098H.2 DATA     BIT       RB8
*SFR* 000000CBH   DATA     BYTE      RCAP2H
*SFR* 000000CAH   DATA     BYTE      RCAP2L
*SFR* 000000C8H.5 DATA     BIT       RCLK
*SFR* 000000B0H.7 DATA     BIT       RD
L251 LINKER/LOCATER V4.66.93.0                                                        06/23/2025  18:43:06  PAGE 29


*DEL*:00000000H   CODE     ---       recv_ack
*DEL*:00000000H   CODE     ---       recv_data
*SFR* 00000098H.4 DATA     BIT       REN
      00010349H   XDATA    ---       result
*SFR* 00000098H.0 DATA     BIT       RI
      000104C9H   XDATA    ---       RightPID
      000108A5H   XDATA    ---       rightSpeedFilt
*SFR* 000000D0H.3 DATA     BIT       RS0
*SFR* 000000D0H.4 DATA     BIT       RS1
*SFR* 000000FFH   DATA     BYTE      RSTCFG
*SFR* 000000B0H.0 DATA     BIT       RXD
*SFR* 0000009BH   DATA     BYTE      S2BUF
*SFR* 0000009AH   DATA     BYTE      S2CON
*SFR* 000000ADH   DATA     BYTE      S3BUF
*SFR* 000000ACH   DATA     BYTE      S3CON
*SFR* 000000FEH   DATA     BYTE      S4BUF
*SFR* 000000FDH   DATA     BYTE      S4CON
      000109A4H   XDATA    WORD      s_distance
*SFR* 000000A9H   DATA     BYTE      SADDR
*SFR* 000000B9H   DATA     BYTE      SADEN
*SFR* 00000099H   DATA     BYTE      SBUF
*SFR* 00000098H   DATA     BYTE      SCON
*DEL*:00000000H   CODE     ---       seekfree_assistant_camera_boundary_config
*DEL*:00000000H   CODE     ---       seekfree_assistant_camera_data_send
*DEL*:00000000H   CODE     ---       seekfree_assistant_camera_dot_send
*DEL*:00000000H   CODE     ---       seekfree_assistant_camera_information_config
*DEL*:00000000H   CODE     ---       seekfree_assistant_camera_send
*DEL*:00000000H   CODE     ---       seekfree_assistant_data_analysis
*DEL*:00000000H   CODE     ---       seekfree_assistant_init
      000101D8H   XDATA    ---       seekfree_assistant_oscilloscope_data
*DEL*:00000000H   CODE     ---       seekfree_assistant_oscilloscope_send
      0001021BH   XDATA    ---       seekfree_assistant_parameter
      00010213H   XDATA    ---       seekfree_assistant_parameter_update_flag
      00011085H   XDATA    ---       seekfree_assistant_receive
      00011087H   XDATA    ---       seekfree_assistant_transfer
*DEL*:00000000H   CODE     ---       seekfree_assistant_transfer_callback
*DEL*:00000000H   CODE     ---       send_ack
*DEL*:00000000H   CODE     ---       send_data
*DEL*:00000000H   CODE     ---       send_nak
      00FF8B0BH   CODE     ---       set_clk
*DEL*:00000000H   CODE     ---       showimage
      000103BFH   XDATA    FLOAT     signal_strength_value
      00FF2728H   CODE     ---       sin?_
*SFR* 00000098H.7 DATA     BIT       SM0
*SFR* 00000098H.6 DATA     BIT       SM1
*SFR* 00000098H.5 DATA     BIT       SM2
*SFR* 00000081H   DATA     BYTE      SP
*SFR* 000000CEH   DATA     BYTE      SPCTL
*SFR* 000000CFH   DATA     BYTE      SPDAT
      00010348H   XDATA    BYTE      speed_count
      00010485H   XDATA    ---       SpeedPID
*SFR* 000000BEH   DATA     BYTE      SPH
*DEL*:00000000H   CODE     ---       spi_change_mode
*DEL*:00000000H   CODE     ---       spi_change_pin
      00FFA52BH   CODE     ---       spi_init
      00FF0066H   CODE     ---       spi_mosi
*SFR* 000000CDH   DATA     BYTE      SPSTAT
      00FF25B9H   CODE     ---       sqrt?_
*DEL*:00000000H   CODE     ---       start
*DEL*:00000000H   CODE     ---       stop
*DEL*:00000000H   CODE     ---       strchr?_
*DEL*:00000000H   CODE     ---       strlen?_
      00FFB7BBH   CODE     ---       strncmp?_
*DEL*:00000000H   CODE     ---       strncpy?_
      0001038DH   XDATA    ---       sum
L251 LINKER/LOCATER V4.66.93.0                                                        06/23/2025  18:43:06  PAGE 30


      00010C9CH   XDATA    BYTE      sw1_status
      00010C9DH   XDATA    BYTE      sw2_status
      00011035H   XDATA    LONG      sys_clk
      000109AEH   XDATA    WORD      SysTick
*SFR* 000000B0H.4 DATA     BIT       T0
*SFR* 000000B0H.5 DATA     BIT       T1
*SFR* 00000090H.0 DATA     BIT       T2
*SFR* 000000C8H   DATA     BYTE      T2CON
*SFR* 00000090H.1 DATA     BIT       T2EX
*SFR* 000000D6H   DATA     BYTE      T2H
*SFR* 000000D7H   DATA     BYTE      T2L
*SFR* 000000C9H   DATA     BYTE      T2MOD
*SFR* 000000D4H   DATA     BYTE      T3H
*SFR* 000000D5H   DATA     BYTE      T3L
*SFR* 000000D2H   DATA     BYTE      T4H
*SFR* 000000D3H   DATA     BYTE      T4L
*SFR* 000000DDH   DATA     BYTE      T4T3M
      00FF275DH   CODE     ---       TAN?_
*SFR* 00000098H.3 DATA     BIT       TB8
*SFR* 000000C8H.4 DATA     BIT       TCLK
*SFR* 00000088H   DATA     BYTE      TCON
      00010312H   XDATA    BYTE      ten_change_flag
*DEL*:00000000H   CODE     ---       Test_MPU6050
*DEL*:00000000H   CODE     ---       Test_OLED
*DEL*:00000000H   CODE     ---       Test_Wireless_Oscilloscope
*SFR* 00000088H.5 DATA     BIT       TF0
*SFR* 00000088H.7 DATA     BIT       TF1
*SFR* 000000C8H.7 DATA     BIT       TF2
      00FF3E0EH   CODE     ---       tft_ascii
*SFR* 0000008CH   DATA     BYTE      TH0
*SFR* 0000008DH   DATA     BYTE      TH1
*SFR* 000000CDH   DATA     BYTE      TH2
*SFR* 00000098H.1 DATA     BIT       TI
*SFR* 0000008AH   DATA     BYTE      TL0
*SFR* 0000008BH   DATA     BYTE      TL1
*SFR* 000000CCH   DATA     BYTE      TL2
      00FFA355H   CODE     ---       TM0_Isr
      00FF7322H   CODE     ---       TM1_Isr
      00FFB8FAH   CODE     ---       TM2_Isr
      00FFB902H   CODE     ---       TM3_Isr
      00FFB90AH   CODE     ---       TM4_Isr
*SFR* 00000089H   DATA     BYTE      TMOD
*SFR* 00000088H.4 DATA     BIT       TR0
*SFR* 00000088H.6 DATA     BIT       TR1
*SFR* 000000C8H.2 DATA     BIT       TR2
      0001035EH   XDATA    BYTE      track_route
      0001035FH   XDATA    BYTE      track_route_status
      00010376H   XDATA    BYTE      track_ten_flag
      00010375H   XDATA    BYTE      track_type
      0001038CH   XDATA    BYTE      track_type_last
      00010311H   XDATA    BYTE      track_type_zj
      000103C3H   XDATA    ---       track_weights
      00000021H   EDATA    BYTE      tsl1401_finish_flag
      000109A6H   XDATA    FLOAT     Turn_Pid
      00010441H   XDATA    ---       TurnPID
*SFR* 000000B0H.1 DATA     BIT       TXD
      00FFB4C3H   CODE     ---       UART1_Isr
      00FFB55BH   CODE     ---       UART2_Isr
      00FFB848H   CODE     ---       UART3_Isr
      00FFB3BFH   CODE     ---       UART4_Isr
      00FF8259H   CODE     ---       uart_init
*DEL*:00000000H   CODE     ---       uart_putbuff
*DEL*:00000000H   CODE     ---       uart_putchar
*DEL*:00000000H   CODE     ---       uart_putstr
*DEL*:00000000H   CODE     ---       update_min_max_values
L251 LINKER/LOCATER V4.66.93.0                                                        06/23/2025  18:43:06  PAGE 31


*SFR* 000000F4H   DATA     BYTE      USBCON
      0001099EH   XDATA    FLOAT     Velo_Pid
*SFR* 000000A6H   DATA     BYTE      VRTRIM
*DEL*:00000000H   CODE     ---       wait
*SFR* 000000C1H   DATA     BYTE      WDT_CONTR
*SFR* 000000A6H   DATA     BYTE      WDTRST
      0001103BH   XDATA    ---       wireless_module_uart_handler
      00011039H   XDATA    INT       wireless_type
*DEL*:00000000H   CODE     ---       wireless_uart_callback
*DEL*:00000000H   CODE     ---       wireless_uart_init
*DEL*:00000000H   CODE     ---       wireless_uart_read_buff
*DEL*:00000000H   CODE     ---       wireless_uart_send_buff
*DEL*:00000000H   CODE     ---       wireless_uart_send_byte
*SFR* 000000B0H.6 DATA     BIT       WR
*SFR* 000000E9H   DATA     BYTE      WTST
      00011041H   XDATA    WORD      zf_delay_ms
      00011043H   XDATA    WORD      zf_delay_us
      00FF5A40H   CODE     ---       zf_sprintf



SYMBOL TABLE OF MODULE:  .\Out_File\Trigger (board)

      VALUE       REP       CLASS    TYPE      SYMBOL NAME
      ====================================================
      ---         MODULE    ---      ---       board
      00FF0006H   PUBLIC    CODE     ---       EnableGlobalIRQ
      00FFADEEH   PUBLIC    CODE     ---       board_init
      00FF8B0BH   PUBLIC    CODE     ---       set_clk
      00011035H   PUBLIC    XDATA    LONG      sys_clk
      00000094H   SFRSYM    DATA     BYTE      P0M0
      000000D0H   SFRSYM    DATA     BYTE      PSW
      000000BAH.7 SFRSYM    DATA     BIT       EAXFR
      0000009DH   SFRSYM    DATA     BYTE      IRCBAND
      00000097H   SFRSYM    DATA     BYTE      AUXR2
      000000EAH   SFRSYM    DATA     BYTE      CKCON
      000000EFH   SFRSYM    DATA     BYTE      AUXINTIF
      000000FDH   SFRSYM    DATA     BYTE      S4CON
      000000ACH   SFRSYM    DATA     BYTE      S3CON
      0000009AH   SFRSYM    DATA     BYTE      S2CON
      000000A6H   SFRSYM    DATA     BYTE      VRTRIM
      000000B7H   SFRSYM    DATA     BYTE      IPH
      000000CDH   SFRSYM    DATA     BYTE      SPSTAT
      000000DDH   SFRSYM    DATA     BYTE      T4T3M
      0000009FH   SFRSYM    DATA     BYTE      IRTRIM
      000000C1H   SFRSYM    DATA     BYTE      WDT_CONTR
      000000E9H   SFRSYM    DATA     BYTE      WTST
      000000DFH   SFRSYM    DATA     BYTE      IP3
      000000F4H   SFRSYM    DATA     BYTE      USBCON
      000000B5H   SFRSYM    DATA     BYTE      IP2
      000000FFH   SFRSYM    DATA     BYTE      RSTCFG
      000000F9H   SFRSYM    DATA     BYTE      LINICR
      0000008EH   SFRSYM    DATA     BYTE      AUXR
      000000AFH   SFRSYM    DATA     BYTE      IE2
      00000088H   SFRSYM    DATA     BYTE      TCON
      00000089H   SFRSYM    DATA     BYTE      TMOD
      00000098H   SFRSYM    DATA     BYTE      SCON
      000000F1H   SFRSYM    DATA     BYTE      CANICR
      00000087H   SFRSYM    DATA     BYTE      PCON
      000000BCH   SFRSYM    DATA     BYTE      ADC_CONTR
      000000E7H   SFRSYM    DATA     BYTE      CMPCR2
      000000E6H   SFRSYM    DATA     BYTE      CMPCR1
      000000DEH   SFRSYM    DATA     BYTE      ADCCFG
      000000B8H   SFRSYM    DATA     BYTE      IP
      0000008FH   SFRSYM    DATA     BYTE      INTCLKO
L251 LINKER/LOCATER V4.66.93.0                                                        06/23/2025  18:43:06  PAGE 32


      000000EEH   SFRSYM    DATA     BYTE      IP3H
      000000B6H   SFRSYM    DATA     BYTE      IP2H
      000000A8H   SFRSYM    DATA     BYTE      IE
      000000BBH   SFRSYM    DATA     BYTE      P_SW3
      000000BAH   SFRSYM    DATA     BYTE      P_SW2
      000000A2H   SFRSYM    DATA     BYTE      P_SW1
      000000CEH   SFRSYM    DATA     BYTE      SPCTL
      000000F8H   SFRSYM    DATA     BYTE      P7
      000000A8H.7 SFRSYM    DATA     BIT       EA
      000000E1H   SFRSYM    DATA     BYTE      P7M1
      000000E8H   SFRSYM    DATA     BYTE      P6
      000000C8H   SFRSYM    DATA     BYTE      P5
      000000CBH   SFRSYM    DATA     BYTE      P6M1
      000000E2H   SFRSYM    DATA     BYTE      P7M0
      000000C0H   SFRSYM    DATA     BYTE      P4
      000000C9H   SFRSYM    DATA     BYTE      P5M1
      000000CCH   SFRSYM    DATA     BYTE      P6M0
      000000B0H   SFRSYM    DATA     BYTE      P3
      000000B3H   SFRSYM    DATA     BYTE      P4M1
      000000CAH   SFRSYM    DATA     BYTE      P5M0
      000000A0H   SFRSYM    DATA     BYTE      P2
      000000B1H   SFRSYM    DATA     BYTE      P3M1
      000000B4H   SFRSYM    DATA     BYTE      P4M0
      00000090H   SFRSYM    DATA     BYTE      P1
      00000095H   SFRSYM    DATA     BYTE      P2M1
      000000B2H   SFRSYM    DATA     BYTE      P3M0
      00000080H   SFRSYM    DATA     BYTE      P0
      00000091H   SFRSYM    DATA     BYTE      P1M1
      00000096H   SFRSYM    DATA     BYTE      P2M0
      00000092H   SFRSYM    DATA     BYTE      P1M0
      00000093H   SFRSYM    DATA     BYTE      P0M1

      00FF8B0BH   BLOCK     CODE     ---       LVL=0
      00FF8B0BH   LINE      CODE     ---       #43
      00FF8B0BH   LINE      CODE     ---       #46
      00FF8B0EH   LINE      CODE     ---       #48
      00FF8B24H   LINE      CODE     ---       #51
      00FF8B31H   LINE      CODE     ---       #52
      00FF8B3EH   LINE      CODE     ---       #53
      00FF8B4BH   LINE      CODE     ---       #54
      00FF8B4FH   LINE      CODE     ---       #55
      00FF8B5BH   LINE      CODE     ---       #56
      00FF8B5EH   LINE      CODE     ---       #57
      00FF8B74H   LINE      CODE     ---       #60
      00FF8B81H   LINE      CODE     ---       #61
      00FF8B8EH   LINE      CODE     ---       #62
      00FF8B9BH   LINE      CODE     ---       #63
      00FF8B9FH   LINE      CODE     ---       #64
      00FF8BABH   LINE      CODE     ---       #65
      00FF8BAEH   LINE      CODE     ---       #66
      00FF8BC4H   LINE      CODE     ---       #69
      00FF8BD1H   LINE      CODE     ---       #70
      00FF8BDEH   LINE      CODE     ---       #71
      00FF8BEBH   LINE      CODE     ---       #72
      00FF8BEFH   LINE      CODE     ---       #73
      00FF8BFBH   LINE      CODE     ---       #74
      00FF8BFEH   LINE      CODE     ---       #75
      00FF8C14H   LINE      CODE     ---       #79
      00FF8C21H   LINE      CODE     ---       #80
      00FF8C2EH   LINE      CODE     ---       #81
      00FF8C3BH   LINE      CODE     ---       #82
      00FF8C3FH   LINE      CODE     ---       #83
      00FF8C4BH   LINE      CODE     ---       #84
      00FF8C4EH   LINE      CODE     ---       #85
      00FF8C64H   LINE      CODE     ---       #88
L251 LINKER/LOCATER V4.66.93.0                                                        06/23/2025  18:43:06  PAGE 33


      00FF8C71H   LINE      CODE     ---       #89
      00FF8C7EH   LINE      CODE     ---       #90
      00FF8C8BH   LINE      CODE     ---       #91
      00FF8C8FH   LINE      CODE     ---       #92
      00FF8C9BH   LINE      CODE     ---       #93
      00FF8C9EH   LINE      CODE     ---       #94
      00FF8CB4H   LINE      CODE     ---       #97
      00FF8CC1H   LINE      CODE     ---       #98
      00FF8CCEH   LINE      CODE     ---       #99
      00FF8CDBH   LINE      CODE     ---       #100
      00FF8CDFH   LINE      CODE     ---       #101
      00FF8CEBH   LINE      CODE     ---       #102
      00FF8CEDH   LINE      CODE     ---       #105
      00FF8CFFH   LINE      CODE     ---       #107
      00FF8D0CH   LINE      CODE     ---       #108
      00FF8D19H   LINE      CODE     ---       #109
      00FF8D26H   LINE      CODE     ---       #110
      00FF8D2AH   LINE      CODE     ---       #111
      00FF8D36H   LINE      CODE     ---       #112
      00FF8D36H   LINE      CODE     ---       #114
      00FF8D40H   LINE      CODE     ---       #115
      ---         BLOCKEND  ---      ---       LVL=0

      00FFADEEH   BLOCK     CODE     ---       LVL=0
      00FFADEEH   LINE      CODE     ---       #121
      00FFADEEH   LINE      CODE     ---       #123
      00FFADF2H   LINE      CODE     ---       #124
      00FFADF5H   LINE      CODE     ---       #125
      00FFADF8H   LINE      CODE     ---       #126
      00FFADFBH   LINE      CODE     ---       #127
      00FFADFFH   LINE      CODE     ---       #137
      00FFAE0CH   LINE      CODE     ---       #143
      00FFAE0FH   LINE      CODE     ---       #145
      00FFAE12H   LINE      CODE     ---       #146
      00FFAE15H   LINE      CODE     ---       #147
      00FFAE21H   LINE      CODE     ---       #149
      00FFAE24H   LINE      CODE     ---       #150
      00FFAE27H   LINE      CODE     ---       #151
      00FFAE2AH   LINE      CODE     ---       #152
      00FFAE2DH   LINE      CODE     ---       #153
      00FFAE30H   LINE      CODE     ---       #154
      00FFAE33H   LINE      CODE     ---       #155
      00FFAE36H   LINE      CODE     ---       #156
      00FFAE39H   LINE      CODE     ---       #157
      00FFAE3CH   LINE      CODE     ---       #158
      00FFAE3FH   LINE      CODE     ---       #159
      00FFAE42H   LINE      CODE     ---       #160
      00FFAE45H   LINE      CODE     ---       #161
      00FFAE48H   LINE      CODE     ---       #162
      00FFAE4BH   LINE      CODE     ---       #163
      00FFAE4EH   LINE      CODE     ---       #164
      00FFAE51H   LINE      CODE     ---       #166
      00FFAE54H   LINE      CODE     ---       #167
      00FFAE57H   LINE      CODE     ---       #168
      00FFAE5AH   LINE      CODE     ---       #169
      00FFAE5DH   LINE      CODE     ---       #170
      00FFAE60H   LINE      CODE     ---       #171
      00FFAE63H   LINE      CODE     ---       #172
      00FFAE66H   LINE      CODE     ---       #173
      00FFAE69H   LINE      CODE     ---       #174
      00FFAE6CH   LINE      CODE     ---       #176
      00FFAE8DH   LINE      CODE     ---       #177
      00FFAE90H   LINE      CODE     ---       #178
      ---         BLOCKEND  ---      ---       LVL=0
      000110F5H   SYMBOL    XDATA    CHAR      c
L251 LINKER/LOCATER V4.66.93.0                                                        06/23/2025  18:43:06  PAGE 34



      00FF0006H   BLOCK     CODE     ---       LVL=0
      00FF0006H   LINE      CODE     ---       #197
      00FF0006H   LINE      CODE     ---       #199
      00FF0009H   LINE      CODE     ---       #200
      ---         BLOCKEND  ---      ---       LVL=0

      ---         MODULE    ---      ---       common
      00011039H   PUBLIC    XDATA    INT       wireless_type
      0001103BH   PUBLIC    XDATA    ---       wireless_module_uart_handler
      000000D0H   SFRSYM    DATA     BYTE      PSW
      0000009DH   SFRSYM    DATA     BYTE      IRCBAND
      00000097H   SFRSYM    DATA     BYTE      AUXR2
      000000EFH   SFRSYM    DATA     BYTE      AUXINTIF
      000000FDH   SFRSYM    DATA     BYTE      S4CON
      000000ACH   SFRSYM    DATA     BYTE      S3CON
      0000009AH   SFRSYM    DATA     BYTE      S2CON
      000000B7H   SFRSYM    DATA     BYTE      IPH
      000000CDH   SFRSYM    DATA     BYTE      SPSTAT
      000000DDH   SFRSYM    DATA     BYTE      T4T3M
      000000C1H   SFRSYM    DATA     BYTE      WDT_CONTR
      000000DFH   SFRSYM    DATA     BYTE      IP3
      000000F4H   SFRSYM    DATA     BYTE      USBCON
      000000B5H   SFRSYM    DATA     BYTE      IP2
      000000FFH   SFRSYM    DATA     BYTE      RSTCFG
      000000F9H   SFRSYM    DATA     BYTE      LINICR
      0000008EH   SFRSYM    DATA     BYTE      AUXR
      000000AFH   SFRSYM    DATA     BYTE      IE2
      00000088H   SFRSYM    DATA     BYTE      TCON
      00000098H   SFRSYM    DATA     BYTE      SCON
      000000F1H   SFRSYM    DATA     BYTE      CANICR
      00000087H   SFRSYM    DATA     BYTE      PCON
      000000BCH   SFRSYM    DATA     BYTE      ADC_CONTR
      000000E7H   SFRSYM    DATA     BYTE      CMPCR2
      000000E6H   SFRSYM    DATA     BYTE      CMPCR1
      000000B8H   SFRSYM    DATA     BYTE      IP
      0000008FH   SFRSYM    DATA     BYTE      INTCLKO
      000000EEH   SFRSYM    DATA     BYTE      IP3H
      000000B6H   SFRSYM    DATA     BYTE      IP2H
      000000A8H   SFRSYM    DATA     BYTE      IE
      000000BBH   SFRSYM    DATA     BYTE      P_SW3
      000000BAH   SFRSYM    DATA     BYTE      P_SW2
      000000A2H   SFRSYM    DATA     BYTE      P_SW1
      000000CEH   SFRSYM    DATA     BYTE      SPCTL
      000000F8H   SFRSYM    DATA     BYTE      P7
      000000E8H   SFRSYM    DATA     BYTE      P6
      000000C8H   SFRSYM    DATA     BYTE      P5
      000000C0H   SFRSYM    DATA     BYTE      P4
      000000B0H   SFRSYM    DATA     BYTE      P3
      000000A0H   SFRSYM    DATA     BYTE      P2
      00000090H   SFRSYM    DATA     BYTE      P1
      00000080H   SFRSYM    DATA     BYTE      P0

      ---         MODULE    ---      ---       ?C_START
      00FF0000H   PUBLIC    CODE     ---       ?C?STARTUP
      00FF0000H   PUBLIC    CODE     ---       ?C_STARTUP
      000000D0H.6 SFRSYM    DATA     BIT       AC
      000000E0H   SFRSYM    DATA     BYTE      ACC
      000000F0H   SFRSYM    DATA     BYTE      B
      000000FAH   SFRSYM    DATA     BYTE      CCAP0H
      000000EAH   SFRSYM    DATA     BYTE      CCAP0L
      000000FBH   SFRSYM    DATA     BYTE      CCAP1H
      000000EBH   SFRSYM    DATA     BYTE      CCAP1L
      000000FCH   SFRSYM    DATA     BYTE      CCAP2H
      000000ECH   SFRSYM    DATA     BYTE      CCAP2L
L251 LINKER/LOCATER V4.66.93.0                                                        06/23/2025  18:43:06  PAGE 35


      000000FDH   SFRSYM    DATA     BYTE      CCAP3H
      000000EDH   SFRSYM    DATA     BYTE      CCAP3L
      000000FEH   SFRSYM    DATA     BYTE      CCAP4H
      000000EEH   SFRSYM    DATA     BYTE      CCAP4L
      000000DAH   SFRSYM    DATA     BYTE      CCAPM0
      000000DBH   SFRSYM    DATA     BYTE      CCAPM1
      000000DCH   SFRSYM    DATA     BYTE      CCAPM2
      000000DDH   SFRSYM    DATA     BYTE      CCAPM3
      000000DEH   SFRSYM    DATA     BYTE      CCAPM4
      000000D8H.0 SFRSYM    DATA     BIT       CCF0
      000000D8H.1 SFRSYM    DATA     BIT       CCF1
      000000D8H.2 SFRSYM    DATA     BIT       CCF2
      000000D8H.3 SFRSYM    DATA     BIT       CCF3
      000000D8H.4 SFRSYM    DATA     BIT       CCF4
      000000D8H   SFRSYM    DATA     BYTE      CCON
      00000090H.3 SFRSYM    DATA     BIT       CEX0
      00000090H.4 SFRSYM    DATA     BIT       CEX1
      00000090H.5 SFRSYM    DATA     BIT       CEX2
      00000090H.6 SFRSYM    DATA     BIT       CEX3
      00000090H.7 SFRSYM    DATA     BIT       CEX4
      000000D8H.7 SFRSYM    DATA     BIT       CF
      000000F9H   SFRSYM    DATA     BYTE      CH
      000000E9H   SFRSYM    DATA     BYTE      CL
      000000D9H   SFRSYM    DATA     BYTE      CMOD
      000000C8H.0 SFRSYM    DATA     BIT       CP_RL2
      000000D8H.6 SFRSYM    DATA     BIT       CR
      000000D0H.7 SFRSYM    DATA     BIT       CY
      000000C8H.1 SFRSYM    DATA     BIT       C_T2
      00000083H   SFRSYM    DATA     BYTE      DPH
      00000082H   SFRSYM    DATA     BYTE      DPL
      00000084H   SFRSYM    DATA     BYTE      DPXL
      000000A8H.7 SFRSYM    DATA     BIT       EA
      000000A8H.6 SFRSYM    DATA     BIT       EC
      00000090H.2 SFRSYM    DATA     BIT       ECI
      000000A8H.4 SFRSYM    DATA     BIT       ES
      000000A8H.1 SFRSYM    DATA     BIT       ET0
      000000A8H.3 SFRSYM    DATA     BIT       ET1
      000000A8H.5 SFRSYM    DATA     BIT       ET2
      000000A8H.0 SFRSYM    DATA     BIT       EX0
      000000A8H.2 SFRSYM    DATA     BIT       EX1
      000000C8H.3 SFRSYM    DATA     BIT       EXEN2
      000000C8H.6 SFRSYM    DATA     BIT       EXF2
      000000D0H.5 SFRSYM    DATA     BIT       F0
      00000098H.7 SFRSYM    DATA     BIT       FE
      000000A8H   SFRSYM    DATA     BYTE      IE0
      00000088H.1 SFRSYM    DATA     BIT       IE0_
      000000B1H   SFRSYM    DATA     BYTE      IE1
      00000088H.3 SFRSYM    DATA     BIT       IE1_
      000000B0H.2 SFRSYM    DATA     BIT       INT0
      000000B0H.3 SFRSYM    DATA     BIT       INT1
      000000B7H   SFRSYM    DATA     BYTE      IPH0
      000000B8H   SFRSYM    DATA     BYTE      IPL0
      00000088H.0 SFRSYM    DATA     BIT       IT0
      00000088H.2 SFRSYM    DATA     BIT       IT1
      000000D0H.2 SFRSYM    DATA     BIT       OV
      000000D0H.0 SFRSYM    DATA     BIT       P
      00000080H   SFRSYM    DATA     BYTE      P0
      00000090H   SFRSYM    DATA     BYTE      P1
      000000A0H   SFRSYM    DATA     BYTE      P2
      000000B0H   SFRSYM    DATA     BYTE      P3
      00000087H   SFRSYM    DATA     BYTE      PCON
      000000B8H.6 SFRSYM    DATA     BIT       PPC
      000000B8H.4 SFRSYM    DATA     BIT       PS
      000000D0H   SFRSYM    DATA     BYTE      PSW
      000000D1H   SFRSYM    DATA     BYTE      PSW1
L251 LINKER/LOCATER V4.66.93.0                                                        06/23/2025  18:43:06  PAGE 36


      000000B8H.1 SFRSYM    DATA     BIT       PT0
      000000B8H.3 SFRSYM    DATA     BIT       PT1
      000000B8H.5 SFRSYM    DATA     BIT       PT2
      000000B8H.0 SFRSYM    DATA     BIT       PX0
      000000B8H.2 SFRSYM    DATA     BIT       PX1
      00000098H.2 SFRSYM    DATA     BIT       RB8
      000000CBH   SFRSYM    DATA     BYTE      RCAP2H
      000000CAH   SFRSYM    DATA     BYTE      RCAP2L
      000000C8H.5 SFRSYM    DATA     BIT       RCLK
      000000B0H.7 SFRSYM    DATA     BIT       RD
      00000098H.4 SFRSYM    DATA     BIT       REN
      00000098H.0 SFRSYM    DATA     BIT       RI
      000000D0H.3 SFRSYM    DATA     BIT       RS0
      000000D0H.4 SFRSYM    DATA     BIT       RS1
      000000B0H.0 SFRSYM    DATA     BIT       RXD
      000000A9H   SFRSYM    DATA     BYTE      SADDR
      000000B9H   SFRSYM    DATA     BYTE      SADEN
      00000099H   SFRSYM    DATA     BYTE      SBUF
      00000098H   SFRSYM    DATA     BYTE      SCON
      00000098H.7 SFRSYM    DATA     BIT       SM0
      00000098H.6 SFRSYM    DATA     BIT       SM1
      00000098H.5 SFRSYM    DATA     BIT       SM2
      00000081H   SFRSYM    DATA     BYTE      SP
      000000BEH   SFRSYM    DATA     BYTE      SPH
      000000B0H.4 SFRSYM    DATA     BIT       T0
      000000B0H.5 SFRSYM    DATA     BIT       T1
      00000090H.0 SFRSYM    DATA     BIT       T2
      000000C8H   SFRSYM    DATA     BYTE      T2CON
      00000090H.1 SFRSYM    DATA     BIT       T2EX
      000000C9H   SFRSYM    DATA     BYTE      T2MOD
      00000098H.3 SFRSYM    DATA     BIT       TB8
      000000C8H.4 SFRSYM    DATA     BIT       TCLK
      00000088H   SFRSYM    DATA     BYTE      TCON
      00000088H.5 SFRSYM    DATA     BIT       TF0
      00000088H.7 SFRSYM    DATA     BIT       TF1
      000000C8H.7 SFRSYM    DATA     BIT       TF2
      0000008CH   SFRSYM    DATA     BYTE      TH0
      0000008DH   SFRSYM    DATA     BYTE      TH1
      000000CDH   SFRSYM    DATA     BYTE      TH2
      00000098H.1 SFRSYM    DATA     BIT       TI
      0000008AH   SFRSYM    DATA     BYTE      TL0
      0000008BH   SFRSYM    DATA     BYTE      TL1
      000000CCH   SFRSYM    DATA     BYTE      TL2
      00000089H   SFRSYM    DATA     BYTE      TMOD
      00000088H.4 SFRSYM    DATA     BIT       TR0
      00000088H.6 SFRSYM    DATA     BIT       TR1
      000000C8H.2 SFRSYM    DATA     BIT       TR2
      000000B0H.1 SFRSYM    DATA     BIT       TXD
      000000A6H   SFRSYM    DATA     BYTE      WDTRST
      000000B0H.6 SFRSYM    DATA     BIT       WR
      00000800H   SYMBOL    NUMBER   ---       EDATALEN
      00FFB1FDH   SYMBOL    CODE     ---       EDATALOOP
      00000001H   SYMBOL    NUMBER   ---       EDF
      00000001H   SYMBOL    NUMBER   ---       EMAP
      00000000H   SYMBOL    NUMBER   ---       HDATALEN
      00010000H   SYMBOL    NUMBER   ---       HDATASTART
      00000000H   SYMBOL    NUMBER   ---       IBPSTACK
      00000100H   SYMBOL    NUMBER   ---       IBPSTACKTOP
      00000001H   SYMBOL    NUMBER   ---       INTR
      00000001H   SYMBOL    NUMBER   ---       PAGM
      00000003H   SYMBOL    NUMBER   ---       RDRG
      00000001H   SYMBOL    NUMBER   ---       SRCM
      00000800H   SYMBOL    NUMBER   ---       STACKSIZE
      00FFB1F5H   SYMBOL    CODE     ---       STARTUP1
      00000003H   SYMBOL    NUMBER   ---       WSA
L251 LINKER/LOCATER V4.66.93.0                                                        06/23/2025  18:43:06  PAGE 37


      00000003H   SYMBOL    NUMBER   ---       WSB
      00000001H   SYMBOL    NUMBER   ---       XALE
      00000000H   SYMBOL    NUMBER   ---       XBPSTACK
      00010000H   SYMBOL    NUMBER   ---       XBPSTACKTOP
      00008000H   SYMBOL    NUMBER   ---       XDATALEN
      00FFB20CH   SYMBOL    CODE     ---       XDATALOOP
      00010000H   SYMBOL    NUMBER   ---       XDATASTART

      00FF0000H   BLOCK     CODE     NEAR LAB  LVL=0
      00FF0000H   LINE      CODE     ---       #183
      ---         BLOCKEND  ---      ---       LVL=0

      00FFB1F5H   BLOCK     CODE     NEAR LAB  LVL=0
      00FFB1F5H   LINE      CODE     ---       #188
      00FFB1F8H   LINE      CODE     ---       #191
      00FFB1FCH   LINE      CODE     ---       #192
      00FFB1FDH   LINE      CODE     ---       #193
      00FFB200H   LINE      CODE     ---       #194
      00FFB202H   LINE      CODE     ---       #195
      00FFB204H   LINE      CODE     ---       #199
      00FFB207H   LINE      CODE     ---       #200
      00FFB20BH   LINE      CODE     ---       #201
      00FFB20CH   LINE      CODE     ---       #202
      00FFB20DH   LINE      CODE     ---       #203
      00FFB20EH   LINE      CODE     ---       #204
      00FFB210H   LINE      CODE     ---       #205
      00FFB212H   LINE      CODE     ---       #235
      ---         BLOCKEND  ---      ---       LVL=0

      00FFB24FH   BLOCK     CODE     NEAR LAB  LVL=0
      00FFB24FH   LINE      CODE     ---       #238
      ---         BLOCKEND  ---      ---       LVL=0

      ---         MODULE    ---      ---       zf_adc
      00FFAC8DH   PUBLIC    CODE     ---       adc_once
      00FFA8B7H   PUBLIC    CODE     ---       adc_init
      00000094H   SFRSYM    DATA     BYTE      P0M0
      000000D0H   SFRSYM    DATA     BYTE      PSW
      0000009DH   SFRSYM    DATA     BYTE      IRCBAND
      00000097H   SFRSYM    DATA     BYTE      AUXR2
      000000EFH   SFRSYM    DATA     BYTE      AUXINTIF
      000000FDH   SFRSYM    DATA     BYTE      S4CON
      000000ACH   SFRSYM    DATA     BYTE      S3CON
      0000009AH   SFRSYM    DATA     BYTE      S2CON
      000000B7H   SFRSYM    DATA     BYTE      IPH
      000000CDH   SFRSYM    DATA     BYTE      SPSTAT
      000000BEH   SFRSYM    DATA     BYTE      ADC_RESL
      000000DDH   SFRSYM    DATA     BYTE      T4T3M
      000000C1H   SFRSYM    DATA     BYTE      WDT_CONTR
      000000DFH   SFRSYM    DATA     BYTE      IP3
      000000F4H   SFRSYM    DATA     BYTE      USBCON
      000000B5H   SFRSYM    DATA     BYTE      IP2
      000000FFH   SFRSYM    DATA     BYTE      RSTCFG
      000000F9H   SFRSYM    DATA     BYTE      LINICR
      0000008EH   SFRSYM    DATA     BYTE      AUXR
      000000AFH   SFRSYM    DATA     BYTE      IE2
      00000088H   SFRSYM    DATA     BYTE      TCON
      00000098H   SFRSYM    DATA     BYTE      SCON
      000000F1H   SFRSYM    DATA     BYTE      CANICR
      00000087H   SFRSYM    DATA     BYTE      PCON
      000000BCH   SFRSYM    DATA     BYTE      ADC_CONTR
      000000E7H   SFRSYM    DATA     BYTE      CMPCR2
      000000E6H   SFRSYM    DATA     BYTE      CMPCR1
      000000DEH   SFRSYM    DATA     BYTE      ADCCFG
      000000B8H   SFRSYM    DATA     BYTE      IP
L251 LINKER/LOCATER V4.66.93.0                                                        06/23/2025  18:43:06  PAGE 38


      0000008FH   SFRSYM    DATA     BYTE      INTCLKO
      000000EEH   SFRSYM    DATA     BYTE      IP3H
      000000B6H   SFRSYM    DATA     BYTE      IP2H
      000000BDH   SFRSYM    DATA     BYTE      ADC_RES
      000000A8H   SFRSYM    DATA     BYTE      IE
      000000BBH   SFRSYM    DATA     BYTE      P_SW3
      000000BAH   SFRSYM    DATA     BYTE      P_SW2
      000000A2H   SFRSYM    DATA     BYTE      P_SW1
      000000CEH   SFRSYM    DATA     BYTE      SPCTL
      000000F8H   SFRSYM    DATA     BYTE      P7
      000000E8H   SFRSYM    DATA     BYTE      P6
      000000C8H   SFRSYM    DATA     BYTE      P5
      000000C0H   SFRSYM    DATA     BYTE      P4
      000000B0H   SFRSYM    DATA     BYTE      P3
      000000A0H   SFRSYM    DATA     BYTE      P2
      00000090H   SFRSYM    DATA     BYTE      P1
      00000080H   SFRSYM    DATA     BYTE      P0
      00000091H   SFRSYM    DATA     BYTE      P1M1
      00000092H   SFRSYM    DATA     BYTE      P1M0
      00000093H   SFRSYM    DATA     BYTE      P0M1

      00FFA8B7H   BLOCK     CODE     ---       LVL=0
      0001103DH   SYMBOL    XDATA    INT       adcn
      0001103FH   SYMBOL    XDATA    INT       speed
      00FFA8B7H   LINE      CODE     ---       #32
      00FFA8C3H   LINE      CODE     ---       #34
      00FFA8C6H   LINE      CODE     ---       #36
      00FFA8C9H   LINE      CODE     ---       #37
      00FFA8D3H   LINE      CODE     ---       #39
      00FFA8E7H   LINE      CODE     ---       #42
      00FFA904H   LINE      CODE     ---       #43
      00FFA91FH   LINE      CODE     ---       #44
      00FFA921H   LINE      CODE     ---       #45
      00FFA933H   LINE      CODE     ---       #48
      00FFA950H   LINE      CODE     ---       #49
      00FFA96BH   LINE      CODE     ---       #50
      00FFA96BH   LINE      CODE     ---       #52
      00FFA97CH   LINE      CODE     ---       #54
      00FFA97FH   LINE      CODE     ---       #55
      ---         BLOCKEND  ---      ---       LVL=0

      00FFAC8DH   BLOCK     CODE     ---       LVL=0
      00010E95H   SYMBOL    XDATA    INT       adcn
      00010E97H   SYMBOL    XDATA    INT       resolution
      00FFAC99H   BLOCK     CODE     NEAR LAB  LVL=1
      00010E99H   SYMBOL    XDATA    WORD      adc_value
      000110ADH   SYMBOL    XDATA    WORD      last_adc_value
      00010E9BH   SYMBOL    XDATA    WORD      count
      00000020H.4 SYMBOL    BIT      BIT       time_out
      ---         BLOCKEND  ---      ---       LVL=1
      00FFAC8DH   LINE      CODE     ---       #66
      00FFAC99H   LINE      CODE     ---       #67
      00FFAC99H   LINE      CODE     ---       #70
      00FFACA1H   LINE      CODE     ---       #72
      00FFACA4H   LINE      CODE     ---       #73
      00FFACAEH   LINE      CODE     ---       #75
      00FFACB1H   LINE      CODE     ---       #76
      00FFACB3H   LINE      CODE     ---       #78
      00FFACD0H   LINE      CODE     ---       #79
      00FFACD5H   LINE      CODE     ---       #80
      00FFACD8H   LINE      CODE     ---       #82
      00FFACDBH   LINE      CODE     ---       #84
      00FFACDEH   LINE      CODE     ---       #86
      00FFACE1H   LINE      CODE     ---       #87
      00FFACE4H   LINE      CODE     ---       #88
L251 LINKER/LOCATER V4.66.93.0                                                        06/23/2025  18:43:06  PAGE 39


      00FFACECH   LINE      CODE     ---       #89
      00FFACECH   LINE      CODE     ---       #91
      00FFACF6H   LINE      CODE     ---       #92
      00FFAD03H   LINE      CODE     ---       #93
      00FFAD12H   LINE      CODE     ---       #95
      00FFAD15H   LINE      CODE     ---       #96
      00FFAD18H   LINE      CODE     ---       #98
      00FFAD2EH   LINE      CODE     ---       #99
      00FFAD3AH   LINE      CODE     ---       #101
      00FFAD40H   LINE      CODE     ---       #102
      ---         BLOCKEND  ---      ---       LVL=0
      000110AFH   SYMBOL    XDATA    INT       resolution
      00010C2CH   SYMBOL    XDATA    INT       adcn
      00010C2EH   SYMBOL    XDATA    WORD      data1
      00010C30H   SYMBOL    XDATA    WORD      data2
      00010C32H   SYMBOL    XDATA    WORD      data3
      00010C34H   SYMBOL    XDATA    WORD      tmp
      00010C36H   SYMBOL    XDATA    WORD      sum
      00010C38H   SYMBOL    XDATA    WORD      temp_val
      00010C3AH   SYMBOL    XDATA    BYTE      delay
      00010C3BH   SYMBOL    XDATA    BYTE      num
      00010E17H   SYMBOL    XDATA    WORD      ad_result
      00010E19H   SYMBOL    XDATA    WORD      battery_voltage
      00010E1BH   SYMBOL    XDATA    DWORD     temp
      00010E1FH   SYMBOL    XDATA    BYTE      delay

      ---         MODULE    ---      ---       zf_delay
      00FFB367H   PUBLIC    CODE     ---       delay_init
      00FFB627H   PUBLIC    CODE     ---       delay_ms
      00FFB514H   PUBLIC    CODE     ---       delay_us
      00011041H   PUBLIC    XDATA    WORD      zf_delay_ms
      00011043H   PUBLIC    XDATA    WORD      zf_delay_us
      000000D0H   SFRSYM    DATA     BYTE      PSW
      0000009DH   SFRSYM    DATA     BYTE      IRCBAND
      00000097H   SFRSYM    DATA     BYTE      AUXR2
      000000EFH   SFRSYM    DATA     BYTE      AUXINTIF
      000000FDH   SFRSYM    DATA     BYTE      S4CON
      000000ACH   SFRSYM    DATA     BYTE      S3CON
      0000009AH   SFRSYM    DATA     BYTE      S2CON
      000000B7H   SFRSYM    DATA     BYTE      IPH
      000000CDH   SFRSYM    DATA     BYTE      SPSTAT
      000000DDH   SFRSYM    DATA     BYTE      T4T3M
      000000C1H   SFRSYM    DATA     BYTE      WDT_CONTR
      000000DFH   SFRSYM    DATA     BYTE      IP3
      000000F4H   SFRSYM    DATA     BYTE      USBCON
      000000B5H   SFRSYM    DATA     BYTE      IP2
      000000FFH   SFRSYM    DATA     BYTE      RSTCFG
      000000F9H   SFRSYM    DATA     BYTE      LINICR
      0000008EH   SFRSYM    DATA     BYTE      AUXR
      000000AFH   SFRSYM    DATA     BYTE      IE2
      00000088H   SFRSYM    DATA     BYTE      TCON
      00000098H   SFRSYM    DATA     BYTE      SCON
      000000F1H   SFRSYM    DATA     BYTE      CANICR
      00000087H   SFRSYM    DATA     BYTE      PCON
      000000BCH   SFRSYM    DATA     BYTE      ADC_CONTR
      000000E7H   SFRSYM    DATA     BYTE      CMPCR2
      000000E6H   SFRSYM    DATA     BYTE      CMPCR1
      000000B8H   SFRSYM    DATA     BYTE      IP
      0000008FH   SFRSYM    DATA     BYTE      INTCLKO
      000000EEH   SFRSYM    DATA     BYTE      IP3H
      000000B6H   SFRSYM    DATA     BYTE      IP2H
      000000A8H   SFRSYM    DATA     BYTE      IE
      000000BBH   SFRSYM    DATA     BYTE      P_SW3
      000000BAH   SFRSYM    DATA     BYTE      P_SW2
      000000A2H   SFRSYM    DATA     BYTE      P_SW1
L251 LINKER/LOCATER V4.66.93.0                                                        06/23/2025  18:43:06  PAGE 40


      000000CEH   SFRSYM    DATA     BYTE      SPCTL
      000000F8H   SFRSYM    DATA     BYTE      P7
      000000E8H   SFRSYM    DATA     BYTE      P6
      000000C8H   SFRSYM    DATA     BYTE      P5
      000000C0H   SFRSYM    DATA     BYTE      P4
      000000B0H   SFRSYM    DATA     BYTE      P3
      000000A0H   SFRSYM    DATA     BYTE      P2
      00000090H   SFRSYM    DATA     BYTE      P1
      00000080H   SFRSYM    DATA     BYTE      P0

      00FFB367H   BLOCK     CODE     ---       LVL=0
      00FFB367H   LINE      CODE     ---       #34
      00FFB367H   LINE      CODE     ---       #36
      00FFB37EH   LINE      CODE     ---       #37
      00FFB399H   LINE      CODE     ---       #38
      00FFB3BEH   LINE      CODE     ---       #40
      ---         BLOCKEND  ---      ---       LVL=0

      00FFB627H   BLOCK     CODE     ---       LVL=0
      00011045H   SYMBOL    XDATA    WORD      ms
      00FFB62DH   BLOCK     CODE     NEAR LAB  LVL=1
      00011047H   SYMBOL    XDATA    WORD      i
      ---         BLOCKEND  ---      ---       LVL=1
      00FFB627H   LINE      CODE     ---       #48
      00FFB62DH   LINE      CODE     ---       #49
      00FFB62DH   LINE      CODE     ---       #51
      00FFB62DH   LINE      CODE     ---       #52
      00FFB639H   LINE      CODE     ---       #54
      00FFB64EH   LINE      CODE     ---       #55
      00FFB663H   LINE      CODE     ---       #56
      ---         BLOCKEND  ---      ---       LVL=0

      00FFB514H   BLOCK     CODE     ---       LVL=0
      00010F60H   SYMBOL    XDATA    DWORD     us
      00FFB51EH   BLOCK     CODE     NEAR LAB  LVL=1
      00010F64H   SYMBOL    XDATA    WORD      i
      ---         BLOCKEND  ---      ---       LVL=1
      00FFB514H   LINE      CODE     ---       #64
      00FFB51EH   LINE      CODE     ---       #65
      00FFB51EH   LINE      CODE     ---       #67
      00FFB51EH   LINE      CODE     ---       #68
      00FFB52AH   LINE      CODE     ---       #70
      00FFB53FH   LINE      CODE     ---       #71
      00FFB55AH   LINE      CODE     ---       #72
      ---         BLOCKEND  ---      ---       LVL=0

      ---         MODULE    ---      ---       zf_eeprom
      00010DDBH   PUBLIC    XDATA    BYTE      ?iap_read_bytes?BYTE
      00010DE5H   PUBLIC    XDATA    BYTE      ?iap_write_bytes?BYTE
      000000D0H   SFRSYM    DATA     BYTE      PSW
      0000009DH   SFRSYM    DATA     BYTE      IRCBAND
      000000D0H.5 SFRSYM    DATA     BIT       F0
      00000097H   SFRSYM    DATA     BYTE      AUXR2
      000000C6H   SFRSYM    DATA     BYTE      IAP_TRIG
      000000EFH   SFRSYM    DATA     BYTE      AUXINTIF
      000000FDH   SFRSYM    DATA     BYTE      S4CON
      000000ACH   SFRSYM    DATA     BYTE      S3CON
      0000009AH   SFRSYM    DATA     BYTE      S2CON
      000000B7H   SFRSYM    DATA     BYTE      IPH
      000000CDH   SFRSYM    DATA     BYTE      SPSTAT
      000000DDH   SFRSYM    DATA     BYTE      T4T3M
      000000C1H   SFRSYM    DATA     BYTE      WDT_CONTR
      000000C2H   SFRSYM    DATA     BYTE      IAP_DATA
      000000DFH   SFRSYM    DATA     BYTE      IP3
      000000F4H   SFRSYM    DATA     BYTE      USBCON
L251 LINKER/LOCATER V4.66.93.0                                                        06/23/2025  18:43:06  PAGE 41


      000000B5H   SFRSYM    DATA     BYTE      IP2
      000000FFH   SFRSYM    DATA     BYTE      RSTCFG
      000000C7H   SFRSYM    DATA     BYTE      IAP_CONTR
      000000F9H   SFRSYM    DATA     BYTE      LINICR
      0000008EH   SFRSYM    DATA     BYTE      AUXR
      000000AFH   SFRSYM    DATA     BYTE      IE2
      00000088H   SFRSYM    DATA     BYTE      TCON
      00000098H   SFRSYM    DATA     BYTE      SCON
      000000F5H   SFRSYM    DATA     BYTE      IAP_TPS
      000000F1H   SFRSYM    DATA     BYTE      CANICR
      00000087H   SFRSYM    DATA     BYTE      PCON
      000000BCH   SFRSYM    DATA     BYTE      ADC_CONTR
      000000E7H   SFRSYM    DATA     BYTE      CMPCR2
      000000E6H   SFRSYM    DATA     BYTE      CMPCR1
      000000C4H   SFRSYM    DATA     BYTE      IAP_ADDRL
      000000C3H   SFRSYM    DATA     BYTE      IAP_ADDRH
      000000F6H   SFRSYM    DATA     BYTE      IAP_ADDRE
      000000B8H   SFRSYM    DATA     BYTE      IP
      0000008FH   SFRSYM    DATA     BYTE      INTCLKO
      000000EEH   SFRSYM    DATA     BYTE      IP3H
      000000B6H   SFRSYM    DATA     BYTE      IP2H
      000000C5H   SFRSYM    DATA     BYTE      IAP_CMD
      000000A8H   SFRSYM    DATA     BYTE      IE
      000000BBH   SFRSYM    DATA     BYTE      P_SW3
      000000BAH   SFRSYM    DATA     BYTE      P_SW2
      000000A2H   SFRSYM    DATA     BYTE      P_SW1
      000000CEH   SFRSYM    DATA     BYTE      SPCTL
      000000F8H   SFRSYM    DATA     BYTE      P7
      000000A8H.7 SFRSYM    DATA     BIT       EA
      000000E8H   SFRSYM    DATA     BYTE      P6
      000000C8H   SFRSYM    DATA     BYTE      P5
      000000C0H   SFRSYM    DATA     BYTE      P4
      000000B0H   SFRSYM    DATA     BYTE      P3
      000000A0H   SFRSYM    DATA     BYTE      P2
      00000090H   SFRSYM    DATA     BYTE      P1
      00000080H   SFRSYM    DATA     BYTE      P0
      000110F6H   SYMBOL    XDATA    BYTE      write_time
      00010DDBH   SYMBOL    XDATA    DWORD     addr
      00010DDFH   SYMBOL    XDATA    ---       buf
      00010DE3H   SYMBOL    XDATA    WORD      len
      00010DE5H   SYMBOL    XDATA    DWORD     addr
      00010DE9H   SYMBOL    XDATA    ---       buf
      00010DEDH   SYMBOL    XDATA    WORD      len
      00011049H   SYMBOL    XDATA    DWORD     addr

      ---         MODULE    ---      ---       zf_gpio
      00FF5067H   PUBLIC    CODE     ---       gpio_mode
      00000094H   SFRSYM    DATA     BYTE      P0M0
      000000D0H   SFRSYM    DATA     BYTE      PSW
      0000009DH   SFRSYM    DATA     BYTE      IRCBAND
      00000097H   SFRSYM    DATA     BYTE      AUXR2
      000000EFH   SFRSYM    DATA     BYTE      AUXINTIF
      000000FDH   SFRSYM    DATA     BYTE      S4CON
      000000ACH   SFRSYM    DATA     BYTE      S3CON
      0000009AH   SFRSYM    DATA     BYTE      S2CON
      000000B7H   SFRSYM    DATA     BYTE      IPH
      000000CDH   SFRSYM    DATA     BYTE      SPSTAT
      000000DDH   SFRSYM    DATA     BYTE      T4T3M
      000000C1H   SFRSYM    DATA     BYTE      WDT_CONTR
      000000DFH   SFRSYM    DATA     BYTE      IP3
      000000F4H   SFRSYM    DATA     BYTE      USBCON
      000000B5H   SFRSYM    DATA     BYTE      IP2
      000000FFH   SFRSYM    DATA     BYTE      RSTCFG
      000000F9H   SFRSYM    DATA     BYTE      LINICR
      0000008EH   SFRSYM    DATA     BYTE      AUXR
L251 LINKER/LOCATER V4.66.93.0                                                        06/23/2025  18:43:06  PAGE 42


      000000AFH   SFRSYM    DATA     BYTE      IE2
      00000088H   SFRSYM    DATA     BYTE      TCON
      00000098H   SFRSYM    DATA     BYTE      SCON
      000000F1H   SFRSYM    DATA     BYTE      CANICR
      00000087H   SFRSYM    DATA     BYTE      PCON
      000000BCH   SFRSYM    DATA     BYTE      ADC_CONTR
      000000E7H   SFRSYM    DATA     BYTE      CMPCR2
      000000E6H   SFRSYM    DATA     BYTE      CMPCR1
      000000B8H   SFRSYM    DATA     BYTE      IP
      0000008FH   SFRSYM    DATA     BYTE      INTCLKO
      000000EEH   SFRSYM    DATA     BYTE      IP3H
      000000B6H   SFRSYM    DATA     BYTE      IP2H
      000000A8H   SFRSYM    DATA     BYTE      IE
      000000BBH   SFRSYM    DATA     BYTE      P_SW3
      000000BAH   SFRSYM    DATA     BYTE      P_SW2
      000000A2H   SFRSYM    DATA     BYTE      P_SW1
      000000CEH   SFRSYM    DATA     BYTE      SPCTL
      000000F8H   SFRSYM    DATA     BYTE      P7
      000000E1H   SFRSYM    DATA     BYTE      P7M1
      000000E8H   SFRSYM    DATA     BYTE      P6
      000000C8H   SFRSYM    DATA     BYTE      P5
      000000CBH   SFRSYM    DATA     BYTE      P6M1
      000000E2H   SFRSYM    DATA     BYTE      P7M0
      000000C0H   SFRSYM    DATA     BYTE      P4
      000000C9H   SFRSYM    DATA     BYTE      P5M1
      000000CCH   SFRSYM    DATA     BYTE      P6M0
      000000B0H   SFRSYM    DATA     BYTE      P3
      000000B3H   SFRSYM    DATA     BYTE      P4M1
      000000CAH   SFRSYM    DATA     BYTE      P5M0
      000000A0H   SFRSYM    DATA     BYTE      P2
      000000B1H   SFRSYM    DATA     BYTE      P3M1
      000000B4H   SFRSYM    DATA     BYTE      P4M0
      00000090H   SFRSYM    DATA     BYTE      P1
      00000095H   SFRSYM    DATA     BYTE      P2M1
      000000B2H   SFRSYM    DATA     BYTE      P3M0
      00000080H   SFRSYM    DATA     BYTE      P0
      00000091H   SFRSYM    DATA     BYTE      P1M1
      00000096H   SFRSYM    DATA     BYTE      P2M0
      00000092H   SFRSYM    DATA     BYTE      P1M0
      00000093H   SFRSYM    DATA     BYTE      P0M1
      0001104DH   SYMBOL    XDATA    INT       pin
      0001104FH   SYMBOL    XDATA    INT       pull

      00FF5067H   BLOCK     CODE     ---       LVL=0
      00011051H   SYMBOL    XDATA    INT       pin
      00011053H   SYMBOL    XDATA    INT       mode
      00FF5067H   LINE      CODE     ---       #54
      00FF5073H   LINE      CODE     ---       #56
      00FF5082H   LINE      CODE     ---       #58
      00FF5094H   LINE      CODE     ---       #60
      00FF50B1H   LINE      CODE     ---       #61
      00FF50CEH   LINE      CODE     ---       #62
      00FF50CEH   LINE      CODE     ---       #63
      00FF50E2H   LINE      CODE     ---       #65
      00FF50FFH   LINE      CODE     ---       #66
      00FF511CH   LINE      CODE     ---       #67
      00FF511CH   LINE      CODE     ---       #68
      00FF5130H   LINE      CODE     ---       #70
      00FF514DH   LINE      CODE     ---       #71
      00FF516AH   LINE      CODE     ---       #72
      00FF516AH   LINE      CODE     ---       #74
      00FF517EH   LINE      CODE     ---       #76
      00FF519BH   LINE      CODE     ---       #77
      00FF51B8H   LINE      CODE     ---       #78
      00FF51B8H   LINE      CODE     ---       #79
L251 LINKER/LOCATER V4.66.93.0                                                        06/23/2025  18:43:06  PAGE 43


      00FF51CCH   LINE      CODE     ---       #81
      00FF51E9H   LINE      CODE     ---       #82
      00FF5206H   LINE      CODE     ---       #83
      00FF5206H   LINE      CODE     ---       #84
      00FF521AH   LINE      CODE     ---       #86
      00FF5237H   LINE      CODE     ---       #87
      00FF5254H   LINE      CODE     ---       #88
      00FF5254H   LINE      CODE     ---       #89
      00FF5268H   LINE      CODE     ---       #91
      00FF5285H   LINE      CODE     ---       #92
      00FF52A2H   LINE      CODE     ---       #93
      00FF52A2H   LINE      CODE     ---       #94
      00FF52B9H   LINE      CODE     ---       #96
      00FF52D6H   LINE      CODE     ---       #97
      00FF52F3H   LINE      CODE     ---       #98
      00FF52F6H   LINE      CODE     ---       #100
      00FF5307H   LINE      CODE     ---       #102
      00FF5319H   LINE      CODE     ---       #104
      00FF5336H   LINE      CODE     ---       #105
      00FF5351H   LINE      CODE     ---       #106
      00FF5351H   LINE      CODE     ---       #107
      00FF5365H   LINE      CODE     ---       #109
      00FF5382H   LINE      CODE     ---       #110
      00FF539DH   LINE      CODE     ---       #111
      00FF539DH   LINE      CODE     ---       #112
      00FF53B1H   LINE      CODE     ---       #114
      00FF53CEH   LINE      CODE     ---       #115
      00FF53E9H   LINE      CODE     ---       #116
      00FF53E9H   LINE      CODE     ---       #118
      00FF53FDH   LINE      CODE     ---       #120
      00FF541AH   LINE      CODE     ---       #121
      00FF5435H   LINE      CODE     ---       #122
      00FF5435H   LINE      CODE     ---       #123
      00FF5449H   LINE      CODE     ---       #125
      00FF5466H   LINE      CODE     ---       #126
      00FF5481H   LINE      CODE     ---       #127
      00FF5481H   LINE      CODE     ---       #128
      00FF5495H   LINE      CODE     ---       #130
      00FF54B2H   LINE      CODE     ---       #131
      00FF54CDH   LINE      CODE     ---       #132
      00FF54CDH   LINE      CODE     ---       #133
      00FF54E1H   LINE      CODE     ---       #135
      00FF54FEH   LINE      CODE     ---       #136
      00FF5519H   LINE      CODE     ---       #137
      00FF5519H   LINE      CODE     ---       #138
      00FF5530H   LINE      CODE     ---       #140
      00FF554DH   LINE      CODE     ---       #141
      00FF5568H   LINE      CODE     ---       #142
      00FF556BH   LINE      CODE     ---       #145
      00FF557CH   LINE      CODE     ---       #147
      00FF558EH   LINE      CODE     ---       #149
      00FF55A9H   LINE      CODE     ---       #150
      00FF55C6H   LINE      CODE     ---       #151
      00FF55C6H   LINE      CODE     ---       #152
      00FF55DAH   LINE      CODE     ---       #154
      00FF55F5H   LINE      CODE     ---       #155
      00FF5612H   LINE      CODE     ---       #156
      00FF5612H   LINE      CODE     ---       #157
      00FF5626H   LINE      CODE     ---       #159
      00FF5641H   LINE      CODE     ---       #160
      00FF565EH   LINE      CODE     ---       #161
      00FF565EH   LINE      CODE     ---       #163
      00FF5672H   LINE      CODE     ---       #165
      00FF568DH   LINE      CODE     ---       #166
      00FF56AAH   LINE      CODE     ---       #167
L251 LINKER/LOCATER V4.66.93.0                                                        06/23/2025  18:43:06  PAGE 44


      00FF56AAH   LINE      CODE     ---       #168
      00FF56BEH   LINE      CODE     ---       #170
      00FF56D9H   LINE      CODE     ---       #171
      00FF56F6H   LINE      CODE     ---       #172
      00FF56F6H   LINE      CODE     ---       #173
      00FF570AH   LINE      CODE     ---       #175
      00FF5725H   LINE      CODE     ---       #176
      00FF5742H   LINE      CODE     ---       #177
      00FF5742H   LINE      CODE     ---       #178
      00FF5756H   LINE      CODE     ---       #180
      00FF5771H   LINE      CODE     ---       #181
      00FF578EH   LINE      CODE     ---       #182
      00FF578EH   LINE      CODE     ---       #183
      00FF57A5H   LINE      CODE     ---       #185
      00FF57C0H   LINE      CODE     ---       #186
      00FF57DDH   LINE      CODE     ---       #187
      00FF57E0H   LINE      CODE     ---       #189
      00FF57F1H   LINE      CODE     ---       #191
      00FF5803H   LINE      CODE     ---       #193
      00FF581EH   LINE      CODE     ---       #194
      00FF5839H   LINE      CODE     ---       #195
      00FF5839H   LINE      CODE     ---       #196
      00FF584DH   LINE      CODE     ---       #198
      00FF5868H   LINE      CODE     ---       #199
      00FF5883H   LINE      CODE     ---       #200
      00FF5883H   LINE      CODE     ---       #201
      00FF5897H   LINE      CODE     ---       #203
      00FF58B2H   LINE      CODE     ---       #204
      00FF58CDH   LINE      CODE     ---       #205
      00FF58CDH   LINE      CODE     ---       #207
      00FF58E1H   LINE      CODE     ---       #209
      00FF58FCH   LINE      CODE     ---       #210
      00FF5917H   LINE      CODE     ---       #211
      00FF5917H   LINE      CODE     ---       #212
      00FF592BH   LINE      CODE     ---       #214
      00FF5946H   LINE      CODE     ---       #215
      00FF5961H   LINE      CODE     ---       #216
      00FF5961H   LINE      CODE     ---       #217
      00FF5975H   LINE      CODE     ---       #219
      00FF5990H   LINE      CODE     ---       #220
      00FF59ABH   LINE      CODE     ---       #221
      00FF59ABH   LINE      CODE     ---       #222
      00FF59BFH   LINE      CODE     ---       #224
      00FF59DAH   LINE      CODE     ---       #225
      00FF59F5H   LINE      CODE     ---       #226
      00FF59F5H   LINE      CODE     ---       #227
      00FF5A09H   LINE      CODE     ---       #229
      00FF5A24H   LINE      CODE     ---       #230
      00FF5A3FH   LINE      CODE     ---       #231
      00FF5A3FH   LINE      CODE     ---       #233
      ---         BLOCKEND  ---      ---       LVL=0

      ---         MODULE    ---      ---       zf_nvic
      000000D0H   SFRSYM    DATA     BYTE      PSW
      0000009DH   SFRSYM    DATA     BYTE      IRCBAND
      00000097H   SFRSYM    DATA     BYTE      AUXR2
      000000EFH   SFRSYM    DATA     BYTE      AUXINTIF
      000000FDH   SFRSYM    DATA     BYTE      S4CON
      000000ACH   SFRSYM    DATA     BYTE      S3CON
      0000009AH   SFRSYM    DATA     BYTE      S2CON
      000000B7H   SFRSYM    DATA     BYTE      IPH
      000000CDH   SFRSYM    DATA     BYTE      SPSTAT
      000000DDH   SFRSYM    DATA     BYTE      T4T3M
      000000C1H   SFRSYM    DATA     BYTE      WDT_CONTR
      000000DFH   SFRSYM    DATA     BYTE      IP3
L251 LINKER/LOCATER V4.66.93.0                                                        06/23/2025  18:43:06  PAGE 45


      000000F4H   SFRSYM    DATA     BYTE      USBCON
      000000B5H   SFRSYM    DATA     BYTE      IP2
      000000FFH   SFRSYM    DATA     BYTE      RSTCFG
      000000F9H   SFRSYM    DATA     BYTE      LINICR
      0000008EH   SFRSYM    DATA     BYTE      AUXR
      000000AFH   SFRSYM    DATA     BYTE      IE2
      00000088H   SFRSYM    DATA     BYTE      TCON
      00000098H   SFRSYM    DATA     BYTE      SCON
      000000F1H   SFRSYM    DATA     BYTE      CANICR
      00000087H   SFRSYM    DATA     BYTE      PCON
      000000BCH   SFRSYM    DATA     BYTE      ADC_CONTR
      000000E7H   SFRSYM    DATA     BYTE      CMPCR2
      000000E6H   SFRSYM    DATA     BYTE      CMPCR1
      000000B8H   SFRSYM    DATA     BYTE      IP
      0000008FH   SFRSYM    DATA     BYTE      INTCLKO
      000000EEH   SFRSYM    DATA     BYTE      IP3H
      000000B6H   SFRSYM    DATA     BYTE      IP2H
      000000A8H   SFRSYM    DATA     BYTE      IE
      000000BBH   SFRSYM    DATA     BYTE      P_SW3
      000000BAH   SFRSYM    DATA     BYTE      P_SW2
      000000A2H   SFRSYM    DATA     BYTE      P_SW1
      000000CEH   SFRSYM    DATA     BYTE      SPCTL
      000000F8H   SFRSYM    DATA     BYTE      P7
      000000E8H   SFRSYM    DATA     BYTE      P6
      000000C8H   SFRSYM    DATA     BYTE      P5
      000000C0H   SFRSYM    DATA     BYTE      P4
      000000B0H   SFRSYM    DATA     BYTE      P3
      000000A0H   SFRSYM    DATA     BYTE      P2
      00000090H   SFRSYM    DATA     BYTE      P1
      00000080H   SFRSYM    DATA     BYTE      P0
      00011089H   SYMBOL    XDATA    INT       irqn
      0001108BH   SYMBOL    XDATA    BYTE      priority

      ---         MODULE    ---      ---       zf_pwm
      00FF9B31H   PUBLIC    CODE     ---       pwm_duty
      00FFB5A2H   PUBLIC    CODE     ---       Motor_Init
      00FFA268H   PUBLIC    CODE     ---       Motor_Ctrl
      00FF7B20H   PUBLIC    CODE     ---       pwm_set_gpio
      00FF6EA4H   PUBLIC    CODE     ---       pwm_init
      00FFBE87H   PUBLIC    HCONST   ---       PWM_CCR_ADDR
      00FFBEA7H   PUBLIC    HCONST   ---       PWM_ARR_ADDR
      00FFBEAFH   PUBLIC    HCONST   ---       PWM_CCER_ADDR
      00FFBEBFH   PUBLIC    HCONST   ---       PWM_CCMR_ADDR
      00010B96H   PUBLIC    XDATA    BYTE      ?pwm_init?BYTE
      00010BAAH   PUBLIC    XDATA    BYTE      ?pwm_freq?BYTE
      000000D0H   SFRSYM    DATA     BYTE      PSW
      0000009DH   SFRSYM    DATA     BYTE      IRCBAND
      00000097H   SFRSYM    DATA     BYTE      AUXR2
      000000EFH   SFRSYM    DATA     BYTE      AUXINTIF
      000000FDH   SFRSYM    DATA     BYTE      S4CON
      000000ACH   SFRSYM    DATA     BYTE      S3CON
      0000009AH   SFRSYM    DATA     BYTE      S2CON
      000000B7H   SFRSYM    DATA     BYTE      IPH
      000000CDH   SFRSYM    DATA     BYTE      SPSTAT
      000000DDH   SFRSYM    DATA     BYTE      T4T3M
      000000C1H   SFRSYM    DATA     BYTE      WDT_CONTR
      000000DFH   SFRSYM    DATA     BYTE      IP3
      000000F4H   SFRSYM    DATA     BYTE      USBCON
      000000B5H   SFRSYM    DATA     BYTE      IP2
      000000FFH   SFRSYM    DATA     BYTE      RSTCFG
      000000F9H   SFRSYM    DATA     BYTE      LINICR
      0000008EH   SFRSYM    DATA     BYTE      AUXR
      000000AFH   SFRSYM    DATA     BYTE      IE2
      000000C0H.2 SFRSYM    DATA     BIT       P42
      00000088H   SFRSYM    DATA     BYTE      TCON
L251 LINKER/LOCATER V4.66.93.0                                                        06/23/2025  18:43:06  PAGE 46


      000000C0H.1 SFRSYM    DATA     BIT       P41
      00000098H   SFRSYM    DATA     BYTE      SCON
      000000F1H   SFRSYM    DATA     BYTE      CANICR
      00000087H   SFRSYM    DATA     BYTE      PCON
      000000BCH   SFRSYM    DATA     BYTE      ADC_CONTR
      000000E7H   SFRSYM    DATA     BYTE      CMPCR2
      000000E6H   SFRSYM    DATA     BYTE      CMPCR1
      000000B8H   SFRSYM    DATA     BYTE      IP
      0000008FH   SFRSYM    DATA     BYTE      INTCLKO
      000000EEH   SFRSYM    DATA     BYTE      IP3H
      000000B6H   SFRSYM    DATA     BYTE      IP2H
      000000A8H   SFRSYM    DATA     BYTE      IE
      000000BBH   SFRSYM    DATA     BYTE      P_SW3
      000000BAH   SFRSYM    DATA     BYTE      P_SW2
      000000A2H   SFRSYM    DATA     BYTE      P_SW1
      000000CEH   SFRSYM    DATA     BYTE      SPCTL
      000000F8H   SFRSYM    DATA     BYTE      P7
      000000E8H   SFRSYM    DATA     BYTE      P6
      000000C8H   SFRSYM    DATA     BYTE      P5
      000000C0H   SFRSYM    DATA     BYTE      P4
      000000B0H   SFRSYM    DATA     BYTE      P3
      000000A0H   SFRSYM    DATA     BYTE      P2
      00000090H   SFRSYM    DATA     BYTE      P1
      00000080H   SFRSYM    DATA     BYTE      P0

      00FF7B20H   BLOCK     CODE     ---       LVL=0
      000110B1H   SYMBOL    XDATA    INT       pwmch
      00FF7B20H   LINE      CODE     ---       #49
      00FF7B26H   LINE      CODE     ---       #51
      00FF7C9DH   LINE      CODE     ---       #53
      00FF7C9DH   LINE      CODE     ---       #55
      00FF7CA8H   LINE      CODE     ---       #56
      00FF7CABH   LINE      CODE     ---       #58
      00FF7CABH   LINE      CODE     ---       #60
      00FF7CB6H   LINE      CODE     ---       #61
      00FF7CB9H   LINE      CODE     ---       #63
      00FF7CB9H   LINE      CODE     ---       #65
      00FF7CC4H   LINE      CODE     ---       #66
      00FF7CC7H   LINE      CODE     ---       #68
      00FF7CC7H   LINE      CODE     ---       #70
      00FF7CD2H   LINE      CODE     ---       #71
      00FF7CD5H   LINE      CODE     ---       #73
      00FF7CD5H   LINE      CODE     ---       #75
      00FF7CE0H   LINE      CODE     ---       #76
      00FF7CE3H   LINE      CODE     ---       #78
      00FF7CE3H   LINE      CODE     ---       #80
      00FF7CEEH   LINE      CODE     ---       #81
      00FF7CF1H   LINE      CODE     ---       #84
      00FF7CF1H   LINE      CODE     ---       #86
      00FF7CFCH   LINE      CODE     ---       #87
      00FF7CFFH   LINE      CODE     ---       #89
      00FF7CFFH   LINE      CODE     ---       #91
      00FF7D0AH   LINE      CODE     ---       #92
      00FF7D0DH   LINE      CODE     ---       #94
      00FF7D0DH   LINE      CODE     ---       #96
      00FF7D18H   LINE      CODE     ---       #97
      00FF7D1BH   LINE      CODE     ---       #99
      00FF7D1BH   LINE      CODE     ---       #101
      00FF7D26H   LINE      CODE     ---       #102
      00FF7D29H   LINE      CODE     ---       #104
      00FF7D29H   LINE      CODE     ---       #106
      00FF7D34H   LINE      CODE     ---       #107
      00FF7D37H   LINE      CODE     ---       #109
      00FF7D37H   LINE      CODE     ---       #111
      00FF7D42H   LINE      CODE     ---       #112
L251 LINKER/LOCATER V4.66.93.0                                                        06/23/2025  18:43:06  PAGE 47


      00FF7D45H   LINE      CODE     ---       #115
      00FF7D45H   LINE      CODE     ---       #117
      00FF7D50H   LINE      CODE     ---       #118
      00FF7D53H   LINE      CODE     ---       #120
      00FF7D53H   LINE      CODE     ---       #122
      00FF7D5EH   LINE      CODE     ---       #123
      00FF7D61H   LINE      CODE     ---       #125
      00FF7D61H   LINE      CODE     ---       #127
      00FF7D6CH   LINE      CODE     ---       #128
      00FF7D6FH   LINE      CODE     ---       #130
      00FF7D6FH   LINE      CODE     ---       #132
      00FF7D7AH   LINE      CODE     ---       #133
      00FF7D7DH   LINE      CODE     ---       #135
      00FF7D7DH   LINE      CODE     ---       #137
      00FF7D88H   LINE      CODE     ---       #138
      00FF7D8BH   LINE      CODE     ---       #140
      00FF7D8BH   LINE      CODE     ---       #142
      00FF7D96H   LINE      CODE     ---       #143
      00FF7D99H   LINE      CODE     ---       #147
      00FF7D99H   LINE      CODE     ---       #149
      00FF7DA4H   LINE      CODE     ---       #150
      00FF7DA7H   LINE      CODE     ---       #152
      00FF7DA7H   LINE      CODE     ---       #154
      00FF7DB2H   LINE      CODE     ---       #155
      00FF7DB5H   LINE      CODE     ---       #157
      00FF7DB5H   LINE      CODE     ---       #159
      00FF7DC0H   LINE      CODE     ---       #160
      00FF7DC3H   LINE      CODE     ---       #162
      00FF7DC3H   LINE      CODE     ---       #164
      00FF7DCEH   LINE      CODE     ---       #165
      00FF7DD1H   LINE      CODE     ---       #167
      00FF7DD1H   LINE      CODE     ---       #169
      00FF7DDCH   LINE      CODE     ---       #170
      00FF7DDFH   LINE      CODE     ---       #172
      00FF7DDFH   LINE      CODE     ---       #174
      00FF7DEAH   LINE      CODE     ---       #175
      00FF7DEDH   LINE      CODE     ---       #177
      00FF7DEDH   LINE      CODE     ---       #179
      00FF7DF8H   LINE      CODE     ---       #180
      00FF7DFBH   LINE      CODE     ---       #182
      00FF7DFBH   LINE      CODE     ---       #184
      00FF7E06H   LINE      CODE     ---       #185
      00FF7E09H   LINE      CODE     ---       #189
      00FF7E09H   LINE      CODE     ---       #191
      00FF7E14H   LINE      CODE     ---       #192
      00FF7E17H   LINE      CODE     ---       #194
      00FF7E17H   LINE      CODE     ---       #196
      00FF7E22H   LINE      CODE     ---       #197
      00FF7E25H   LINE      CODE     ---       #199
      00FF7E25H   LINE      CODE     ---       #201
      00FF7E2EH   LINE      CODE     ---       #202
      00FF7E31H   LINE      CODE     ---       #204
      00FF7E31H   LINE      CODE     ---       #206
      00FF7E3CH   LINE      CODE     ---       #207
      00FF7E3FH   LINE      CODE     ---       #210
      00FF7E3FH   LINE      CODE     ---       #212
      00FF7E4AH   LINE      CODE     ---       #213
      00FF7E4DH   LINE      CODE     ---       #215
      00FF7E4DH   LINE      CODE     ---       #217
      00FF7E58H   LINE      CODE     ---       #218
      00FF7E5BH   LINE      CODE     ---       #220
      00FF7E5BH   LINE      CODE     ---       #222
      00FF7E66H   LINE      CODE     ---       #223
      00FF7E68H   LINE      CODE     ---       #225
      00FF7E68H   LINE      CODE     ---       #227
L251 LINKER/LOCATER V4.66.93.0                                                        06/23/2025  18:43:06  PAGE 48


      00FF7E73H   LINE      CODE     ---       #228
      00FF7E75H   LINE      CODE     ---       #232
      00FF7E75H   LINE      CODE     ---       #234
      00FF7E80H   LINE      CODE     ---       #235
      00FF7E82H   LINE      CODE     ---       #237
      00FF7E82H   LINE      CODE     ---       #239
      00FF7E8DH   LINE      CODE     ---       #240
      00FF7E8FH   LINE      CODE     ---       #242
      00FF7E8FH   LINE      CODE     ---       #244
      00FF7E9AH   LINE      CODE     ---       #245
      00FF7E9CH   LINE      CODE     ---       #247
      00FF7E9CH   LINE      CODE     ---       #249
      00FF7EA7H   LINE      CODE     ---       #250
      00FF7EA9H   LINE      CODE     ---       #254
      00FF7EA9H   LINE      CODE     ---       #256
      00FF7EB4H   LINE      CODE     ---       #257
      00FF7EB6H   LINE      CODE     ---       #259
      00FF7EB6H   LINE      CODE     ---       #261
      00FF7EC1H   LINE      CODE     ---       #262
      00FF7EC3H   LINE      CODE     ---       #264
      00FF7EC3H   LINE      CODE     ---       #266
      00FF7ECEH   LINE      CODE     ---       #267
      00FF7ED0H   LINE      CODE     ---       #269
      00FF7ED0H   LINE      CODE     ---       #271
      00FF7EDBH   LINE      CODE     ---       #272
      00FF7EDBH   LINE      CODE     ---       #275
      00FF7EDBH   LINE      CODE     ---       #277
      ---         BLOCKEND  ---      ---       LVL=0

      00FF6EA4H   BLOCK     CODE     ---       LVL=0
      00010B96H   SYMBOL    XDATA    INT       pwmch
      00010B98H   SYMBOL    XDATA    DWORD     freq
      00010B9CH   SYMBOL    XDATA    DWORD     duty
      00FF6EB4H   BLOCK     CODE     NEAR LAB  LVL=1
      00010BA0H   SYMBOL    XDATA    DWORD     match_temp
      00010BA4H   SYMBOL    XDATA    DWORD     period_temp
      00010BA8H   SYMBOL    XDATA    WORD      freq_div
      ---         BLOCKEND  ---      ---       LVL=1
      00FF6EA4H   LINE      CODE     ---       #290
      00FF6EB4H   LINE      CODE     ---       #291
      00FF6EB4H   LINE      CODE     ---       #295
      00FF6EBCH   LINE      CODE     ---       #298
      00FF6EBFH   LINE      CODE     ---       #301
      00FF6EC8H   LINE      CODE     ---       #305
      00FF6EE9H   LINE      CODE     ---       #306
      00FF6F0AH   LINE      CODE     ---       #307
      00FF6F33H   LINE      CODE     ---       #309
      00FF6F43H   LINE      CODE     ---       #311
      00FF6F7CH   LINE      CODE     ---       #312
      00FF6F7EH   LINE      CODE     ---       #315
      00FF6F98H   LINE      CODE     ---       #316
      00FF6F98H   LINE      CODE     ---       #319
      00FF6FA9H   LINE      CODE     ---       #322
      00FF6FDCH   LINE      CODE     ---       #323
      00FF7017H   LINE      CODE     ---       #326
      00FF706DH   LINE      CODE     ---       #329
      00FF7082H   LINE      CODE     ---       #330
      00FF7093H   LINE      CODE     ---       #332
      00FF70A0H   LINE      CODE     ---       #333
      00FF70ADH   LINE      CODE     ---       #334
      00FF70B0H   LINE      CODE     ---       #337
      00FF70F2H   LINE      CODE     ---       #338
      00FF7129H   LINE      CODE     ---       #341
      00FF718FH   LINE      CODE     ---       #345
      00FF71A4H   LINE      CODE     ---       #346
L251 LINKER/LOCATER V4.66.93.0                                                        06/23/2025  18:43:06  PAGE 49


      00FF71B5H   LINE      CODE     ---       #348
      00FF71C2H   LINE      CODE     ---       #349
      00FF71CFH   LINE      CODE     ---       #350
      00FF71CFH   LINE      CODE     ---       #353
      00FF7209H   LINE      CODE     ---       #354
      00FF7249H   LINE      CODE     ---       #357
      00FF727FH   LINE      CODE     ---       #358
      00FF72BBH   LINE      CODE     ---       #361
      00FF72EEH   LINE      CODE     ---       #362
      00FF7321H   LINE      CODE     ---       #367
      ---         BLOCKEND  ---      ---       LVL=0

      00FF9B31H   BLOCK     CODE     ---       LVL=0
      00010CBBH   SYMBOL    XDATA    INT       pwmch
      00010CBDH   SYMBOL    XDATA    DWORD     duty
      00FF9B41H   BLOCK     CODE     NEAR LAB  LVL=1
      00010CC1H   SYMBOL    XDATA    DWORD     match_temp
      00010CC5H   SYMBOL    XDATA    DWORD     arr
      ---         BLOCKEND  ---      ---       LVL=1
      00FF9B31H   LINE      CODE     ---       #377
      00FF9B41H   LINE      CODE     ---       #378
      00FF9B41H   LINE      CODE     ---       #380
      00FF9BBBH   LINE      CODE     ---       #384
      00FF9BCBH   LINE      CODE     ---       #386
      00FF9C04H   LINE      CODE     ---       #387
      00FF9C06H   LINE      CODE     ---       #390
      00FF9C20H   LINE      CODE     ---       #391
      00FF9C20H   LINE      CODE     ---       #396
      00FF9C56H   LINE      CODE     ---       #397
      00FF9C92H   LINE      CODE     ---       #401
      ---         BLOCKEND  ---      ---       LVL=0
      00010BAAH   SYMBOL    XDATA    INT       pwmch
      00010BACH   SYMBOL    XDATA    DWORD     freq
      00010BB0H   SYMBOL    XDATA    DWORD     duty
      00010BB4H   SYMBOL    XDATA    DWORD     match_temp
      00010BB8H   SYMBOL    XDATA    DWORD     period_temp
      00010BBCH   SYMBOL    XDATA    WORD      freq_div

      00FFA268H   BLOCK     CODE     ---       LVL=0
      00011055H   SYMBOL    XDATA    INT       motor1
      00011057H   SYMBOL    XDATA    INT       motor2
      00FFA268H   LINE      CODE     ---       #473
      00FFA274H   LINE      CODE     ---       #475
      00FFA280H   LINE      CODE     ---       #477
      00FFA28EH   LINE      CODE     ---       #479
      00FFA298H   LINE      CODE     ---       #480
      00FFA298H   LINE      CODE     ---       #481
      00FFA2A9H   LINE      CODE     ---       #482
      00FFA2ACH   LINE      CODE     ---       #484
      00FFA2AEH   LINE      CODE     ---       #487
      00FFA2BCH   LINE      CODE     ---       #489
      00FFA2C6H   LINE      CODE     ---       #490
      00FFA2C6H   LINE      CODE     ---       #491
      00FFA2E1H   LINE      CODE     ---       #492
      00FFA2E4H   LINE      CODE     ---       #493
      00FFA2E4H   LINE      CODE     ---       #495
      00FFA2F0H   LINE      CODE     ---       #497
      00FFA2FEH   LINE      CODE     ---       #499
      00FFA308H   LINE      CODE     ---       #500
      00FFA308H   LINE      CODE     ---       #501
      00FFA319H   LINE      CODE     ---       #502
      00FFA31CH   LINE      CODE     ---       #503
      00FFA31EH   LINE      CODE     ---       #506
      00FFA32CH   LINE      CODE     ---       #508
      00FFA336H   LINE      CODE     ---       #509
L251 LINKER/LOCATER V4.66.93.0                                                        06/23/2025  18:43:06  PAGE 50


      00FFA336H   LINE      CODE     ---       #510
      00FFA351H   LINE      CODE     ---       #511
      00FFA354H   LINE      CODE     ---       #512
      00FFA354H   LINE      CODE     ---       #513
      ---         BLOCKEND  ---      ---       LVL=0

      00FFB5A2H   BLOCK     CODE     ---       LVL=0
      00FFB5A2H   LINE      CODE     ---       #524
      00FFB5A2H   LINE      CODE     ---       #526
      00FFB5B9H   LINE      CODE     ---       #527
      00FFB5D0H   LINE      CODE     ---       #529
      00FFB5DBH   LINE      CODE     ---       #530
      00FFB5E6H   LINE      CODE     ---       #531
      ---         BLOCKEND  ---      ---       LVL=0

      ---         MODULE    ---      ---       zf_spi
      00FFA52BH   PUBLIC    CODE     ---       spi_init
      00FF0066H   PUBLIC    CODE     ---       spi_mosi
      00010D1DH   PUBLIC    XDATA    BYTE      ?spi_init?BYTE
      000000CFH   SFRSYM    DATA     BYTE      SPDAT
      000000D0H   SFRSYM    DATA     BYTE      PSW
      0000009DH   SFRSYM    DATA     BYTE      IRCBAND
      00000097H   SFRSYM    DATA     BYTE      AUXR2
      000000EFH   SFRSYM    DATA     BYTE      AUXINTIF
      000000FDH   SFRSYM    DATA     BYTE      S4CON
      000000ACH   SFRSYM    DATA     BYTE      S3CON
      0000009AH   SFRSYM    DATA     BYTE      S2CON
      000000B7H   SFRSYM    DATA     BYTE      IPH
      000000CDH   SFRSYM    DATA     BYTE      SPSTAT
      000000DDH   SFRSYM    DATA     BYTE      T4T3M
      000000C1H   SFRSYM    DATA     BYTE      WDT_CONTR
      000000DFH   SFRSYM    DATA     BYTE      IP3
      000000F4H   SFRSYM    DATA     BYTE      USBCON
      000000B5H   SFRSYM    DATA     BYTE      IP2
      000000FFH   SFRSYM    DATA     BYTE      RSTCFG
      000000F9H   SFRSYM    DATA     BYTE      LINICR
      0000008EH   SFRSYM    DATA     BYTE      AUXR
      000000AFH   SFRSYM    DATA     BYTE      IE2
      00000088H   SFRSYM    DATA     BYTE      TCON
      00000098H   SFRSYM    DATA     BYTE      SCON
      000000F1H   SFRSYM    DATA     BYTE      CANICR
      00000087H   SFRSYM    DATA     BYTE      PCON
      000000BCH   SFRSYM    DATA     BYTE      ADC_CONTR
      000000E7H   SFRSYM    DATA     BYTE      CMPCR2
      000000E6H   SFRSYM    DATA     BYTE      CMPCR1
      000000B8H   SFRSYM    DATA     BYTE      IP
      0000008FH   SFRSYM    DATA     BYTE      INTCLKO
      000000EEH   SFRSYM    DATA     BYTE      IP3H
      000000B6H   SFRSYM    DATA     BYTE      IP2H
      000000A8H   SFRSYM    DATA     BYTE      IE
      000000BBH   SFRSYM    DATA     BYTE      P_SW3
      000000BAH   SFRSYM    DATA     BYTE      P_SW2
      000000A2H   SFRSYM    DATA     BYTE      P_SW1
      000000CEH   SFRSYM    DATA     BYTE      SPCTL
      000000F8H   SFRSYM    DATA     BYTE      P7
      000000E8H   SFRSYM    DATA     BYTE      P6
      000000C8H   SFRSYM    DATA     BYTE      P5
      000000C0H   SFRSYM    DATA     BYTE      P4
      000000B0H   SFRSYM    DATA     BYTE      P3
      000000A0H   SFRSYM    DATA     BYTE      P2
      00000090H   SFRSYM    DATA     BYTE      P1
      00000080H   SFRSYM    DATA     BYTE      P0

      00FFA52BH   BLOCK     CODE     ---       LVL=0
      00010D1DH   SYMBOL    XDATA    INT       spi_n
L251 LINKER/LOCATER V4.66.93.0                                                        06/23/2025  18:43:06  PAGE 51


      00010D1FH   SYMBOL    XDATA    INT       sck_pin
      00010D21H   SYMBOL    XDATA    INT       mosi_pin
      00010D23H   SYMBOL    XDATA    INT       miso_pin
      00010D25H   SYMBOL    XDATA    BYTE      mode
      00010D26H   SYMBOL    XDATA    INT       mstr
      00010D28H   SYMBOL    XDATA    INT       baud
      00FFA52BH   LINE      CODE     ---       #39
      00FFA547H   LINE      CODE     ---       #48
      00FFA555H   LINE      CODE     ---       #50
      00FFA566H   LINE      CODE     ---       #51
      00FFA566H   LINE      CODE     ---       #53
      00FFA574H   LINE      CODE     ---       #55
      00FFA585H   LINE      CODE     ---       #56
      00FFA585H   LINE      CODE     ---       #58
      00FFA593H   LINE      CODE     ---       #60
      00FFA5A4H   LINE      CODE     ---       #61
      00FFA5A4H   LINE      CODE     ---       #64
      00FFA5A7H   LINE      CODE     ---       #65
      00FFA5BFH   LINE      CODE     ---       #67
      00FFA5BFH   LINE      CODE     ---       #68
      00FFA5C3H   LINE      CODE     ---       #69
      00FFA5C5H   LINE      CODE     ---       #70
      00FFA5C5H   LINE      CODE     ---       #71
      00FFA5C8H   LINE      CODE     ---       #72
      00FFA5CAH   LINE      CODE     ---       #73
      00FFA5CAH   LINE      CODE     ---       #74
      00FFA5CDH   LINE      CODE     ---       #75
      00FFA5CFH   LINE      CODE     ---       #76
      00FFA5CFH   LINE      CODE     ---       #77
      00FFA5D2H   LINE      CODE     ---       #78
      00FFA5D2H   LINE      CODE     ---       #79
      00FFA5D2H   LINE      CODE     ---       #81
      00FFA5D5H   LINE      CODE     ---       #82
      00FFA5E4H   LINE      CODE     ---       #84
      00FFA5E4H   LINE      CODE     ---       #86
      00FFA5E6H   LINE      CODE     ---       #87
      00FFA5E6H   LINE      CODE     ---       #88
      00FFA5E9H   LINE      CODE     ---       #89
      00FFA5EBH   LINE      CODE     ---       #90
      00FFA5EBH   LINE      CODE     ---       #91
      00FFA5EEH   LINE      CODE     ---       #92
      00FFA5F0H   LINE      CODE     ---       #93
      00FFA5F0H   LINE      CODE     ---       #94
      00FFA5F3H   LINE      CODE     ---       #95
      00FFA5F3H   LINE      CODE     ---       #96
      00FFA5F3H   LINE      CODE     ---       #99
      00FFA5FDH   LINE      CODE     ---       #101
      00FFA609H   LINE      CODE     ---       #103
      00FFA60CH   LINE      CODE     ---       #104
      00FFA60FH   LINE      CODE     ---       #105
      00FFA60FH   LINE      CODE     ---       #109
      00FFA60FH   LINE      CODE     ---       #110
      00FFA612H   LINE      CODE     ---       #111
      ---         BLOCKEND  ---      ---       LVL=0

      00FF0066H   BLOCK     CODE     ---       LVL=0
      000110F7H   SYMBOL    XDATA    BYTE      dat
      00FF0066H   LINE      CODE     ---       #121
      00FF006AH   LINE      CODE     ---       #123
      00FF0070H   LINE      CODE     ---       #124
      00FF0075H   LINE      CODE     ---       #125
      00FF0079H   LINE      CODE     ---       #126
      00FF007BH   LINE      CODE     ---       #127
      ---         BLOCKEND  ---      ---       LVL=0
      000110B3H   SYMBOL    XDATA    INT       spi_n
L251 LINKER/LOCATER V4.66.93.0                                                        06/23/2025  18:43:06  PAGE 52


      000110F8H   SYMBOL    XDATA    BYTE      mode

      ---         MODULE    ---      ---       zf_tim
      00FFB6DDH   PUBLIC    CODE     ---       get_right_encoder
      00FFAB0EH   PUBLIC    CODE     ---       encoder_debounce
      00FFA7D9H   PUBLIC    CODE     ---       ctimer_count_read
      00FFB716H   PUBLIC    CODE     ---       get_left_encoder
      00FFA05EH   PUBLIC    CODE     ---       pit_timer_ms
      00FFB2AFH   PUBLIC    CODE     ---       ctimer_count_init
      00FFB7F2H   PUBLIC    CODE     ---       Encoder_Init
      00FFB12EH   PUBLIC    CODE     ---       ctimer_count_clean
      00010B08H   PUBLIC    XDATA    INT       g_EncoderRight
      00010B0AH   PUBLIC    XDATA    ---       EncoderL
      00010B0EH   PUBLIC    XDATA    ---       EncoderR
      00010B12H   PUBLIC    XDATA    INT       g_EncoderLeft
      00010B14H   PUBLIC    XDATA    INT       g_encoright_init
      00010B16H   PUBLIC    XDATA    INT       g_encoleft_init
      00010B18H   PUBLIC    XDATA    INT       g_intencoderL
      00010B1AH   PUBLIC    XDATA    INT       g_intencoderR
      00010B1CH   PUBLIC    XDATA    INT       g_EncoderAverage
      00010B1EH   PUBLIC    XDATA    INT       g_intencoderALL
      000000D0H   SFRSYM    DATA     BYTE      PSW
      0000009DH   SFRSYM    DATA     BYTE      IRCBAND
      00000097H   SFRSYM    DATA     BYTE      AUXR2
      000000EFH   SFRSYM    DATA     BYTE      AUXINTIF
      000000FDH   SFRSYM    DATA     BYTE      S4CON
      000000ACH   SFRSYM    DATA     BYTE      S3CON
      0000009AH   SFRSYM    DATA     BYTE      S2CON
      000000B7H   SFRSYM    DATA     BYTE      IPH
      000000CDH   SFRSYM    DATA     BYTE      SPSTAT
      000000DDH   SFRSYM    DATA     BYTE      T4T3M
      000000C1H   SFRSYM    DATA     BYTE      WDT_CONTR
      00000088H.6 SFRSYM    DATA     BIT       TR1
      00000088H.4 SFRSYM    DATA     BIT       TR0
      000000D3H   SFRSYM    DATA     BYTE      T4L
      000000D5H   SFRSYM    DATA     BYTE      T3L
      000000D7H   SFRSYM    DATA     BYTE      T2L
      0000008BH   SFRSYM    DATA     BYTE      TL1
      0000008AH   SFRSYM    DATA     BYTE      TL0
      000000D2H   SFRSYM    DATA     BYTE      T4H
      000000D4H   SFRSYM    DATA     BYTE      T3H
      000000D6H   SFRSYM    DATA     BYTE      T2H
      0000008DH   SFRSYM    DATA     BYTE      TH1
      0000008CH   SFRSYM    DATA     BYTE      TH0
      000000DFH   SFRSYM    DATA     BYTE      IP3
      000000F4H   SFRSYM    DATA     BYTE      USBCON
      000000B5H   SFRSYM    DATA     BYTE      IP2
      000000FFH   SFRSYM    DATA     BYTE      RSTCFG
      000000A8H.3 SFRSYM    DATA     BIT       ET1
      000000A8H.1 SFRSYM    DATA     BIT       ET0
      000000F9H   SFRSYM    DATA     BYTE      LINICR
      0000008EH   SFRSYM    DATA     BYTE      AUXR
      000000AFH   SFRSYM    DATA     BYTE      IE2
      000000F8H.7 SFRSYM    DATA     BIT       P77
      000000C0H.6 SFRSYM    DATA     BIT       P46
      00000088H   SFRSYM    DATA     BYTE      TCON
      00000089H   SFRSYM    DATA     BYTE      TMOD
      00000098H   SFRSYM    DATA     BYTE      SCON
      000000F1H   SFRSYM    DATA     BYTE      CANICR
      00000087H   SFRSYM    DATA     BYTE      PCON
      000000BCH   SFRSYM    DATA     BYTE      ADC_CONTR
      000000E7H   SFRSYM    DATA     BYTE      CMPCR2
      000000E6H   SFRSYM    DATA     BYTE      CMPCR1
      000000B8H   SFRSYM    DATA     BYTE      IP
      0000008FH   SFRSYM    DATA     BYTE      INTCLKO
L251 LINKER/LOCATER V4.66.93.0                                                        06/23/2025  18:43:06  PAGE 53


      000000EEH   SFRSYM    DATA     BYTE      IP3H
      000000B6H   SFRSYM    DATA     BYTE      IP2H
      000000A8H   SFRSYM    DATA     BYTE      IE
      000000BBH   SFRSYM    DATA     BYTE      P_SW3
      000000BAH   SFRSYM    DATA     BYTE      P_SW2
      000000A2H   SFRSYM    DATA     BYTE      P_SW1
      000000CEH   SFRSYM    DATA     BYTE      SPCTL
      000000F8H   SFRSYM    DATA     BYTE      P7
      000000E8H   SFRSYM    DATA     BYTE      P6
      000000C8H   SFRSYM    DATA     BYTE      P5
      000000C0H   SFRSYM    DATA     BYTE      P4
      000000B0H   SFRSYM    DATA     BYTE      P3
      000000A0H   SFRSYM    DATA     BYTE      P2
      00000090H   SFRSYM    DATA     BYTE      P1
      00000080H   SFRSYM    DATA     BYTE      P0
      00FFB821H   SYMBOL    CODE     ---       I_abs

      00FFB2AFH   BLOCK     CODE     ---       LVL=0
      000110B5H   SYMBOL    XDATA    INT       tim_n
      00FFB2AFH   LINE      CODE     ---       #38
      00FFB2B5H   LINE      CODE     ---       #41
      00FFB2CFH   LINE      CODE     ---       #43
      00FFB2CFH   LINE      CODE     ---       #45
      00FFB2D2H   LINE      CODE     ---       #46
      00FFB2D5H   LINE      CODE     ---       #47
      00FFB2D8H   LINE      CODE     ---       #48
      00FFB2DBH   LINE      CODE     ---       #49
      00FFB2DDH   LINE      CODE     ---       #52
      00FFB2DDH   LINE      CODE     ---       #54
      00FFB2E0H   LINE      CODE     ---       #55
      00FFB2E3H   LINE      CODE     ---       #56
      00FFB2E6H   LINE      CODE     ---       #57
      00FFB2E9H   LINE      CODE     ---       #58
      00FFB2EBH   LINE      CODE     ---       #61
      00FFB2EBH   LINE      CODE     ---       #63
      00FFB2EEH   LINE      CODE     ---       #64
      00FFB2F1H   LINE      CODE     ---       #65
      00FFB2F4H   LINE      CODE     ---       #66
      00FFB2F6H   LINE      CODE     ---       #69
      00FFB2F6H   LINE      CODE     ---       #71
      00FFB2F9H   LINE      CODE     ---       #72
      00FFB2FCH   LINE      CODE     ---       #73
      00FFB2FFH   LINE      CODE     ---       #74
      00FFB301H   LINE      CODE     ---       #77
      00FFB301H   LINE      CODE     ---       #79
      00FFB304H   LINE      CODE     ---       #80
      00FFB307H   LINE      CODE     ---       #81
      00FFB30AH   LINE      CODE     ---       #82
      00FFB30AH   LINE      CODE     ---       #85
      00FFB30AH   LINE      CODE     ---       #86
      ---         BLOCKEND  ---      ---       LVL=0

      00FFA7D9H   BLOCK     CODE     ---       LVL=0
      00011059H   SYMBOL    XDATA    INT       tim_n
      00FFA7DFH   BLOCK     CODE     NEAR LAB  LVL=1
      0001105BH   SYMBOL    XDATA    WORD      dat
      ---         BLOCKEND  ---      ---       LVL=1
      00FFA7D9H   LINE      CODE     ---       #94
      00FFA7DFH   LINE      CODE     ---       #95
      00FFA7DFH   LINE      CODE     ---       #96
      00FFA7E7H   LINE      CODE     ---       #98
      00FFA807H   LINE      CODE     ---       #100
      00FFA807H   LINE      CODE     ---       #102
      00FFA815H   LINE      CODE     ---       #103
      00FFA827H   LINE      CODE     ---       #104
L251 LINKER/LOCATER V4.66.93.0                                                        06/23/2025  18:43:06  PAGE 54


      00FFA82AH   LINE      CODE     ---       #106
      00FFA82AH   LINE      CODE     ---       #108
      00FFA838H   LINE      CODE     ---       #109
      00FFA84AH   LINE      CODE     ---       #110
      00FFA84CH   LINE      CODE     ---       #112
      00FFA84CH   LINE      CODE     ---       #114
      00FFA85AH   LINE      CODE     ---       #115
      00FFA86CH   LINE      CODE     ---       #116
      00FFA86EH   LINE      CODE     ---       #118
      00FFA86EH   LINE      CODE     ---       #120
      00FFA87CH   LINE      CODE     ---       #121
      00FFA88EH   LINE      CODE     ---       #122
      00FFA890H   LINE      CODE     ---       #124
      00FFA890H   LINE      CODE     ---       #126
      00FFA89EH   LINE      CODE     ---       #127
      00FFA8B0H   LINE      CODE     ---       #128
      00FFA8B0H   LINE      CODE     ---       #131
      00FFA8B0H   LINE      CODE     ---       #132
      00FFA8B6H   LINE      CODE     ---       #133
      ---         BLOCKEND  ---      ---       LVL=0

      00FFB12EH   BLOCK     CODE     ---       LVL=0
      000110B7H   SYMBOL    XDATA    INT       tim_n
      00FFB12EH   LINE      CODE     ---       #142
      00FFB134H   LINE      CODE     ---       #144
      00FFB14EH   LINE      CODE     ---       #146
      00FFB14EH   LINE      CODE     ---       #148
      00FFB151H   LINE      CODE     ---       #149
      00FFB154H   LINE      CODE     ---       #150
      00FFB157H   LINE      CODE     ---       #151
      00FFB15AH   LINE      CODE     ---       #152
      00FFB15CH   LINE      CODE     ---       #154
      00FFB15CH   LINE      CODE     ---       #156
      00FFB15FH   LINE      CODE     ---       #157
      00FFB162H   LINE      CODE     ---       #158
      00FFB165H   LINE      CODE     ---       #159
      00FFB168H   LINE      CODE     ---       #160
      00FFB16AH   LINE      CODE     ---       #162
      00FFB16AH   LINE      CODE     ---       #164
      00FFB16DH   LINE      CODE     ---       #165
      00FFB170H   LINE      CODE     ---       #166
      00FFB173H   LINE      CODE     ---       #167
      00FFB176H   LINE      CODE     ---       #168
      00FFB178H   LINE      CODE     ---       #170
      00FFB178H   LINE      CODE     ---       #172
      00FFB17BH   LINE      CODE     ---       #173
      00FFB17EH   LINE      CODE     ---       #174
      00FFB181H   LINE      CODE     ---       #175
      00FFB184H   LINE      CODE     ---       #176
      00FFB186H   LINE      CODE     ---       #178
      00FFB186H   LINE      CODE     ---       #180
      00FFB189H   LINE      CODE     ---       #181
      00FFB18CH   LINE      CODE     ---       #182
      00FFB18FH   LINE      CODE     ---       #183
      00FFB192H   LINE      CODE     ---       #184
      00FFB192H   LINE      CODE     ---       #186
      00FFB192H   LINE      CODE     ---       #187
      ---         BLOCKEND  ---      ---       LVL=0

      00FFA05EH   BLOCK     CODE     ---       LVL=0
      00010F66H   SYMBOL    XDATA    INT       tim_n
      00010F68H   SYMBOL    XDATA    WORD      time_ms
      00FFA06AH   BLOCK     CODE     NEAR LAB  LVL=1
      00010F6AH   SYMBOL    XDATA    WORD      temp
      ---         BLOCKEND  ---      ---       LVL=1
L251 LINKER/LOCATER V4.66.93.0                                                        06/23/2025  18:43:06  PAGE 55


      00FFA05EH   LINE      CODE     ---       #197
      00FFA06AH   LINE      CODE     ---       #198
      00FFA06AH   LINE      CODE     ---       #200
      00FFA097H   LINE      CODE     ---       #202
      00FFA0A3H   LINE      CODE     ---       #204
      00FFA0A7H   LINE      CODE     ---       #205
      00FFA0AFH   LINE      CODE     ---       #206
      00FFA0BBH   LINE      CODE     ---       #207
      00FFA0BEH   LINE      CODE     ---       #208
      00FFA0C1H   LINE      CODE     ---       #209
      00FFA0C4H   LINE      CODE     ---       #210
      00FFA0D2H   LINE      CODE     ---       #212
      00FFA0D6H   LINE      CODE     ---       #213
      00FFA0DEH   LINE      CODE     ---       #214
      00FFA0EAH   LINE      CODE     ---       #215
      00FFA0EDH   LINE      CODE     ---       #216
      00FFA0F0H   LINE      CODE     ---       #218
      00FFA0F2H   LINE      CODE     ---       #219
      00FFA100H   LINE      CODE     ---       #221
      00FFA108H   LINE      CODE     ---       #222
      00FFA114H   LINE      CODE     ---       #223
      00FFA117H   LINE      CODE     ---       #224
      00FFA11AH   LINE      CODE     ---       #225
      00FFA11CH   LINE      CODE     ---       #226
      00FFA12AH   LINE      CODE     ---       #228
      00FFA132H   LINE      CODE     ---       #229
      00FFA13EH   LINE      CODE     ---       #230
      00FFA141H   LINE      CODE     ---       #231
      00FFA144H   LINE      CODE     ---       #233
      00FFA146H   LINE      CODE     ---       #234
      00FFA154H   LINE      CODE     ---       #236
      00FFA15CH   LINE      CODE     ---       #237
      00FFA168H   LINE      CODE     ---       #238
      00FFA16BH   LINE      CODE     ---       #239
      00FFA16EH   LINE      CODE     ---       #240
      ---         BLOCKEND  ---      ---       LVL=0

      00FFB821H   BLOCK     CODE     ---       LVL=0
      000110B9H   SYMBOL    XDATA    INT       num
      00FFB821H   LINE      CODE     ---       #250
      00FFB827H   LINE      CODE     ---       #252
      00FFB847H   LINE      CODE     ---       #253
      ---         BLOCKEND  ---      ---       LVL=0

      00FFB7F2H   BLOCK     CODE     ---       LVL=0
      00FFB7F2H   LINE      CODE     ---       #255
      00FFB7F2H   LINE      CODE     ---       #257
      00FFB7F9H   LINE      CODE     ---       #258
      00FFB800H   LINE      CODE     ---       #260
      00FFB808H   LINE      CODE     ---       #261
      00FFB810H   LINE      CODE     ---       #263
      00FFB818H   LINE      CODE     ---       #264
      00FFB820H   LINE      CODE     ---       #265
      ---         BLOCKEND  ---      ---       LVL=0

      00FFB716H   BLOCK     CODE     ---       LVL=0
      000110BBH   SYMBOL    XDATA    INT       encoder_left
      00FFB716H   LINE      CODE     ---       #267
      00FFB716H   LINE      CODE     ---       #268
      00FFB716H   LINE      CODE     ---       #271
      00FFB71FH   LINE      CODE     ---       #273
      00FFB72CH   LINE      CODE     ---       #274
      00FFB72EH   LINE      CODE     ---       #277
      00FFB741H   LINE      CODE     ---       #278
      00FFB741H   LINE      CODE     ---       #280
L251 LINKER/LOCATER V4.66.93.0                                                        06/23/2025  18:43:06  PAGE 56


      00FFB746H   LINE      CODE     ---       #282
      00FFB74CH   LINE      CODE     ---       #283
      ---         BLOCKEND  ---      ---       LVL=0

      00FFB6DDH   BLOCK     CODE     ---       LVL=0
      000110BDH   SYMBOL    XDATA    INT       encoder_right
      00FFB6DDH   LINE      CODE     ---       #285
      00FFB6DDH   LINE      CODE     ---       #286
      00FFB6DDH   LINE      CODE     ---       #289
      00FFB6E6H   LINE      CODE     ---       #291
      00FFB6F9H   LINE      CODE     ---       #292
      00FFB6FBH   LINE      CODE     ---       #295
      00FFB708H   LINE      CODE     ---       #296
      00FFB708H   LINE      CODE     ---       #298
      00FFB70FH   LINE      CODE     ---       #300
      00FFB715H   LINE      CODE     ---       #301
      ---         BLOCKEND  ---      ---       LVL=0

      00FFAB0EH   BLOCK     CODE     ---       LVL=0
      00010F6CH   SYMBOL    XDATA    ---       instance
      00010F70H   SYMBOL    XDATA    INT       encoder
      00FFAB0EH   LINE      CODE     ---       #304
      00FFAB1EH   LINE      CODE     ---       #307
      00FFAB55H   LINE      CODE     ---       #310
      00FFAB6AH   LINE      CODE     ---       #311
      00FFAB79H   LINE      CODE     ---       #312
      00FFAB7BH   LINE      CODE     ---       #316
      00FFAB90H   LINE      CODE     ---       #319
      00FFABA6H   LINE      CODE     ---       #320
      00FFABBBH   LINE      CODE     ---       #322
      00FFABCAH   LINE      CODE     ---       #323
      00FFABCAH   LINE      CODE     ---       #326
      00FFABD0H   LINE      CODE     ---       #327
      ---         BLOCKEND  ---      ---       LVL=0

      ---         MODULE    ---      ---       zf_uart
      00FF8259H   PUBLIC    CODE     ---       uart_init
      00011008H   PUBLIC    XDATA    ---       busy
      00010CC9H   PUBLIC    XDATA    BYTE      ?uart_init?BYTE
      00010DEFH   PUBLIC    XDATA    BYTE      ?uart_putbuff?BYTE
      000000D0H   SFRSYM    DATA     BYTE      PSW
      0000009DH   SFRSYM    DATA     BYTE      IRCBAND
      00000097H   SFRSYM    DATA     BYTE      AUXR2
      000000EFH   SFRSYM    DATA     BYTE      AUXINTIF
      000000FDH   SFRSYM    DATA     BYTE      S4CON
      000000ACH   SFRSYM    DATA     BYTE      S3CON
      0000009AH   SFRSYM    DATA     BYTE      S2CON
      000000FEH   SFRSYM    DATA     BYTE      S4BUF
      000000ADH   SFRSYM    DATA     BYTE      S3BUF
      0000009BH   SFRSYM    DATA     BYTE      S2BUF
      000000B7H   SFRSYM    DATA     BYTE      IPH
      000000CDH   SFRSYM    DATA     BYTE      SPSTAT
      000000DDH   SFRSYM    DATA     BYTE      T4T3M
      000000C1H   SFRSYM    DATA     BYTE      WDT_CONTR
      00000088H.6 SFRSYM    DATA     BIT       TR1
      000000D3H   SFRSYM    DATA     BYTE      T4L
      000000D5H   SFRSYM    DATA     BYTE      T3L
      000000D7H   SFRSYM    DATA     BYTE      T2L
      0000008BH   SFRSYM    DATA     BYTE      TL1
      000000D2H   SFRSYM    DATA     BYTE      T4H
      000000D4H   SFRSYM    DATA     BYTE      T3H
      000000D6H   SFRSYM    DATA     BYTE      T2H
      0000008DH   SFRSYM    DATA     BYTE      TH1
      000000DFH   SFRSYM    DATA     BYTE      IP3
      000000F4H   SFRSYM    DATA     BYTE      USBCON
L251 LINKER/LOCATER V4.66.93.0                                                        06/23/2025  18:43:06  PAGE 57


      000000B5H   SFRSYM    DATA     BYTE      IP2
      000000FFH   SFRSYM    DATA     BYTE      RSTCFG
      000000F9H   SFRSYM    DATA     BYTE      LINICR
      0000008EH   SFRSYM    DATA     BYTE      AUXR
      000000AFH   SFRSYM    DATA     BYTE      IE2
      00000088H   SFRSYM    DATA     BYTE      TCON
      00000089H   SFRSYM    DATA     BYTE      TMOD
      00000098H   SFRSYM    DATA     BYTE      SCON
      000000F1H   SFRSYM    DATA     BYTE      CANICR
      00000087H   SFRSYM    DATA     BYTE      PCON
      00000099H   SFRSYM    DATA     BYTE      SBUF
      000000BCH   SFRSYM    DATA     BYTE      ADC_CONTR
      000000E7H   SFRSYM    DATA     BYTE      CMPCR2
      000000E6H   SFRSYM    DATA     BYTE      CMPCR1
      000000B8H   SFRSYM    DATA     BYTE      IP
      000000A8H.4 SFRSYM    DATA     BIT       ES
      0000008FH   SFRSYM    DATA     BYTE      INTCLKO
      000000EEH   SFRSYM    DATA     BYTE      IP3H
      000000B6H   SFRSYM    DATA     BYTE      IP2H
      000000A8H   SFRSYM    DATA     BYTE      IE
      000000BBH   SFRSYM    DATA     BYTE      P_SW3
      000000BAH   SFRSYM    DATA     BYTE      P_SW2
      000000A2H   SFRSYM    DATA     BYTE      P_SW1
      000000CEH   SFRSYM    DATA     BYTE      SPCTL
      000000F8H   SFRSYM    DATA     BYTE      P7
      000000E8H   SFRSYM    DATA     BYTE      P6
      000000C8H   SFRSYM    DATA     BYTE      P5
      000000C0H   SFRSYM    DATA     BYTE      P4
      000000C9H   SFRSYM    DATA     BYTE      P5M1
      000000B0H   SFRSYM    DATA     BYTE      P3
      000000CAH   SFRSYM    DATA     BYTE      P5M0
      000000A0H   SFRSYM    DATA     BYTE      P2
      00000090H   SFRSYM    DATA     BYTE      P1
      00000080H   SFRSYM    DATA     BYTE      P0

      00FF8259H   BLOCK     CODE     ---       LVL=0
      00010CC9H   SYMBOL    XDATA    INT       uart_n
      00010CCBH   SYMBOL    XDATA    INT       uart_rx_pin
      00010CCDH   SYMBOL    XDATA    INT       uart_tx_pin
      00010CCFH   SYMBOL    XDATA    DWORD     baud
      00010CD3H   SYMBOL    XDATA    INT       tim_n
      00FF8271H   BLOCK     CODE     NEAR LAB  LVL=1
      00010CD5H   SYMBOL    XDATA    WORD      brt
      ---         BLOCKEND  ---      ---       LVL=1
      00FF8259H   LINE      CODE     ---       #42
      00FF8271H   LINE      CODE     ---       #43
      00FF8271H   LINE      CODE     ---       #46
      00FF82A6H   LINE      CODE     ---       #49
      00FF82CAH   LINE      CODE     ---       #51
      00FF82CAH   LINE      CODE     ---       #53
      00FF82D8H   LINE      CODE     ---       #55
      00FF82DBH   LINE      CODE     ---       #56
      00FF82DFH   LINE      CODE     ---       #57
      00FF82E7H   LINE      CODE     ---       #58
      00FF82F3H   LINE      CODE     ---       #59
      00FF82F6H   LINE      CODE     ---       #60
      00FF82F9H   LINE      CODE     ---       #61
      00FF82FEH   LINE      CODE     ---       #62
      00FF8300H   LINE      CODE     ---       #63
      00FF830EH   LINE      CODE     ---       #65
      00FF8311H   LINE      CODE     ---       #66
      00FF8319H   LINE      CODE     ---       #67
      00FF8325H   LINE      CODE     ---       #68
      00FF8328H   LINE      CODE     ---       #69
      00FF8328H   LINE      CODE     ---       #70
L251 LINKER/LOCATER V4.66.93.0                                                        06/23/2025  18:43:06  PAGE 58


      00FF832BH   LINE      CODE     ---       #71
      00FF8345H   LINE      CODE     ---       #73
      00FF8349H   LINE      CODE     ---       #74
      00FF834BH   LINE      CODE     ---       #75
      00FF8367H   LINE      CODE     ---       #77
      00FF836AH   LINE      CODE     ---       #78
      00FF836CH   LINE      CODE     ---       #79
      00FF8388H   LINE      CODE     ---       #81
      00FF838BH   LINE      CODE     ---       #82
      00FF838DH   LINE      CODE     ---       #83
      00FF83A9H   LINE      CODE     ---       #85
      00FF83ACH   LINE      CODE     ---       #86
      00FF83ACH   LINE      CODE     ---       #87
      00FF83B1H   LINE      CODE     ---       #91
      00FF83B4H   LINE      CODE     ---       #92
      00FF83B7H   LINE      CODE     ---       #95
      00FF83B7H   LINE      CODE     ---       #97
      00FF83C5H   LINE      CODE     ---       #99
      00FF83C8H   LINE      CODE     ---       #100
      00FF83D0H   LINE      CODE     ---       #101
      00FF83DCH   LINE      CODE     ---       #102
      00FF83DFH   LINE      CODE     ---       #103
      00FF83DFH   LINE      CODE     ---       #105
      00FF83E2H   LINE      CODE     ---       #106
      00FF83FEH   LINE      CODE     ---       #108
      00FF8402H   LINE      CODE     ---       #109
      00FF8404H   LINE      CODE     ---       #110
      00FF8420H   LINE      CODE     ---       #112
      00FF8423H   LINE      CODE     ---       #113
      00FF8423H   LINE      CODE     ---       #115
      00FF8426H   LINE      CODE     ---       #116
      00FF842BH   LINE      CODE     ---       #117
      00FF842EH   LINE      CODE     ---       #120
      00FF842EH   LINE      CODE     ---       #122
      00FF843CH   LINE      CODE     ---       #124
      00FF843FH   LINE      CODE     ---       #125
      00FF8447H   LINE      CODE     ---       #126
      00FF8453H   LINE      CODE     ---       #127
      00FF8456H   LINE      CODE     ---       #128
      00FF8458H   LINE      CODE     ---       #129
      00FF8466H   LINE      CODE     ---       #131
      00FF8469H   LINE      CODE     ---       #132
      00FF8471H   LINE      CODE     ---       #133
      00FF847DH   LINE      CODE     ---       #134
      00FF8480H   LINE      CODE     ---       #135
      00FF8480H   LINE      CODE     ---       #137
      00FF8483H   LINE      CODE     ---       #138
      00FF849FH   LINE      CODE     ---       #140
      00FF84A3H   LINE      CODE     ---       #141
      00FF84A5H   LINE      CODE     ---       #142
      00FF84C1H   LINE      CODE     ---       #144
      00FF84C4H   LINE      CODE     ---       #145
      00FF84C4H   LINE      CODE     ---       #147
      00FF84C7H   LINE      CODE     ---       #148
      00FF84CCH   LINE      CODE     ---       #149
      00FF84CFH   LINE      CODE     ---       #152
      00FF84CFH   LINE      CODE     ---       #154
      00FF84DDH   LINE      CODE     ---       #156
      00FF84E0H   LINE      CODE     ---       #157
      00FF84E8H   LINE      CODE     ---       #158
      00FF84F4H   LINE      CODE     ---       #159
      00FF84F7H   LINE      CODE     ---       #160
      00FF84F9H   LINE      CODE     ---       #161
      00FF8507H   LINE      CODE     ---       #163
      00FF850AH   LINE      CODE     ---       #164
L251 LINKER/LOCATER V4.66.93.0                                                        06/23/2025  18:43:06  PAGE 59


      00FF8512H   LINE      CODE     ---       #165
      00FF851EH   LINE      CODE     ---       #166
      00FF8521H   LINE      CODE     ---       #167
      00FF8521H   LINE      CODE     ---       #169
      00FF8524H   LINE      CODE     ---       #170
      00FF8540H   LINE      CODE     ---       #172
      00FF8544H   LINE      CODE     ---       #173
      00FF8546H   LINE      CODE     ---       #174
      00FF8562H   LINE      CODE     ---       #176
      00FF8565H   LINE      CODE     ---       #177
      00FF8569H   LINE      CODE     ---       #178
      00FF856CH   LINE      CODE     ---       #179
      00FF856CH   LINE      CODE     ---       #180
      00FF856FH   LINE      CODE     ---       #181
      00FF8574H   LINE      CODE     ---       #182
      00FF8574H   LINE      CODE     ---       #185
      00FF8574H   LINE      CODE     ---       #187
      ---         BLOCKEND  ---      ---       LVL=0
      0001108CH   SYMBOL    XDATA    INT       uart_n
      0001108EH   SYMBOL    XDATA    BYTE      dat
      00010DEFH   SYMBOL    XDATA    INT       uart_n
      00010DF1H   SYMBOL    XDATA    ---       p
      00010DF5H   SYMBOL    XDATA    DWORD     len
      00010F72H   SYMBOL    XDATA    INT       uart_n
      00010F74H   SYMBOL    XDATA    ---       str

      ---         MODULE    ---      ---       zf_fifo
      00FF6939H   PUBLIC    CODE     ---       fifo_read_buffer
      00FF9DF5H   PUBLIC    CODE     ---       fifo_clear
      00FF63B7H   PUBLIC    CODE     ---       fifo_write_buffer
      00FFB74DH   PUBLIC    CODE     ---       fifo_used
      00010BE6H   PUBLIC    XDATA    BYTE      ?fifo_write_buffer?BYTE
      00010D44H   PUBLIC    XDATA    BYTE      ?fifo_read_element?BYTE
      00010B20H   PUBLIC    XDATA    BYTE      ?fifo_read_buffer?BYTE
      00010B38H   PUBLIC    XDATA    BYTE      ?fifo_read_tail_buffer?BYTE
      00010C3CH   PUBLIC    XDATA    BYTE      ?fifo_init?BYTE
      000000D0H   SFRSYM    DATA     BYTE      PSW
      0000009DH   SFRSYM    DATA     BYTE      IRCBAND
      00000097H   SFRSYM    DATA     BYTE      AUXR2
      000000EFH   SFRSYM    DATA     BYTE      AUXINTIF
      000000FDH   SFRSYM    DATA     BYTE      S4CON
      000000ACH   SFRSYM    DATA     BYTE      S3CON
      0000009AH   SFRSYM    DATA     BYTE      S2CON
      000000B7H   SFRSYM    DATA     BYTE      IPH
      000000CDH   SFRSYM    DATA     BYTE      SPSTAT
      000000DDH   SFRSYM    DATA     BYTE      T4T3M
      000000C1H   SFRSYM    DATA     BYTE      WDT_CONTR
      000000DFH   SFRSYM    DATA     BYTE      IP3
      000000F4H   SFRSYM    DATA     BYTE      USBCON
      000000B5H   SFRSYM    DATA     BYTE      IP2
      000000FFH   SFRSYM    DATA     BYTE      RSTCFG
      000000F9H   SFRSYM    DATA     BYTE      LINICR
      0000008EH   SFRSYM    DATA     BYTE      AUXR
      000000AFH   SFRSYM    DATA     BYTE      IE2
      00000088H   SFRSYM    DATA     BYTE      TCON
      00000098H   SFRSYM    DATA     BYTE      SCON
      000000F1H   SFRSYM    DATA     BYTE      CANICR
      00000087H   SFRSYM    DATA     BYTE      PCON
      000000BCH   SFRSYM    DATA     BYTE      ADC_CONTR
      000000E7H   SFRSYM    DATA     BYTE      CMPCR2
      000000E6H   SFRSYM    DATA     BYTE      CMPCR1
      000000B8H   SFRSYM    DATA     BYTE      IP
      0000008FH   SFRSYM    DATA     BYTE      INTCLKO
      000000EEH   SFRSYM    DATA     BYTE      IP3H
      000000B6H   SFRSYM    DATA     BYTE      IP2H
L251 LINKER/LOCATER V4.66.93.0                                                        06/23/2025  18:43:06  PAGE 60


      000000A8H   SFRSYM    DATA     BYTE      IE
      000000BBH   SFRSYM    DATA     BYTE      P_SW3
      000000BAH   SFRSYM    DATA     BYTE      P_SW2
      000000A2H   SFRSYM    DATA     BYTE      P_SW1
      000000CEH   SFRSYM    DATA     BYTE      SPCTL
      000000F8H   SFRSYM    DATA     BYTE      P7
      000000E8H   SFRSYM    DATA     BYTE      P6
      000000C8H   SFRSYM    DATA     BYTE      P5
      000000C0H   SFRSYM    DATA     BYTE      P4
      000000B0H   SFRSYM    DATA     BYTE      P3
      000000A0H   SFRSYM    DATA     BYTE      P2
      00000090H   SFRSYM    DATA     BYTE      P1
      00000080H   SFRSYM    DATA     BYTE      P0
      00FFAE91H   SYMBOL    CODE     ---       fifo_head_offset
      00FFAF31H   SYMBOL    CODE     ---       fifo_end_offset

      00FFAE91H   BLOCK     CODE     ---       LVL=0
      00010E9DH   SYMBOL    XDATA    ---       fifo
      00010EA1H   SYMBOL    XDATA    DWORD     offset
      00FFAE91H   LINE      CODE     ---       #42
      00FFAEA5H   LINE      CODE     ---       #44
      00FFAECDH   LINE      CODE     ---       #46
      00FFAECFH   LINE      CODE     ---       #48
      00FFAF02H   LINE      CODE     ---       #49
      00FFAF30H   LINE      CODE     ---       #50
      ---         BLOCKEND  ---      ---       LVL=0

      00FFAF31H   BLOCK     CODE     ---       LVL=0
      00010EA5H   SYMBOL    XDATA    ---       fifo
      00010EA9H   SYMBOL    XDATA    DWORD     offset
      00FFAF31H   LINE      CODE     ---       #60
      00FFAF45H   LINE      CODE     ---       #62
      00FFAF6DH   LINE      CODE     ---       #64
      00FFAF6FH   LINE      CODE     ---       #66
      00FFAFA2H   LINE      CODE     ---       #67
      00FFAFD0H   LINE      CODE     ---       #68
      ---         BLOCKEND  ---      ---       LVL=0

      00FF9DF5H   BLOCK     CODE     ---       LVL=0
      00010F78H   SYMBOL    XDATA    ---       fifo
      00FF9DFFH   BLOCK     CODE     NEAR LAB  LVL=1
      00010F7CH   SYMBOL    XDATA    INT       return_state
      ---         BLOCKEND  ---      ---       LVL=1
      00FF9DF5H   LINE      CODE     ---       #77
      00FF9DFFH   LINE      CODE     ---       #78
      00FF9DFFH   LINE      CODE     ---       #80
      00FF9E07H   LINE      CODE     ---       #81
      00FF9E07H   LINE      CODE     ---       #88
      00FF9E1BH   LINE      CODE     ---       #89
      00FF9E32H   LINE      CODE     ---       #90
      00FF9E49H   LINE      CODE     ---       #91
      00FF9E73H   LINE      CODE     ---       #92
      00FF9E91H   LINE      CODE     ---       #94
      00FF9EC1H   LINE      CODE     ---       #95
      00FF9EF3H   LINE      CODE     ---       #96
      00FF9F25H   LINE      CODE     ---       #97
      00FF9F25H   LINE      CODE     ---       #98
      00FF9F33H   LINE      CODE     ---       #99
      00FF9F33H   LINE      CODE     ---       #100
      00FF9F39H   LINE      CODE     ---       #101
      ---         BLOCKEND  ---      ---       LVL=0

      00FFB74DH   BLOCK     CODE     ---       LVL=0
      0001105DH   SYMBOL    XDATA    ---       fifo
      00FFB74DH   LINE      CODE     ---       #110
L251 LINKER/LOCATER V4.66.93.0                                                        06/23/2025  18:43:06  PAGE 61


      00FFB757H   LINE      CODE     ---       #113
      00FFB783H   LINE      CODE     ---       #114
      ---         BLOCKEND  ---      ---       LVL=0
      00010DF9H   SYMBOL    XDATA    ---       fifo
      00010DFDH   SYMBOL    XDATA    DWORD     dat
      00010E01H   SYMBOL    XDATA    INT       return_state

      00FF63B7H   BLOCK     CODE     ---       LVL=0
      00010BE6H   SYMBOL    XDATA    ---       fifo
      00010BEAH   SYMBOL    XDATA    ---       dat
      00010BEEH   SYMBOL    XDATA    DWORD     length
      00FF63CBH   BLOCK     CODE     NEAR LAB  LVL=1
      00010BF2H   SYMBOL    XDATA    INT       return_state
      00010BF4H   SYMBOL    XDATA    DWORD     temp_length
      ---         BLOCKEND  ---      ---       LVL=1
      00FF63B7H   LINE      CODE     ---       #168
      00FF63CBH   LINE      CODE     ---       #169
      00FF63CBH   LINE      CODE     ---       #171
      00FF63D3H   LINE      CODE     ---       #172
      00FF63DFH   LINE      CODE     ---       #174
      00FF63DFH   LINE      CODE     ---       #176
      00FF63EDH   LINE      CODE     ---       #178
      00FF63F7H   LINE      CODE     ---       #179
      00FF63FAH   LINE      CODE     ---       #180
      00FF63FAH   LINE      CODE     ---       #181
      00FF6415H   LINE      CODE     ---       #183
      00FF641FH   LINE      CODE     ---       #184
      00FF6422H   LINE      CODE     ---       #185
      00FF6422H   LINE      CODE     ---       #186
      00FF6436H   LINE      CODE     ---       #188
      00FF645CH   LINE      CODE     ---       #190
      00FF6492H   LINE      CODE     ---       #192
      00FF64ADH   LINE      CODE     ---       #194
      00FF64D1H   LINE      CODE     ---       #196
      00FF64D1H   LINE      CODE     ---       #198
      00FF6518H   LINE      CODE     ---       #201
      00FF652FH   LINE      CODE     ---       #202
      00FF6590H   LINE      CODE     ---       #206
      00FF65B3H   LINE      CODE     ---       #207
      00FF65B6H   LINE      CODE     ---       #208
      00FF65B6H   LINE      CODE     ---       #210
      00FF6601H   LINE      CODE     ---       #213
      00FF6618H   LINE      CODE     ---       #214
      00FF667FH   LINE      CODE     ---       #218
      00FF66A2H   LINE      CODE     ---       #219
      00FF66A5H   LINE      CODE     ---       #220
      00FF66A5H   LINE      CODE     ---       #222
      00FF66F4H   LINE      CODE     ---       #225
      00FF670BH   LINE      CODE     ---       #226
      00FF6778H   LINE      CODE     ---       #230
      00FF679BH   LINE      CODE     ---       #231
      00FF679BH   LINE      CODE     ---       #232
      00FF679BH   LINE      CODE     ---       #233
      00FF679EH   LINE      CODE     ---       #236
      00FF67BFH   LINE      CODE     ---       #238
      00FF67BFH   LINE      CODE     ---       #240
      00FF6806H   LINE      CODE     ---       #243
      00FF681DH   LINE      CODE     ---       #244
      00FF6820H   LINE      CODE     ---       #245
      00FF6820H   LINE      CODE     ---       #247
      00FF686BH   LINE      CODE     ---       #250
      00FF6882H   LINE      CODE     ---       #251
      00FF6884H   LINE      CODE     ---       #252
      00FF6884H   LINE      CODE     ---       #254
      00FF68D3H   LINE      CODE     ---       #257
L251 LINKER/LOCATER V4.66.93.0                                                        06/23/2025  18:43:06  PAGE 62


      00FF68EAH   LINE      CODE     ---       #258
      00FF68EAH   LINE      CODE     ---       #259
      00FF68EAH   LINE      CODE     ---       #260
      00FF68EAH   LINE      CODE     ---       #262
      00FF6912H   LINE      CODE     ---       #263
      00FF6914H   LINE      CODE     ---       #266
      00FF691EH   LINE      CODE     ---       #267
      00FF691EH   LINE      CODE     ---       #268
      00FF6932H   LINE      CODE     ---       #269
      00FF6932H   LINE      CODE     ---       #271
      00FF6938H   LINE      CODE     ---       #272
      ---         BLOCKEND  ---      ---       LVL=0
      00010D44H   SYMBOL    XDATA    ---       fifo
      00010D48H   SYMBOL    XDATA    ---       dat
      00010D4CH   SYMBOL    XDATA    INT       flag
      00010D4EH   SYMBOL    XDATA    INT       return_state

      00FF6939H   BLOCK     CODE     ---       LVL=0
      00010B20H   SYMBOL    XDATA    ---       fifo
      00010B24H   SYMBOL    XDATA    ---       dat
      00010B28H   SYMBOL    XDATA    ---       length
      00010B2CH   SYMBOL    XDATA    INT       flag
      00FF694DH   BLOCK     CODE     NEAR LAB  LVL=1
      00010B2EH   SYMBOL    XDATA    INT       return_state
      00010B30H   SYMBOL    XDATA    DWORD     temp_length
      00010B34H   SYMBOL    XDATA    DWORD     fifo_data_length
      ---         BLOCKEND  ---      ---       LVL=1
      00FF6939H   LINE      CODE     ---       #345
      00FF694DH   LINE      CODE     ---       #346
      00FF694DH   LINE      CODE     ---       #349
      00FF6955H   LINE      CODE     ---       #350
      00FF6961H   LINE      CODE     ---       #351
      00FF696DH   LINE      CODE     ---       #353
      00FF696DH   LINE      CODE     ---       #355
      00FF697BH   LINE      CODE     ---       #357
      00FF6985H   LINE      CODE     ---       #358
      00FF6988H   LINE      CODE     ---       #361
      00FF69A3H   LINE      CODE     ---       #363
      00FF69BEH   LINE      CODE     ---       #364
      00FF69C8H   LINE      CODE     ---       #365
      00FF69CBH   LINE      CODE     ---       #366
      00FF69CBH   LINE      CODE     ---       #368
      00FF69E2H   LINE      CODE     ---       #369
      00FF6A01H   LINE      CODE     ---       #371
      00FF6A1CH   LINE      CODE     ---       #372
      00FF6A26H   LINE      CODE     ---       #373
      00FF6A34H   LINE      CODE     ---       #375
      00FF6A48H   LINE      CODE     ---       #376
      00FF6A4BH   LINE      CODE     ---       #377
      00FF6A4BH   LINE      CODE     ---       #380
      00FF6A5FH   LINE      CODE     ---       #381
      00FF6A95H   LINE      CODE     ---       #382
      00FF6AB7H   LINE      CODE     ---       #384
      00FF6AD8H   LINE      CODE     ---       #386
      00FF6B2BH   LINE      CODE     ---       #387
      00FF6B82H   LINE      CODE     ---       #388
      00FF6BDAH   LINE      CODE     ---       #389
      00FF6BDAH   LINE      CODE     ---       #390
      00FF6BDDH   LINE      CODE     ---       #393
      00FF6C01H   LINE      CODE     ---       #395
      00FF6C01H   LINE      CODE     ---       #397
      00FF6C4AH   LINE      CODE     ---       #398
      00FF6C99H   LINE      CODE     ---       #399
      00FF6C9CH   LINE      CODE     ---       #400
      00FF6C9CH   LINE      CODE     ---       #402
L251 LINKER/LOCATER V4.66.93.0                                                        06/23/2025  18:43:06  PAGE 63


      00FF6CE9H   LINE      CODE     ---       #403
      00FF6D3CH   LINE      CODE     ---       #404
      00FF6D3FH   LINE      CODE     ---       #405
      00FF6D3FH   LINE      CODE     ---       #407
      00FF6D90H   LINE      CODE     ---       #408
      00FF6DE7H   LINE      CODE     ---       #409
      00FF6DE7H   LINE      CODE     ---       #410
      00FF6DE7H   LINE      CODE     ---       #411
      00FF6DE7H   LINE      CODE     ---       #412
      00FF6DFBH   LINE      CODE     ---       #413
      00FF6DFBH   LINE      CODE     ---       #415
      00FF6E0AH   LINE      CODE     ---       #417
      00FF6E1CH   LINE      CODE     ---       #419
      00FF6E26H   LINE      CODE     ---       #420
      00FF6E28H   LINE      CODE     ---       #421
      00FF6E28H   LINE      CODE     ---       #422
      00FF6E3CH   LINE      CODE     ---       #423
      00FF6E5AH   LINE      CODE     ---       #424
      00FF6E89H   LINE      CODE     ---       #425
      00FF6E9DH   LINE      CODE     ---       #426
      00FF6E9DH   LINE      CODE     ---       #429
      00FF6EA3H   LINE      CODE     ---       #430
      ---         BLOCKEND  ---      ---       LVL=0
      00010B38H   SYMBOL    XDATA    ---       fifo
      00010B3CH   SYMBOL    XDATA    ---       dat
      00010B40H   SYMBOL    XDATA    ---       length
      00010B44H   SYMBOL    XDATA    INT       flag
      00010B46H   SYMBOL    XDATA    INT       return_state
      00010B48H   SYMBOL    XDATA    DWORD     temp_length
      00010B4CH   SYMBOL    XDATA    DWORD     fifo_data_length
      00010C3CH   SYMBOL    XDATA    ---       fifo
      00010C40H   SYMBOL    XDATA    INT       type
      00010C42H   SYMBOL    XDATA    ---       buffer_addr
      00010C46H   SYMBOL    XDATA    DWORD     len
      00010C4AH   SYMBOL    XDATA    INT       return_state

      ---         MODULE    ---      ---       zf_function
      00010779H   PUBLIC    XDATA    BYTE      ?func_double_to_str?BYTE
      000000D0H   SFRSYM    DATA     BYTE      PSW
      0000009DH   SFRSYM    DATA     BYTE      IRCBAND
      00000097H   SFRSYM    DATA     BYTE      AUXR2
      000000EFH   SFRSYM    DATA     BYTE      AUXINTIF
      000000FDH   SFRSYM    DATA     BYTE      S4CON
      000000ACH   SFRSYM    DATA     BYTE      S3CON
      0000009AH   SFRSYM    DATA     BYTE      S2CON
      000000B7H   SFRSYM    DATA     BYTE      IPH
      000000CDH   SFRSYM    DATA     BYTE      SPSTAT
      000000DDH   SFRSYM    DATA     BYTE      T4T3M
      000000C1H   SFRSYM    DATA     BYTE      WDT_CONTR
      000000DFH   SFRSYM    DATA     BYTE      IP3
      000000F4H   SFRSYM    DATA     BYTE      USBCON
      000000B5H   SFRSYM    DATA     BYTE      IP2
      000000FFH   SFRSYM    DATA     BYTE      RSTCFG
      000000F9H   SFRSYM    DATA     BYTE      LINICR
      0000008EH   SFRSYM    DATA     BYTE      AUXR
      000000AFH   SFRSYM    DATA     BYTE      IE2
      00000088H   SFRSYM    DATA     BYTE      TCON
      00000098H   SFRSYM    DATA     BYTE      SCON
      000000F1H   SFRSYM    DATA     BYTE      CANICR
      00000087H   SFRSYM    DATA     BYTE      PCON
      000000BCH   SFRSYM    DATA     BYTE      ADC_CONTR
      000000E7H   SFRSYM    DATA     BYTE      CMPCR2
      000000E6H   SFRSYM    DATA     BYTE      CMPCR1
      000000B8H   SFRSYM    DATA     BYTE      IP
      0000008FH   SFRSYM    DATA     BYTE      INTCLKO
L251 LINKER/LOCATER V4.66.93.0                                                        06/23/2025  18:43:06  PAGE 64


      000000EEH   SFRSYM    DATA     BYTE      IP3H
      000000B6H   SFRSYM    DATA     BYTE      IP2H
      000000A8H   SFRSYM    DATA     BYTE      IE
      000000BBH   SFRSYM    DATA     BYTE      P_SW3
      000000BAH   SFRSYM    DATA     BYTE      P_SW2
      000000A2H   SFRSYM    DATA     BYTE      P_SW1
      000000CEH   SFRSYM    DATA     BYTE      SPCTL
      000000F8H   SFRSYM    DATA     BYTE      P7
      000000E8H   SFRSYM    DATA     BYTE      P6
      000000C8H   SFRSYM    DATA     BYTE      P5
      000000C0H   SFRSYM    DATA     BYTE      P4
      000000B0H   SFRSYM    DATA     BYTE      P3
      000000A0H   SFRSYM    DATA     BYTE      P2
      00000090H   SFRSYM    DATA     BYTE      P1
      00000080H   SFRSYM    DATA     BYTE      P0
      00FFC010H   SYMBOL    HCONST   ---       ?tpl?0001
      00010EADH   SYMBOL    XDATA    DWORD     num1
      00010EB1H   SYMBOL    XDATA    DWORD     num2
      00011061H   SYMBOL    XDATA    LONG      t
      00010E20H   SYMBOL    XDATA    ---       str
      00010E24H   SYMBOL    XDATA    BYTE      sign
      00010E25H   SYMBOL    XDATA    LONG      temp
      00010A46H   SYMBOL    XDATA    ---       str
      00010A4AH   SYMBOL    XDATA    LONG      number
      00010A4EH   SYMBOL    XDATA    ---       data_temp
      00010A5EH   SYMBOL    XDATA    BYTE      temp_bit
      00010A5FH   SYMBOL    XDATA    LONG      number_temp
      00010EB5H   SYMBOL    XDATA    ---       str
      00010EB9H   SYMBOL    XDATA    DWORD     temp
      00010AD6H   SYMBOL    XDATA    ---       str
      00010ADAH   SYMBOL    XDATA    DWORD     number
      00010ADEH   SYMBOL    XDATA    ---       data_temp
      00010AEEH   SYMBOL    XDATA    BYTE      temp_bit
      00010C0AH   SYMBOL    XDATA    ---       str
      00010C0EH   SYMBOL    XDATA    BYTE      sign
      00010C0FH   SYMBOL    XDATA    FLOAT     temp
      00010C13H   SYMBOL    XDATA    FLOAT     temp_point
      00010C17H   SYMBOL    XDATA    FLOAT     point_bit
      00010944H   SYMBOL    XDATA    ---       str
      00010948H   SYMBOL    XDATA    FLOAT     number
      0001094CH   SYMBOL    XDATA    BYTE      point_bit
      0001094DH   SYMBOL    XDATA    INT       data_int
      0001094FH   SYMBOL    XDATA    INT       data_float
      00010951H   SYMBOL    XDATA    ---       data_temp
      00010961H   SYMBOL    XDATA    ---       data_temp_point
      0001096DH   SYMBOL    XDATA    BYTE      temp_bit
      00010A63H   SYMBOL    XDATA    ---       str
      00010A67H   SYMBOL    XDATA    BYTE      sign
      00010A68H   SYMBOL    XDATA    DOUBLE    temp
      00010A70H   SYMBOL    XDATA    DOUBLE    temp_point
      00010A78H   SYMBOL    XDATA    DOUBLE    point_bit
      00010779H   SYMBOL    XDATA    ---       str
      0001077DH   SYMBOL    XDATA    DOUBLE    number
      00010785H   SYMBOL    XDATA    BYTE      point_bit
      00010786H   SYMBOL    XDATA    INT       data_int
      00010788H   SYMBOL    XDATA    INT       data_float
      0001078AH   SYMBOL    XDATA    ---       data_temp
      000107A2H   SYMBOL    XDATA    ---       data_temp_point
      000107B4H   SYMBOL    XDATA    BYTE      temp_bit
      00010CD7H   SYMBOL    XDATA    ---       str
      00010CDBH   SYMBOL    XDATA    DWORD     str_len
      00010CDFH   SYMBOL    XDATA    DWORD     result_data
      00010CE3H   SYMBOL    XDATA    BYTE      temp
      00010CE4H   SYMBOL    XDATA    BYTE      flag
      000109BEH   SYMBOL    XDATA    ---       str
L251 LINKER/LOCATER V4.66.93.0                                                        06/23/2025  18:43:06  PAGE 65


      000109C2H   SYMBOL    XDATA    DWORD     number
      000109C6H   SYMBOL    XDATA    ---       hex_index
      000109D6H   SYMBOL    XDATA    ---       data_temp
      000109E2H   SYMBOL    XDATA    BYTE      temp_bit

      ---         MODULE    ---      ---       zf_iic
      00010F7AH   PUBLIC    XDATA    BYTE      ?iic_init?BYTE
      000000D0H   SFRSYM    DATA     BYTE      PSW
      0000009DH   SFRSYM    DATA     BYTE      IRCBAND
      00000097H   SFRSYM    DATA     BYTE      AUXR2
      000000EFH   SFRSYM    DATA     BYTE      AUXINTIF
      000000FDH   SFRSYM    DATA     BYTE      S4CON
      000000ACH   SFRSYM    DATA     BYTE      S3CON
      0000009AH   SFRSYM    DATA     BYTE      S2CON
      000000B7H   SFRSYM    DATA     BYTE      IPH
      000000CDH   SFRSYM    DATA     BYTE      SPSTAT
      000000DDH   SFRSYM    DATA     BYTE      T4T3M
      000000C1H   SFRSYM    DATA     BYTE      WDT_CONTR
      000000DFH   SFRSYM    DATA     BYTE      IP3
      000000F4H   SFRSYM    DATA     BYTE      USBCON
      000000B5H   SFRSYM    DATA     BYTE      IP2
      000000FFH   SFRSYM    DATA     BYTE      RSTCFG
      000000F9H   SFRSYM    DATA     BYTE      LINICR
      0000008EH   SFRSYM    DATA     BYTE      AUXR
      000000AFH   SFRSYM    DATA     BYTE      IE2
      00000088H   SFRSYM    DATA     BYTE      TCON
      00000098H   SFRSYM    DATA     BYTE      SCON
      000000F1H   SFRSYM    DATA     BYTE      CANICR
      00000087H   SFRSYM    DATA     BYTE      PCON
      000000BCH   SFRSYM    DATA     BYTE      ADC_CONTR
      000000E7H   SFRSYM    DATA     BYTE      CMPCR2
      000000E6H   SFRSYM    DATA     BYTE      CMPCR1
      000000B8H   SFRSYM    DATA     BYTE      IP
      0000008FH   SFRSYM    DATA     BYTE      INTCLKO
      000000EEH   SFRSYM    DATA     BYTE      IP3H
      000000B6H   SFRSYM    DATA     BYTE      IP2H
      000000A8H   SFRSYM    DATA     BYTE      IE
      000000BBH   SFRSYM    DATA     BYTE      P_SW3
      000000BAH   SFRSYM    DATA     BYTE      P_SW2
      000000A2H   SFRSYM    DATA     BYTE      P_SW1
      000000CEH   SFRSYM    DATA     BYTE      SPCTL
      000000F8H   SFRSYM    DATA     BYTE      P7
      000000E8H   SFRSYM    DATA     BYTE      P6
      000000C8H   SFRSYM    DATA     BYTE      P5
      000000C0H   SFRSYM    DATA     BYTE      P4
      000000B0H   SFRSYM    DATA     BYTE      P3
      000000A0H   SFRSYM    DATA     BYTE      P2
      00000090H   SFRSYM    DATA     BYTE      P1
      00000080H   SFRSYM    DATA     BYTE      P0
      0001108FH   SYMBOL    XDATA    WORD      x
      00011091H   SYMBOL    XDATA    BYTE      i
      00011092H   SYMBOL    XDATA    WORD      count
      00011094H   SYMBOL    XDATA    BYTE      ret
      000110F9H   SYMBOL    XDATA    BYTE      ret
      000110BFH   SYMBOL    XDATA    CHAR      dat
      000110C0H   SYMBOL    XDATA    BYTE      ret
      000110FAH   SYMBOL    XDATA    BYTE      ret
      000110FBH   SYMBOL    XDATA    BYTE      ret
      000110FCH   SYMBOL    XDATA    BYTE      ret
      00010F7EH   SYMBOL    XDATA    INT       iic_n
      00010F80H   SYMBOL    XDATA    DWORD     wait_time
      00011095H   SYMBOL    XDATA    BYTE      dev_add
      00011096H   SYMBOL    XDATA    BYTE      reg
      00011097H   SYMBOL    XDATA    BYTE      dat
      00010F84H   SYMBOL    XDATA    BYTE      dev_add
L251 LINKER/LOCATER V4.66.93.0                                                        06/23/2025  18:43:06  PAGE 66


      00010F85H   SYMBOL    XDATA    BYTE      reg
      00010F86H   SYMBOL    XDATA    ---       dat
      00010F3DH   SYMBOL    XDATA    BYTE      dev_add
      00010F3EH   SYMBOL    XDATA    BYTE      reg
      00010F3FH   SYMBOL    XDATA    ---       dat
      00010F43H   SYMBOL    XDATA    BYTE      num
      000110C1H   SYMBOL    XDATA    INT       iic_n

      ---         MODULE    ---      ---       SEEKFREE_18TFT
      00010C4CH   PUBLIC    XDATA    BYTE      ?lcd_showfloat?BYTE
      000000D0H   SFRSYM    DATA     BYTE      PSW
      0000009DH   SFRSYM    DATA     BYTE      IRCBAND
      00000097H   SFRSYM    DATA     BYTE      AUXR2
      000000EFH   SFRSYM    DATA     BYTE      AUXINTIF
      000000FDH   SFRSYM    DATA     BYTE      S4CON
      000000ACH   SFRSYM    DATA     BYTE      S3CON
      0000009AH   SFRSYM    DATA     BYTE      S2CON
      000000B7H   SFRSYM    DATA     BYTE      IPH
      000000CDH   SFRSYM    DATA     BYTE      SPSTAT
      000000DDH   SFRSYM    DATA     BYTE      T4T3M
      000000C1H   SFRSYM    DATA     BYTE      WDT_CONTR
      000000DFH   SFRSYM    DATA     BYTE      IP3
      000000F4H   SFRSYM    DATA     BYTE      USBCON
      000000B5H   SFRSYM    DATA     BYTE      IP2
      000000FFH   SFRSYM    DATA     BYTE      RSTCFG
      000000F9H   SFRSYM    DATA     BYTE      LINICR
      0000008EH   SFRSYM    DATA     BYTE      AUXR
      000000AFH   SFRSYM    DATA     BYTE      IE2
      00000088H   SFRSYM    DATA     BYTE      TCON
      00000098H   SFRSYM    DATA     BYTE      SCON
      000000A0H.2 SFRSYM    DATA     BIT       P22
      000000A0H.1 SFRSYM    DATA     BIT       P21
      000000A0H.0 SFRSYM    DATA     BIT       P20
      000000F1H   SFRSYM    DATA     BYTE      CANICR
      00000087H   SFRSYM    DATA     BYTE      PCON
      000000BCH   SFRSYM    DATA     BYTE      ADC_CONTR
      000000E7H   SFRSYM    DATA     BYTE      CMPCR2
      000000E6H   SFRSYM    DATA     BYTE      CMPCR1
      000000B8H   SFRSYM    DATA     BYTE      IP
      0000008FH   SFRSYM    DATA     BYTE      INTCLKO
      000000EEH   SFRSYM    DATA     BYTE      IP3H
      000000B6H   SFRSYM    DATA     BYTE      IP2H
      000000A8H   SFRSYM    DATA     BYTE      IE
      000000BBH   SFRSYM    DATA     BYTE      P_SW3
      000000BAH   SFRSYM    DATA     BYTE      P_SW2
      000000A2H   SFRSYM    DATA     BYTE      P_SW1
      000000CEH   SFRSYM    DATA     BYTE      SPCTL
      000000F8H   SFRSYM    DATA     BYTE      P7
      000000E8H   SFRSYM    DATA     BYTE      P6
      000000C8H   SFRSYM    DATA     BYTE      P5
      000000C0H   SFRSYM    DATA     BYTE      P4
      000000B0H   SFRSYM    DATA     BYTE      P3
      000000A0H   SFRSYM    DATA     BYTE      P2
      00000090H   SFRSYM    DATA     BYTE      P1
      00000080H   SFRSYM    DATA     BYTE      P0
      000110FDH   SYMBOL    XDATA    BYTE      dat
      000110FEH   SYMBOL    XDATA    BYTE      dat
      000110C3H   SYMBOL    XDATA    WORD      dat
      0000044AH   SYMBOL    EDATA    ---       dat1
      00010EBDH   SYMBOL    XDATA    WORD      x_start
      00010EBFH   SYMBOL    XDATA    WORD      y_start
      00010EC1H   SYMBOL    XDATA    WORD      x_end
      00010EC3H   SYMBOL    XDATA    WORD      y_end
      00011098H   SYMBOL    XDATA    INT       color
      00000468H   SYMBOL    EDATA    BYTE      i
L251 LINKER/LOCATER V4.66.93.0                                                        06/23/2025  18:43:06  PAGE 67


      0001109AH   SYMBOL    XDATA    BYTE      j
      00010F8AH   SYMBOL    XDATA    WORD      x
      00010F8CH   SYMBOL    XDATA    WORD      y
      00010F8EH   SYMBOL    XDATA    WORD      color
      00010F90H   SYMBOL    XDATA    WORD      x
      00010F92H   SYMBOL    XDATA    WORD      y
      00010F94H   SYMBOL    XDATA    CHAR      dat
      0000044CH   SYMBOL    EDATA    BYTE      i
      00010F95H   SYMBOL    XDATA    BYTE      j
      0000044DH   SYMBOL    EDATA    BYTE      temp
      00010EC5H   SYMBOL    XDATA    WORD      x
      00010EC7H   SYMBOL    XDATA    WORD      y
      00010EC9H   SYMBOL    XDATA    ---       dat
      0000044EH   SYMBOL    EDATA    WORD      j
      0001100DH   SYMBOL    XDATA    WORD      x
      0001100FH   SYMBOL    XDATA    WORD      y
      00011011H   SYMBOL    XDATA    CHAR      dat
      0000041AH   SYMBOL    EDATA    ---       a
      0000041DH   SYMBOL    EDATA    BYTE      i
      00011012H   SYMBOL    XDATA    WORD      x
      00011014H   SYMBOL    XDATA    WORD      y
      00011016H   SYMBOL    XDATA    BYTE      dat
      0000041EH   SYMBOL    EDATA    ---       a
      00000421H   SYMBOL    EDATA    BYTE      i
      00010F96H   SYMBOL    XDATA    WORD      x
      00010F98H   SYMBOL    XDATA    WORD      y
      00010F9AH   SYMBOL    XDATA    INT       dat
      000003EAH   SYMBOL    EDATA    ---       a
      000003EFH   SYMBOL    EDATA    BYTE      i
      00010F9CH   SYMBOL    XDATA    WORD      x
      00010F9EH   SYMBOL    XDATA    WORD      y
      00010FA0H   SYMBOL    XDATA    WORD      dat
      000003F0H   SYMBOL    EDATA    ---       a
      000003F5H   SYMBOL    EDATA    BYTE      i
      00010E29H   SYMBOL    XDATA    WORD      x
      00010E2BH   SYMBOL    XDATA    WORD      y
      00010E2DH   SYMBOL    XDATA    LONG      dat
      00010E31H   SYMBOL    XDATA    BYTE      num
      000003A4H   SYMBOL    EDATA    ---       buff
      000003C6H   SYMBOL    EDATA    BYTE      length
      00010C4CH   SYMBOL    XDATA    WORD      x
      00010C4EH   SYMBOL    XDATA    WORD      y
      00010C50H   SYMBOL    XDATA    DOUBLE    dat
      00010C58H   SYMBOL    XDATA    BYTE      num
      00010C59H   SYMBOL    XDATA    BYTE      pointnum
      0000035CH   SYMBOL    EDATA    BYTE      length
      0000035DH   SYMBOL    EDATA    ---       buff
      0000037FH   SYMBOL    EDATA    CHAR      start
      00010C5AH   SYMBOL    XDATA    CHAR      end
      00010C5BH   SYMBOL    XDATA    CHAR      point
      00010D50H   SYMBOL    XDATA    ---       p
      00010D54H   SYMBOL    XDATA    INT       i
      00010D56H   SYMBOL    XDATA    INT       j
      00010D58H   SYMBOL    XDATA    INT       k
      00010D5AH   SYMBOL    XDATA    BYTE      picH
      00010D5BH   SYMBOL    XDATA    BYTE      picL

      ---         MODULE    ---      ---       SEEKFREE_BLE6A20
      000000D0H   SFRSYM    DATA     BYTE      PSW
      0000009DH   SFRSYM    DATA     BYTE      IRCBAND
      00000097H   SFRSYM    DATA     BYTE      AUXR2
      000000EFH   SFRSYM    DATA     BYTE      AUXINTIF
      000000FDH   SFRSYM    DATA     BYTE      S4CON
      000000ACH   SFRSYM    DATA     BYTE      S3CON
      0000009AH   SFRSYM    DATA     BYTE      S2CON
L251 LINKER/LOCATER V4.66.93.0                                                        06/23/2025  18:43:06  PAGE 68


      000000B7H   SFRSYM    DATA     BYTE      IPH
      000000CDH   SFRSYM    DATA     BYTE      SPSTAT
      000000DDH   SFRSYM    DATA     BYTE      T4T3M
      000000C1H   SFRSYM    DATA     BYTE      WDT_CONTR
      000000DFH   SFRSYM    DATA     BYTE      IP3
      000000F4H   SFRSYM    DATA     BYTE      USBCON
      000000B5H   SFRSYM    DATA     BYTE      IP2
      000000FFH   SFRSYM    DATA     BYTE      RSTCFG
      000000F9H   SFRSYM    DATA     BYTE      LINICR
      0000008EH   SFRSYM    DATA     BYTE      AUXR
      000000AFH   SFRSYM    DATA     BYTE      IE2
      00000080H.7 SFRSYM    DATA     BIT       P07
      00000088H   SFRSYM    DATA     BYTE      TCON
      00000098H   SFRSYM    DATA     BYTE      SCON
      000000F1H   SFRSYM    DATA     BYTE      CANICR
      00000087H   SFRSYM    DATA     BYTE      PCON
      000000BCH   SFRSYM    DATA     BYTE      ADC_CONTR
      000000E7H   SFRSYM    DATA     BYTE      CMPCR2
      000000E6H   SFRSYM    DATA     BYTE      CMPCR1
      000000B8H   SFRSYM    DATA     BYTE      IP
      0000008FH   SFRSYM    DATA     BYTE      INTCLKO
      000000EEH   SFRSYM    DATA     BYTE      IP3H
      000000B6H   SFRSYM    DATA     BYTE      IP2H
      000000A8H   SFRSYM    DATA     BYTE      IE
      000000BBH   SFRSYM    DATA     BYTE      P_SW3
      000000BAH   SFRSYM    DATA     BYTE      P_SW2
      000000A2H   SFRSYM    DATA     BYTE      P_SW1
      000000CEH   SFRSYM    DATA     BYTE      SPCTL
      000000F8H   SFRSYM    DATA     BYTE      P7
      000000E8H   SFRSYM    DATA     BYTE      P6
      000000C8H   SFRSYM    DATA     BYTE      P5
      000000C0H   SFRSYM    DATA     BYTE      P4
      000000B0H   SFRSYM    DATA     BYTE      P3
      000000A0H   SFRSYM    DATA     BYTE      P2
      00000090H   SFRSYM    DATA     BYTE      P1
      00000080H   SFRSYM    DATA     BYTE      P0
      000002AEH   SYMBOL    EDATA    ---       ble6a20_buffer
      000002EEH   SYMBOL    EDATA    ---       ble6a20_fifo
      000110FFH   SYMBOL    XDATA    BYTE      dat
      00011100H   SYMBOL    XDATA    BYTE      dat
      00010ECDH   SYMBOL    XDATA    ---       buff
      00010ED1H   SYMBOL    XDATA    DWORD     len
      00010ED5H   SYMBOL    XDATA    ---       buff
      00010ED9H   SYMBOL    XDATA    DWORD     len
      00000422H   SYMBOL    EDATA    DWORD     data_len

      ---         MODULE    ---      ---       SEEKFREE_DL1B
      00011065H   PUBLIC    XDATA    WORD      dl1b_distance_mm
      00011067H   PUBLIC    XDATA    BYTE      dl1b_finsh_flag
      00011068H   PUBLIC    XDATA    BYTE      dl1b_init_flag
      00010C5CH   PUBLIC    XDATA    BYTE      ?dl1b_iic_transfer_8bit_array?BYTE
      000000D0H   SFRSYM    DATA     BYTE      PSW
      0000009DH   SFRSYM    DATA     BYTE      IRCBAND
      00000097H   SFRSYM    DATA     BYTE      AUXR2
      000000EFH   SFRSYM    DATA     BYTE      AUXINTIF
      000000FDH   SFRSYM    DATA     BYTE      S4CON
      000000ACH   SFRSYM    DATA     BYTE      S3CON
      0000009AH   SFRSYM    DATA     BYTE      S2CON
      000000B7H   SFRSYM    DATA     BYTE      IPH
      000000CDH   SFRSYM    DATA     BYTE      SPSTAT
      000000DDH   SFRSYM    DATA     BYTE      T4T3M
      000000C1H   SFRSYM    DATA     BYTE      WDT_CONTR
      000000DFH   SFRSYM    DATA     BYTE      IP3
      000000F4H   SFRSYM    DATA     BYTE      USBCON
      000000B5H   SFRSYM    DATA     BYTE      IP2
L251 LINKER/LOCATER V4.66.93.0                                                        06/23/2025  18:43:06  PAGE 69


      000000FFH   SFRSYM    DATA     BYTE      RSTCFG
      000000F9H   SFRSYM    DATA     BYTE      LINICR
      0000008EH   SFRSYM    DATA     BYTE      AUXR
      000000AFH   SFRSYM    DATA     BYTE      IE2
      000000C0H.7 SFRSYM    DATA     BIT       P47
      000000E8H.5 SFRSYM    DATA     BIT       P65
      000000E8H.3 SFRSYM    DATA     BIT       P63
      00000088H   SFRSYM    DATA     BYTE      TCON
      00000098H   SFRSYM    DATA     BYTE      SCON
      000000F1H   SFRSYM    DATA     BYTE      CANICR
      00000087H   SFRSYM    DATA     BYTE      PCON
      000000BCH   SFRSYM    DATA     BYTE      ADC_CONTR
      000000E7H   SFRSYM    DATA     BYTE      CMPCR2
      000000E6H   SFRSYM    DATA     BYTE      CMPCR1
      000000B8H   SFRSYM    DATA     BYTE      IP
      0000008FH   SFRSYM    DATA     BYTE      INTCLKO
      000000EEH   SFRSYM    DATA     BYTE      IP3H
      000000B6H   SFRSYM    DATA     BYTE      IP2H
      000000A8H   SFRSYM    DATA     BYTE      IE
      000000BBH   SFRSYM    DATA     BYTE      P_SW3
      000000BAH   SFRSYM    DATA     BYTE      P_SW2
      000000A2H   SFRSYM    DATA     BYTE      P_SW1
      000000CEH   SFRSYM    DATA     BYTE      SPCTL
      000000F8H   SFRSYM    DATA     BYTE      P7
      000000E8H   SFRSYM    DATA     BYTE      P6
      000000C8H   SFRSYM    DATA     BYTE      P5
      000000C0H   SFRSYM    DATA     BYTE      P4
      000000B0H   SFRSYM    DATA     BYTE      P3
      000000A0H   SFRSYM    DATA     BYTE      P2
      00000090H   SFRSYM    DATA     BYTE      P1
      00000080H   SFRSYM    DATA     BYTE      P0
      00000450H   SYMBOL    EDATA    WORD      j
      00011101H   SYMBOL    XDATA    BYTE      ack_dat
      00011102H   SYMBOL    XDATA    BYTE      c
      00000469H   SYMBOL    EDATA    BYTE      i
      00011103H   SYMBOL    XDATA    BYTE      ack_x
      00000452H   SYMBOL    EDATA    BYTE      i
      00000453H   SYMBOL    EDATA    BYTE      c
      00010C5CH   SYMBOL    XDATA    ---       write_data
      00010C60H   SYMBOL    XDATA    DWORD     write_len
      00010C64H   SYMBOL    XDATA    ---       read_data
      00010C68H   SYMBOL    XDATA    DWORD     read_len
      0000001DH   SYMBOL    EDATA    ---       data_buffer
      000110C5H   SYMBOL    XDATA    INT       dl1b_distance_temp
      00000222H   SYMBOL    EDATA    BYTE      return_state
      00000223H   SYMBOL    EDATA    ---       data_buffer
      000002ACH   SYMBOL    EDATA    WORD      time_out_count

      ---         MODULE    ---      ---       SEEKFREE_FONT
      00FF381EH   PUBLIC    CODE     ---       ascii_font_8x16
      00FF3E0EH   PUBLIC    CODE     ---       tft_ascii
      00FF43FEH   PUBLIC    CODE     ---       oled_6x8
      000000D0H   SFRSYM    DATA     BYTE      PSW
      0000009DH   SFRSYM    DATA     BYTE      IRCBAND
      00000097H   SFRSYM    DATA     BYTE      AUXR2
      000000EFH   SFRSYM    DATA     BYTE      AUXINTIF
      000000FDH   SFRSYM    DATA     BYTE      S4CON
      000000ACH   SFRSYM    DATA     BYTE      S3CON
      0000009AH   SFRSYM    DATA     BYTE      S2CON
      000000B7H   SFRSYM    DATA     BYTE      IPH
      000000CDH   SFRSYM    DATA     BYTE      SPSTAT
      000000DDH   SFRSYM    DATA     BYTE      T4T3M
      000000C1H   SFRSYM    DATA     BYTE      WDT_CONTR
      000000DFH   SFRSYM    DATA     BYTE      IP3
      000000F4H   SFRSYM    DATA     BYTE      USBCON
L251 LINKER/LOCATER V4.66.93.0                                                        06/23/2025  18:43:06  PAGE 70


      000000B5H   SFRSYM    DATA     BYTE      IP2
      000000FFH   SFRSYM    DATA     BYTE      RSTCFG
      000000F9H   SFRSYM    DATA     BYTE      LINICR
      0000008EH   SFRSYM    DATA     BYTE      AUXR
      000000AFH   SFRSYM    DATA     BYTE      IE2
      00000088H   SFRSYM    DATA     BYTE      TCON
      00000098H   SFRSYM    DATA     BYTE      SCON
      000000F1H   SFRSYM    DATA     BYTE      CANICR
      00000087H   SFRSYM    DATA     BYTE      PCON
      000000BCH   SFRSYM    DATA     BYTE      ADC_CONTR
      000000E7H   SFRSYM    DATA     BYTE      CMPCR2
      000000E6H   SFRSYM    DATA     BYTE      CMPCR1
      000000B8H   SFRSYM    DATA     BYTE      IP
      0000008FH   SFRSYM    DATA     BYTE      INTCLKO
      000000EEH   SFRSYM    DATA     BYTE      IP3H
      000000B6H   SFRSYM    DATA     BYTE      IP2H
      000000A8H   SFRSYM    DATA     BYTE      IE
      000000BBH   SFRSYM    DATA     BYTE      P_SW3
      000000BAH   SFRSYM    DATA     BYTE      P_SW2
      000000A2H   SFRSYM    DATA     BYTE      P_SW1
      000000CEH   SFRSYM    DATA     BYTE      SPCTL
      000000F8H   SFRSYM    DATA     BYTE      P7
      000000E8H   SFRSYM    DATA     BYTE      P6
      000000C8H   SFRSYM    DATA     BYTE      P5
      000000C0H   SFRSYM    DATA     BYTE      P4
      000000B0H   SFRSYM    DATA     BYTE      P3
      000000A0H   SFRSYM    DATA     BYTE      P2
      00000090H   SFRSYM    DATA     BYTE      P1
      00000080H   SFRSYM    DATA     BYTE      P0

      ---         MODULE    ---      ---       SEEKFREE_ICM20602
      00010D5CH   PUBLIC    XDATA    INT       icm20602_acc_x
      00010D5EH   PUBLIC    XDATA    INT       icm20602_acc_y
      00010D60H   PUBLIC    XDATA    INT       icm20602_acc_z
      00010D62H   PUBLIC    XDATA    INT       icm20602_gyro_x
      00010D64H   PUBLIC    XDATA    INT       icm20602_gyro_y
      00010D66H   PUBLIC    XDATA    INT       icm20602_gyro_z
      000000D0H   SFRSYM    DATA     BYTE      PSW
      0000009DH   SFRSYM    DATA     BYTE      IRCBAND
      00000097H   SFRSYM    DATA     BYTE      AUXR2
      000000EFH   SFRSYM    DATA     BYTE      AUXINTIF
      000000FDH   SFRSYM    DATA     BYTE      S4CON
      000000ACH   SFRSYM    DATA     BYTE      S3CON
      0000009AH   SFRSYM    DATA     BYTE      S2CON
      000000B7H   SFRSYM    DATA     BYTE      IPH
      000000CDH   SFRSYM    DATA     BYTE      SPSTAT
      000000DDH   SFRSYM    DATA     BYTE      T4T3M
      000000C1H   SFRSYM    DATA     BYTE      WDT_CONTR
      000000DFH   SFRSYM    DATA     BYTE      IP3
      000000F4H   SFRSYM    DATA     BYTE      USBCON
      000000B5H   SFRSYM    DATA     BYTE      IP2
      000000FFH   SFRSYM    DATA     BYTE      RSTCFG
      000000F9H   SFRSYM    DATA     BYTE      LINICR
      0000008EH   SFRSYM    DATA     BYTE      AUXR
      000000AFH   SFRSYM    DATA     BYTE      IE2
      000000C0H.3 SFRSYM    DATA     BIT       P43
      000000C0H.2 SFRSYM    DATA     BIT       P42
      00000088H   SFRSYM    DATA     BYTE      TCON
      000000C0H.1 SFRSYM    DATA     BIT       P41
      00000098H   SFRSYM    DATA     BYTE      SCON
      000000C0H.0 SFRSYM    DATA     BIT       P40
      000000F1H   SFRSYM    DATA     BYTE      CANICR
      00000087H   SFRSYM    DATA     BYTE      PCON
      000000BCH   SFRSYM    DATA     BYTE      ADC_CONTR
      000000E7H   SFRSYM    DATA     BYTE      CMPCR2
L251 LINKER/LOCATER V4.66.93.0                                                        06/23/2025  18:43:06  PAGE 71


      000000E6H   SFRSYM    DATA     BYTE      CMPCR1
      000000B8H   SFRSYM    DATA     BYTE      IP
      0000008FH   SFRSYM    DATA     BYTE      INTCLKO
      000000EEH   SFRSYM    DATA     BYTE      IP3H
      000000B6H   SFRSYM    DATA     BYTE      IP2H
      000000A8H   SFRSYM    DATA     BYTE      IE
      000000BBH   SFRSYM    DATA     BYTE      P_SW3
      000000BAH   SFRSYM    DATA     BYTE      P_SW2
      000000A2H   SFRSYM    DATA     BYTE      P_SW1
      000000CEH   SFRSYM    DATA     BYTE      SPCTL
      000000F8H   SFRSYM    DATA     BYTE      P7
      000000E8H   SFRSYM    DATA     BYTE      P6
      000000C8H   SFRSYM    DATA     BYTE      P5
      000000C0H   SFRSYM    DATA     BYTE      P4
      000000B0H   SFRSYM    DATA     BYTE      P3
      000000A0H   SFRSYM    DATA     BYTE      P2
      00000090H   SFRSYM    DATA     BYTE      P1
      00000080H   SFRSYM    DATA     BYTE      P0
      00011104H   SYMBOL    XDATA    BYTE      byte
      0000046AH   SYMBOL    EDATA    BYTE      i
      000110C7H   SYMBOL    XDATA    BYTE      cmd
      000110C8H   SYMBOL    XDATA    BYTE      val
      00011017H   SYMBOL    XDATA    BYTE      cmd
      00011018H   SYMBOL    XDATA    ---       val
      00010E32H   SYMBOL    XDATA    BYTE      cmd
      00010E33H   SYMBOL    XDATA    ---       val
      00010E37H   SYMBOL    XDATA    DWORD     num
      00000426H   SYMBOL    EDATA    DWORD     i
      000110C9H   SYMBOL    XDATA    BYTE      reg
      000110CAH   SYMBOL    XDATA    BYTE      dat
      00011105H   SYMBOL    XDATA    BYTE      reg
      0000046BH   SYMBOL    EDATA    BYTE      dat
      00010E3BH   SYMBOL    XDATA    BYTE      reg
      00010E3CH   SYMBOL    XDATA    ---       dat
      00010E40H   SYMBOL    XDATA    DWORD     len
      0000043EH   SYMBOL    EDATA    BYTE      dat
      00011106H   SYMBOL    XDATA    BYTE      return_state
      0000043FH   SYMBOL    EDATA    WORD      timeout_count
      000003F6H   SYMBOL    EDATA    ---       dat
      000003FCH   SYMBOL    EDATA    ---       dat
      00010FA2H   SYMBOL    XDATA    INT       acc_value
      00010FA4H   SYMBOL    XDATA    FLOAT     acc_data
      00010FA8H   SYMBOL    XDATA    INT       gyro_value
      00010FAAH   SYMBOL    XDATA    FLOAT     gyro_data
      00000441H   SYMBOL    EDATA    BYTE      val
      00011107H   SYMBOL    XDATA    BYTE      return_state
      00000442H   SYMBOL    EDATA    WORD      timeout_count

      ---         MODULE    ---      ---       SEEKFREE_IMU660RA
      00FFB417H   PUBLIC    CODE     ---       imu660ra_get_gyro
      00FFAD41H   PUBLIC    CODE     ---       imu660ra_acc_transition
      00010D68H   PUBLIC    XDATA    INT       imu660ra_acc_x
      00010D6AH   PUBLIC    XDATA    INT       imu660ra_acc_y
      00010D6CH   PUBLIC    XDATA    INT       imu660ra_acc_z
      00010D6EH   PUBLIC    XDATA    INT       imu660ra_gyro_x
      00010D70H   PUBLIC    XDATA    INT       imu660ra_gyro_y
      00010D72H   PUBLIC    XDATA    INT       imu660ra_gyro_z
      000000D0H   SFRSYM    DATA     BYTE      PSW
      0000009DH   SFRSYM    DATA     BYTE      IRCBAND
      00000097H   SFRSYM    DATA     BYTE      AUXR2
      000000EFH   SFRSYM    DATA     BYTE      AUXINTIF
      000000FDH   SFRSYM    DATA     BYTE      S4CON
      000000ACH   SFRSYM    DATA     BYTE      S3CON
      0000009AH   SFRSYM    DATA     BYTE      S2CON
      000000B7H   SFRSYM    DATA     BYTE      IPH
L251 LINKER/LOCATER V4.66.93.0                                                        06/23/2025  18:43:06  PAGE 72


      000000CDH   SFRSYM    DATA     BYTE      SPSTAT
      000000DDH   SFRSYM    DATA     BYTE      T4T3M
      000000C1H   SFRSYM    DATA     BYTE      WDT_CONTR
      000000DFH   SFRSYM    DATA     BYTE      IP3
      000000F4H   SFRSYM    DATA     BYTE      USBCON
      000000B5H   SFRSYM    DATA     BYTE      IP2
      000000FFH   SFRSYM    DATA     BYTE      RSTCFG
      000000F9H   SFRSYM    DATA     BYTE      LINICR
      0000008EH   SFRSYM    DATA     BYTE      AUXR
      000000AFH   SFRSYM    DATA     BYTE      IE2
      000000C0H.3 SFRSYM    DATA     BIT       P43
      000000C0H.2 SFRSYM    DATA     BIT       P42
      00000088H   SFRSYM    DATA     BYTE      TCON
      000000C0H.1 SFRSYM    DATA     BIT       P41
      00000098H   SFRSYM    DATA     BYTE      SCON
      000000C0H.0 SFRSYM    DATA     BIT       P40
      000000F1H   SFRSYM    DATA     BYTE      CANICR
      00000087H   SFRSYM    DATA     BYTE      PCON
      000000BCH   SFRSYM    DATA     BYTE      ADC_CONTR
      000000E7H   SFRSYM    DATA     BYTE      CMPCR2
      000000E6H   SFRSYM    DATA     BYTE      CMPCR1
      000000B8H   SFRSYM    DATA     BYTE      IP
      0000008FH   SFRSYM    DATA     BYTE      INTCLKO
      000000EEH   SFRSYM    DATA     BYTE      IP3H
      000000B6H   SFRSYM    DATA     BYTE      IP2H
      000000A8H   SFRSYM    DATA     BYTE      IE
      000000BBH   SFRSYM    DATA     BYTE      P_SW3
      000000BAH   SFRSYM    DATA     BYTE      P_SW2
      000000A2H   SFRSYM    DATA     BYTE      P_SW1
      000000CEH   SFRSYM    DATA     BYTE      SPCTL
      000000F8H   SFRSYM    DATA     BYTE      P7
      000000E8H   SFRSYM    DATA     BYTE      P6
      000000C8H   SFRSYM    DATA     BYTE      P5
      000000C0H   SFRSYM    DATA     BYTE      P4
      000000B0H   SFRSYM    DATA     BYTE      P3
      000000A0H   SFRSYM    DATA     BYTE      P2
      00000090H   SFRSYM    DATA     BYTE      P1
      00000080H   SFRSYM    DATA     BYTE      P0
      00FFB46DH   SYMBOL    CODE     ---       imu660ra_simspi_wr_byte
      00FFB057H   SYMBOL    CODE     ---       imu660ra_simspi_r_reg_bytes
      00FFB5E7H   SYMBOL    CODE     ---       imu660ra_read_registers

      00FFB46DH   BLOCK     CODE     ---       LVL=0
      00011108H   SYMBOL    XDATA    BYTE      byte
      00FFB471H   BLOCK     CODE     NEAR LAB  LVL=1
      0000046CH   SYMBOL    EDATA    BYTE      i
      ---         BLOCKEND  ---      ---       LVL=1
      00FFB46DH   LINE      CODE     ---       #294
      00FFB471H   LINE      CODE     ---       #295
      00FFB471H   LINE      CODE     ---       #297
      00FFB478H   LINE      CODE     ---       #299
      00FFB487H   LINE      CODE     ---       #300
      00FFB48EH   LINE      CODE     ---       #301
      00FFB491H   LINE      CODE     ---       #302
      00FFB494H   LINE      CODE     ---       #303
      00FFB497H   LINE      CODE     ---       #304
      00FFB49AH   LINE      CODE     ---       #305
      00FFB4A7H   LINE      CODE     ---       #306
      00FFB4BEH   LINE      CODE     ---       #307
      00FFB4C2H   LINE      CODE     ---       #308
      ---         BLOCKEND  ---      ---       LVL=0
      000110CBH   SYMBOL    XDATA    BYTE      cmd
      000110CCH   SYMBOL    XDATA    BYTE      val
      00010E44H   SYMBOL    XDATA    BYTE      cmd
      00010E45H   SYMBOL    XDATA    ---       dat_addr
L251 LINKER/LOCATER V4.66.93.0                                                        06/23/2025  18:43:06  PAGE 73


      00010E49H   SYMBOL    XDATA    DWORD     len

      00FFB057H   BLOCK     CODE     ---       LVL=0
      00010E4DH   SYMBOL    XDATA    BYTE      cmd
      00010E4EH   SYMBOL    XDATA    ---       val
      00010E52H   SYMBOL    XDATA    DWORD     num
      00FFB057H   LINE      CODE     ---       #365
      00FFB06FH   LINE      CODE     ---       #367
      00FFB079H   LINE      CODE     ---       #368
      00FFB080H   LINE      CODE     ---       #369
      00FFB082H   LINE      CODE     ---       #371
      00FFB0A9H   LINE      CODE     ---       #372
      00FFB0C6H   LINE      CODE     ---       #373
      ---         BLOCKEND  ---      ---       LVL=0
      000110CDH   SYMBOL    XDATA    BYTE      reg
      000110CEH   SYMBOL    XDATA    BYTE      dat
      00010E56H   SYMBOL    XDATA    BYTE      reg
      00010E57H   SYMBOL    XDATA    ---       dat
      00010E5BH   SYMBOL    XDATA    DWORD     len
      00011109H   SYMBOL    XDATA    BYTE      reg
      00000454H   SYMBOL    EDATA    ---       dat

      00FFB5E7H   BLOCK     CODE     ---       LVL=0
      00010E5FH   SYMBOL    XDATA    BYTE      reg
      00010E60H   SYMBOL    XDATA    ---       dat
      00010E64H   SYMBOL    XDATA    DWORD     len
      00FFB5E7H   LINE      CODE     ---       #431
      00FFB5FFH   LINE      CODE     ---       #433
      00FFB602H   LINE      CODE     ---       #434
      00FFB623H   LINE      CODE     ---       #435
      00FFB626H   LINE      CODE     ---       #436
      ---         BLOCKEND  ---      ---       LVL=0
      00000444H   SYMBOL    EDATA    BYTE      dat
      0001110AH   SYMBOL    XDATA    BYTE      return_state
      00000445H   SYMBOL    EDATA    WORD      timeout_count
      00000008H   SYMBOL    EDATA    ---       dat

      00FFB417H   BLOCK     CODE     ---       LVL=0
      0000000FH   SYMBOL    EDATA    ---       dat
      00FFB417H   LINE      CODE     ---       #497
      00FFB417H   LINE      CODE     ---       #498
      00FFB417H   LINE      CODE     ---       #508
      00FFB424H   LINE      CODE     ---       #509
      00FFB43CH   LINE      CODE     ---       #510
      00FFB454H   LINE      CODE     ---       #511
      00FFB46CH   LINE      CODE     ---       #513
      ---         BLOCKEND  ---      ---       LVL=0

      00FFAD41H   BLOCK     CODE     ---       LVL=0
      00010FAEH   SYMBOL    XDATA    INT       acc_value
      00FFAD47H   BLOCK     CODE     NEAR LAB  LVL=1
      00010FB0H   SYMBOL    XDATA    FLOAT     acc_dat
      ---         BLOCKEND  ---      ---       LVL=1
      00FFAD41H   LINE      CODE     ---       #522
      00FFAD47H   LINE      CODE     ---       #523
      00FFAD47H   LINE      CODE     ---       #524
      00FFAD53H   LINE      CODE     ---       #525
      00FFAD65H   LINE      CODE     ---       #527
      00FFAD65H   LINE      CODE     ---       #528
      00FFAD83H   LINE      CODE     ---       #529
      00FFAD85H   LINE      CODE     ---       #530
      00FFAD85H   LINE      CODE     ---       #531
      00FFADA3H   LINE      CODE     ---       #532
      00FFADA5H   LINE      CODE     ---       #533
      00FFADA5H   LINE      CODE     ---       #534
L251 LINKER/LOCATER V4.66.93.0                                                        06/23/2025  18:43:06  PAGE 74


      00FFADC3H   LINE      CODE     ---       #535
      00FFADC5H   LINE      CODE     ---       #536
      00FFADC5H   LINE      CODE     ---       #537
      00FFADE3H   LINE      CODE     ---       #538
      00FFADE3H   LINE      CODE     ---       #539
      00FFADE3H   LINE      CODE     ---       #540
      00FFADE3H   LINE      CODE     ---       #541
      00FFADE3H   LINE      CODE     ---       #542
      00FFADEDH   LINE      CODE     ---       #543
      ---         BLOCKEND  ---      ---       LVL=0
      00010FB4H   SYMBOL    XDATA    INT       gyro_value
      00010FB6H   SYMBOL    XDATA    FLOAT     gyro_dat
      0000046DH   SYMBOL    EDATA    BYTE      return_state

      ---         MODULE    ---      ---       SEEKFREE_IMU963RA
      00010BF8H   PUBLIC    XDATA    INT       imu963ra_acc_x
      00010BFAH   PUBLIC    XDATA    INT       imu963ra_acc_y
      00010BFCH   PUBLIC    XDATA    INT       imu963ra_acc_z
      00010BFEH   PUBLIC    XDATA    INT       imu963ra_mag_x
      00010C00H   PUBLIC    XDATA    INT       imu963ra_mag_y
      00010C02H   PUBLIC    XDATA    INT       imu963ra_mag_z
      00010C04H   PUBLIC    XDATA    INT       imu963ra_gyro_x
      00010C06H   PUBLIC    XDATA    INT       imu963ra_gyro_y
      00010C08H   PUBLIC    XDATA    INT       imu963ra_gyro_z
      000000D0H   SFRSYM    DATA     BYTE      PSW
      0000009DH   SFRSYM    DATA     BYTE      IRCBAND
      00000097H   SFRSYM    DATA     BYTE      AUXR2
      000000EFH   SFRSYM    DATA     BYTE      AUXINTIF
      000000FDH   SFRSYM    DATA     BYTE      S4CON
      000000ACH   SFRSYM    DATA     BYTE      S3CON
      0000009AH   SFRSYM    DATA     BYTE      S2CON
      000000B7H   SFRSYM    DATA     BYTE      IPH
      000000CDH   SFRSYM    DATA     BYTE      SPSTAT
      000000DDH   SFRSYM    DATA     BYTE      T4T3M
      000000C1H   SFRSYM    DATA     BYTE      WDT_CONTR
      000000DFH   SFRSYM    DATA     BYTE      IP3
      000000F4H   SFRSYM    DATA     BYTE      USBCON
      000000B5H   SFRSYM    DATA     BYTE      IP2
      000000FFH   SFRSYM    DATA     BYTE      RSTCFG
      000000F9H   SFRSYM    DATA     BYTE      LINICR
      0000008EH   SFRSYM    DATA     BYTE      AUXR
      000000AFH   SFRSYM    DATA     BYTE      IE2
      000000C0H.3 SFRSYM    DATA     BIT       P43
      000000C0H.2 SFRSYM    DATA     BIT       P42
      00000088H   SFRSYM    DATA     BYTE      TCON
      000000C0H.1 SFRSYM    DATA     BIT       P41
      00000098H   SFRSYM    DATA     BYTE      SCON
      000000C0H.0 SFRSYM    DATA     BIT       P40
      000000F1H   SFRSYM    DATA     BYTE      CANICR
      00000087H   SFRSYM    DATA     BYTE      PCON
      000000BCH   SFRSYM    DATA     BYTE      ADC_CONTR
      000000E7H   SFRSYM    DATA     BYTE      CMPCR2
      000000E6H   SFRSYM    DATA     BYTE      CMPCR1
      000000B8H   SFRSYM    DATA     BYTE      IP
      0000008FH   SFRSYM    DATA     BYTE      INTCLKO
      000000EEH   SFRSYM    DATA     BYTE      IP3H
      000000B6H   SFRSYM    DATA     BYTE      IP2H
      000000A8H   SFRSYM    DATA     BYTE      IE
      000000BBH   SFRSYM    DATA     BYTE      P_SW3
      000000BAH   SFRSYM    DATA     BYTE      P_SW2
      000000A2H   SFRSYM    DATA     BYTE      P_SW1
      000000CEH   SFRSYM    DATA     BYTE      SPCTL
      000000F8H   SFRSYM    DATA     BYTE      P7
      000000E8H   SFRSYM    DATA     BYTE      P6
      000000C8H   SFRSYM    DATA     BYTE      P5
L251 LINKER/LOCATER V4.66.93.0                                                        06/23/2025  18:43:06  PAGE 75


      000000C0H   SFRSYM    DATA     BYTE      P4
      000000B0H   SFRSYM    DATA     BYTE      P3
      000000A0H   SFRSYM    DATA     BYTE      P2
      00000090H   SFRSYM    DATA     BYTE      P1
      00000080H   SFRSYM    DATA     BYTE      P0
      0001110BH   SYMBOL    XDATA    BYTE      byte
      0000046EH   SYMBOL    EDATA    BYTE      i
      000110CFH   SYMBOL    XDATA    BYTE      cmd
      000110D0H   SYMBOL    XDATA    BYTE      val
      0001101CH   SYMBOL    XDATA    BYTE      cmd
      0001101DH   SYMBOL    XDATA    ---       val
      00010E68H   SYMBOL    XDATA    BYTE      cmd
      00010E69H   SYMBOL    XDATA    ---       val
      00010E6DH   SYMBOL    XDATA    DWORD     num
      000110D1H   SYMBOL    XDATA    BYTE      reg
      000110D2H   SYMBOL    XDATA    BYTE      dat
      0001110CH   SYMBOL    XDATA    BYTE      reg
      0000046FH   SYMBOL    EDATA    BYTE      dat
      00010E71H   SYMBOL    XDATA    BYTE      reg
      00010E72H   SYMBOL    XDATA    ---       dat
      00010E76H   SYMBOL    XDATA    DWORD     len
      0001109BH   SYMBOL    XDATA    BYTE      addr
      0001109CH   SYMBOL    XDATA    BYTE      reg
      0001109DH   SYMBOL    XDATA    BYTE      dat
      00000447H   SYMBOL    EDATA    BYTE      return_state
      00000448H   SYMBOL    EDATA    WORD      timeout_count
      000110D3H   SYMBOL    XDATA    BYTE      addr
      000110D4H   SYMBOL    XDATA    BYTE      reg
      00000456H   SYMBOL    EDATA    WORD      timeout_count
      000110D5H   SYMBOL    XDATA    BYTE      addr
      000110D6H   SYMBOL    XDATA    BYTE      reg
      0000042AH   SYMBOL    EDATA    BYTE      return_state
      0000042BH   SYMBOL    EDATA    BYTE      dat
      0000042CH   SYMBOL    EDATA    WORD      timeout_count
      0000042EH   SYMBOL    EDATA    BYTE      return_state
      0000042FH   SYMBOL    EDATA    BYTE      dat
      00000430H   SYMBOL    EDATA    WORD      timeout_count
      00000402H   SYMBOL    EDATA    ---       dat
      00000408H   SYMBOL    EDATA    ---       dat
      00000016H   SYMBOL    EDATA    BYTE      temp_status
      00000017H   SYMBOL    EDATA    ---       dat
      00010FBAH   SYMBOL    XDATA    INT       acc_value
      00010FBCH   SYMBOL    XDATA    FLOAT     acc_dat
      00010FC0H   SYMBOL    XDATA    INT       gyro_value
      00010FC2H   SYMBOL    XDATA    FLOAT     gyro_dat
      00010FC6H   SYMBOL    XDATA    INT       mag_value
      00010FC8H   SYMBOL    XDATA    FLOAT     mag_dat
      00000470H   SYMBOL    EDATA    BYTE      return_state

      ---         MODULE    ---      ---       SEEKFREE_IPS114_SPI
      00010C6CH   PUBLIC    XDATA    BYTE      ?ips114_showfloat?BYTE
      000000D0H   SFRSYM    DATA     BYTE      PSW
      0000009DH   SFRSYM    DATA     BYTE      IRCBAND
      00000097H   SFRSYM    DATA     BYTE      AUXR2
      000000EFH   SFRSYM    DATA     BYTE      AUXINTIF
      000000FDH   SFRSYM    DATA     BYTE      S4CON
      000000ACH   SFRSYM    DATA     BYTE      S3CON
      0000009AH   SFRSYM    DATA     BYTE      S2CON
      000000B7H   SFRSYM    DATA     BYTE      IPH
      000000CDH   SFRSYM    DATA     BYTE      SPSTAT
      000000DDH   SFRSYM    DATA     BYTE      T4T3M
      000000C1H   SFRSYM    DATA     BYTE      WDT_CONTR
      000000DFH   SFRSYM    DATA     BYTE      IP3
      000000F4H   SFRSYM    DATA     BYTE      USBCON
      000000B5H   SFRSYM    DATA     BYTE      IP2
L251 LINKER/LOCATER V4.66.93.0                                                        06/23/2025  18:43:06  PAGE 76


      000000FFH   SFRSYM    DATA     BYTE      RSTCFG
      000000F9H   SFRSYM    DATA     BYTE      LINICR
      0000008EH   SFRSYM    DATA     BYTE      AUXR
      000000AFH   SFRSYM    DATA     BYTE      IE2
      000000A0H.7 SFRSYM    DATA     BIT       P27
      00000088H   SFRSYM    DATA     BYTE      TCON
      00000098H   SFRSYM    DATA     BYTE      SCON
      000000A0H.2 SFRSYM    DATA     BIT       P22
      000000A0H.1 SFRSYM    DATA     BIT       P21
      000000A0H.0 SFRSYM    DATA     BIT       P20
      000000F1H   SFRSYM    DATA     BYTE      CANICR
      00000087H   SFRSYM    DATA     BYTE      PCON
      000000BCH   SFRSYM    DATA     BYTE      ADC_CONTR
      000000E7H   SFRSYM    DATA     BYTE      CMPCR2
      000000E6H   SFRSYM    DATA     BYTE      CMPCR1
      000000B8H   SFRSYM    DATA     BYTE      IP
      0000008FH   SFRSYM    DATA     BYTE      INTCLKO
      000000EEH   SFRSYM    DATA     BYTE      IP3H
      000000B6H   SFRSYM    DATA     BYTE      IP2H
      000000A8H   SFRSYM    DATA     BYTE      IE
      000000BBH   SFRSYM    DATA     BYTE      P_SW3
      000000BAH   SFRSYM    DATA     BYTE      P_SW2
      000000A2H   SFRSYM    DATA     BYTE      P_SW1
      000000CEH   SFRSYM    DATA     BYTE      SPCTL
      000000F8H   SFRSYM    DATA     BYTE      P7
      000000E8H   SFRSYM    DATA     BYTE      P6
      000000C8H   SFRSYM    DATA     BYTE      P5
      000000C0H   SFRSYM    DATA     BYTE      P4
      000000B0H   SFRSYM    DATA     BYTE      P3
      000000A0H   SFRSYM    DATA     BYTE      P2
      00000090H   SFRSYM    DATA     BYTE      P1
      00000080H   SFRSYM    DATA     BYTE      P0
      0001110DH   SYMBOL    XDATA    BYTE      dat
      0001110EH   SYMBOL    XDATA    BYTE      dat
      000110D7H   SYMBOL    XDATA    WORD      dat
      00000458H   SYMBOL    EDATA    ---       dat1
      00010EDDH   SYMBOL    XDATA    WORD      x1
      00010EDFH   SYMBOL    XDATA    WORD      y1
      00010EE1H   SYMBOL    XDATA    WORD      x2
      00010EE3H   SYMBOL    XDATA    WORD      y2
      00011069H   SYMBOL    XDATA    WORD      color
      0000045AH   SYMBOL    EDATA    WORD      i
      0001106BH   SYMBOL    XDATA    WORD      j
      00010FCCH   SYMBOL    XDATA    WORD      x
      00010FCEH   SYMBOL    XDATA    WORD      y
      00010FD0H   SYMBOL    XDATA    WORD      color
      00010FD2H   SYMBOL    XDATA    WORD      x
      00010FD4H   SYMBOL    XDATA    WORD      y
      00010FD6H   SYMBOL    XDATA    CHAR      dat
      0000045CH   SYMBOL    EDATA    BYTE      i
      00010FD7H   SYMBOL    XDATA    BYTE      j
      0000045DH   SYMBOL    EDATA    BYTE      temp
      00010EE5H   SYMBOL    XDATA    WORD      x
      00010EE7H   SYMBOL    XDATA    WORD      y
      00010EE9H   SYMBOL    XDATA    ---       dat
      0000045EH   SYMBOL    EDATA    WORD      j
      00011021H   SYMBOL    XDATA    WORD      x
      00011023H   SYMBOL    XDATA    WORD      y
      00011025H   SYMBOL    XDATA    CHAR      dat
      00000432H   SYMBOL    EDATA    ---       a
      00000435H   SYMBOL    EDATA    BYTE      i
      00011026H   SYMBOL    XDATA    WORD      x
      00011028H   SYMBOL    XDATA    WORD      y
      0001102AH   SYMBOL    XDATA    BYTE      dat
      00000436H   SYMBOL    EDATA    ---       a
L251 LINKER/LOCATER V4.66.93.0                                                        06/23/2025  18:43:06  PAGE 77


      00000439H   SYMBOL    EDATA    BYTE      i
      00010FD8H   SYMBOL    XDATA    WORD      x
      00010FDAH   SYMBOL    XDATA    WORD      y
      00010FDCH   SYMBOL    XDATA    INT       dat
      0000040EH   SYMBOL    EDATA    ---       a
      00000413H   SYMBOL    EDATA    BYTE      i
      00010FDEH   SYMBOL    XDATA    WORD      x
      00010FE0H   SYMBOL    XDATA    WORD      y
      00010FE2H   SYMBOL    XDATA    WORD      dat
      00000414H   SYMBOL    EDATA    ---       a
      00000419H   SYMBOL    EDATA    BYTE      i
      00010E7AH   SYMBOL    XDATA    WORD      x
      00010E7CH   SYMBOL    XDATA    WORD      y
      00010E7EH   SYMBOL    XDATA    LONG      dat
      00010E82H   SYMBOL    XDATA    BYTE      num
      000003C7H   SYMBOL    EDATA    ---       buff
      000003E9H   SYMBOL    EDATA    BYTE      length
      00010C6CH   SYMBOL    XDATA    WORD      x
      00010C6EH   SYMBOL    XDATA    WORD      y
      00010C70H   SYMBOL    XDATA    DOUBLE    dat
      00010C78H   SYMBOL    XDATA    BYTE      num
      00010C79H   SYMBOL    XDATA    BYTE      pointnum
      00000380H   SYMBOL    EDATA    BYTE      length
      00000381H   SYMBOL    EDATA    ---       buff
      000003A3H   SYMBOL    EDATA    CHAR      start
      00010C7AH   SYMBOL    XDATA    CHAR      end
      00010C7BH   SYMBOL    XDATA    CHAR      point

      ---         MODULE    ---      ---       SEEKFREE_OLED
      00FFAFD1H   PUBLIC    CODE     ---       oled_hexascii_spi
      00FFB664H   PUBLIC    CODE     ---       oled_set_pos_spi
      00FF9139H   PUBLIC    CODE     ---       oled_printf_float_spi
      00FFB8B8H   PUBLIC    CODE     ---       oled_wrcmd_spi
      00FFB8CDH   PUBLIC    CODE     ---       oled_wrdat_spi
      00FFB252H   PUBLIC    CODE     ---       oled_fill_spi
      00FFB784H   PUBLIC    CODE     ---       oled_uint16_spi
      00FFA613H   PUBLIC    CODE     ---       oled_p6x8str_spi
      00FFA980H   PUBLIC    CODE     ---       oled_init_spi
      000107EDH   PUBLIC    XDATA    BYTE      ?oled_printf_float?BYTE
      00010821H   PUBLIC    XDATA    BYTE      ?oled_printf_float_spi?BYTE
      000000D0H   SFRSYM    DATA     BYTE      PSW
      0000009DH   SFRSYM    DATA     BYTE      IRCBAND
      00000097H   SFRSYM    DATA     BYTE      AUXR2
      000000EFH   SFRSYM    DATA     BYTE      AUXINTIF
      000000FDH   SFRSYM    DATA     BYTE      S4CON
      000000ACH   SFRSYM    DATA     BYTE      S3CON
      0000009AH   SFRSYM    DATA     BYTE      S2CON
      000000B7H   SFRSYM    DATA     BYTE      IPH
      000000CDH   SFRSYM    DATA     BYTE      SPSTAT
      000000DDH   SFRSYM    DATA     BYTE      T4T3M
      000000C1H   SFRSYM    DATA     BYTE      WDT_CONTR
      000000DFH   SFRSYM    DATA     BYTE      IP3
      000000F4H   SFRSYM    DATA     BYTE      USBCON
      000000B5H   SFRSYM    DATA     BYTE      IP2
      000000FFH   SFRSYM    DATA     BYTE      RSTCFG
      000000F9H   SFRSYM    DATA     BYTE      LINICR
      0000008EH   SFRSYM    DATA     BYTE      AUXR
      000000AFH   SFRSYM    DATA     BYTE      IE2
      000000A0H.5 SFRSYM    DATA     BIT       P25
      000000A0H.4 SFRSYM    DATA     BIT       P24
      00000088H   SFRSYM    DATA     BYTE      TCON
      00000098H   SFRSYM    DATA     BYTE      SCON
      000000A0H.2 SFRSYM    DATA     BIT       P22
      000000A0H.1 SFRSYM    DATA     BIT       P21
      000000A0H.0 SFRSYM    DATA     BIT       P20
L251 LINKER/LOCATER V4.66.93.0                                                        06/23/2025  18:43:06  PAGE 78


      000000F1H   SFRSYM    DATA     BYTE      CANICR
      00000087H   SFRSYM    DATA     BYTE      PCON
      000000BCH   SFRSYM    DATA     BYTE      ADC_CONTR
      000000E7H   SFRSYM    DATA     BYTE      CMPCR2
      000000E6H   SFRSYM    DATA     BYTE      CMPCR1
      000000B8H   SFRSYM    DATA     BYTE      IP
      0000008FH   SFRSYM    DATA     BYTE      INTCLKO
      000000EEH   SFRSYM    DATA     BYTE      IP3H
      000000B6H   SFRSYM    DATA     BYTE      IP2H
      000000A8H   SFRSYM    DATA     BYTE      IE
      000000BBH   SFRSYM    DATA     BYTE      P_SW3
      000000BAH   SFRSYM    DATA     BYTE      P_SW2
      000000A2H   SFRSYM    DATA     BYTE      P_SW1
      000000CEH   SFRSYM    DATA     BYTE      SPCTL
      000000F8H   SFRSYM    DATA     BYTE      P7
      000000E8H   SFRSYM    DATA     BYTE      P6
      000000C8H   SFRSYM    DATA     BYTE      P5
      000000C0H   SFRSYM    DATA     BYTE      P4
      000000B0H   SFRSYM    DATA     BYTE      P3
      000000A0H   SFRSYM    DATA     BYTE      P2
      00000090H   SFRSYM    DATA     BYTE      P1
      00000080H   SFRSYM    DATA     BYTE      P0
      0001110FH   SYMBOL    XDATA    BYTE      dat
      00000471H   SYMBOL    EDATA    BYTE      i
      00011110H   SYMBOL    XDATA    BYTE      cmd
      00000472H   SYMBOL    EDATA    BYTE      i
      00010FE4H   SYMBOL    XDATA    WORD      hex
      00010FE6H   SYMBOL    XDATA    ---       Print
      00000460H   SYMBOL    EDATA    BYTE      hexcheck
      00000461H   SYMBOL    EDATA    BYTE      TEMP
      000110D9H   SYMBOL    XDATA    BYTE      x
      000110DAH   SYMBOL    XDATA    BYTE      y
      000110DBH   SYMBOL    XDATA    BYTE      bmp_data
      00000473H   SYMBOL    EDATA    BYTE      y
      000110DCH   SYMBOL    XDATA    BYTE      x
      0001109EH   SYMBOL    XDATA    BYTE      x
      0001109FH   SYMBOL    XDATA    BYTE      y
      000110A0H   SYMBOL    XDATA    BYTE      data1
      000110DDH   SYMBOL    XDATA    BYTE      x
      000110DEH   SYMBOL    XDATA    BYTE      y
      00010EEDH   SYMBOL    XDATA    BYTE      x
      00010EEEH   SYMBOL    XDATA    BYTE      y
      00010EEFH   SYMBOL    XDATA    ---       ch
      00000474H   SYMBOL    EDATA    BYTE      c
      00010EF3H   SYMBOL    XDATA    BYTE      i
      00010EF4H   SYMBOL    XDATA    BYTE      j
      00010DA4H   SYMBOL    XDATA    BYTE      x
      00010DA5H   SYMBOL    XDATA    BYTE      y
      00010DA6H   SYMBOL    XDATA    WORD      num
      00010DA8H   SYMBOL    XDATA    ---       ch
      00010DAFH   SYMBOL    XDATA    BYTE      x
      00010DB0H   SYMBOL    XDATA    BYTE      y
      00010DB1H   SYMBOL    XDATA    INT       num
      00010DB3H   SYMBOL    XDATA    ---       ch
      000108ECH   SYMBOL    XDATA    WORD      x
      000108EEH   SYMBOL    XDATA    WORD      y
      000108F0H   SYMBOL    XDATA    LONG      dat
      000108F4H   SYMBOL    XDATA    BYTE      num
      000108F5H   SYMBOL    XDATA    ---       buff
      00010917H   SYMBOL    XDATA    BYTE      length
      000107EDH   SYMBOL    XDATA    WORD      x
      000107EFH   SYMBOL    XDATA    WORD      y
      000107F1H   SYMBOL    XDATA    DOUBLE    dat
      000107F9H   SYMBOL    XDATA    BYTE      num
      000107FAH   SYMBOL    XDATA    BYTE      pointnum
L251 LINKER/LOCATER V4.66.93.0                                                        06/23/2025  18:43:06  PAGE 79


      000107FBH   SYMBOL    XDATA    BYTE      length
      000107FCH   SYMBOL    XDATA    ---       buff
      0001081EH   SYMBOL    XDATA    CHAR      start
      0001081FH   SYMBOL    XDATA    CHAR      end
      00010820H   SYMBOL    XDATA    CHAR      point
      00010C7CH   SYMBOL    XDATA    WORD      high
      00010C7EH   SYMBOL    XDATA    WORD      width
      00010C80H   SYMBOL    XDATA    ---       p
      00010C84H   SYMBOL    XDATA    BYTE      value
      00010C85H   SYMBOL    XDATA    WORD      i
      00000462H   SYMBOL    EDATA    WORD      j
      00010C87H   SYMBOL    XDATA    WORD      temp
      00010C89H   SYMBOL    XDATA    WORD      temp1
      00010C8BH   SYMBOL    XDATA    BYTE      dat
      00010CE5H   SYMBOL    XDATA    BYTE      x
      00010CE6H   SYMBOL    XDATA    BYTE      y
      00010CE7H   SYMBOL    XDATA    BYTE      size
      00010CE8H   SYMBOL    XDATA    ---       p
      00010CECH   SYMBOL    XDATA    BYTE      len
      00010CEDH   SYMBOL    XDATA    WORD      i
      00010CEFH   SYMBOL    XDATA    WORD      j
      00010CF1H   SYMBOL    XDATA    WORD      k

      00FFB8CDH   BLOCK     CODE     ---       LVL=0
      00011111H   SYMBOL    XDATA    BYTE      dat
      00FFB8CDH   LINE      CODE     ---       #506
      00FFB8D1H   LINE      CODE     ---       #508
      00FFB8D4H   LINE      CODE     ---       #509
      00FFB8D7H   LINE      CODE     ---       #510
      00FFB8DEH   LINE      CODE     ---       #511
      00FFB8E1H   LINE      CODE     ---       #514
      ---         BLOCKEND  ---      ---       LVL=0

      00FFB8B8H   BLOCK     CODE     ---       LVL=0
      00011112H   SYMBOL    XDATA    BYTE      cmd
      00FFB8B8H   LINE      CODE     ---       #548
      00FFB8BCH   LINE      CODE     ---       #550
      00FFB8BFH   LINE      CODE     ---       #551
      00FFB8C2H   LINE      CODE     ---       #552
      00FFB8C9H   LINE      CODE     ---       #553
      00FFB8CCH   LINE      CODE     ---       #554
      ---         BLOCKEND  ---      ---       LVL=0

      00FFAFD1H   BLOCK     CODE     ---       LVL=0
      00010FEAH   SYMBOL    XDATA    WORD      hex
      00010FECH   SYMBOL    XDATA    ---       Print
      00FFAFE1H   BLOCK     CODE     NEAR LAB  LVL=1
      00000464H   SYMBOL    EDATA    BYTE      hexcheck
      00000465H   SYMBOL    EDATA    BYTE      TEMP
      ---         BLOCKEND  ---      ---       LVL=1
      00FFAFD1H   LINE      CODE     ---       #563
      00FFAFE1H   LINE      CODE     ---       #564
      00FFAFE1H   LINE      CODE     ---       #567
      00FFAFE7H   LINE      CODE     ---       #568
      00FFAFFDH   LINE      CODE     ---       #569
      00FFAFFFH   LINE      CODE     ---       #571
      00FFB00BH   LINE      CODE     ---       #572
      00FFB01DH   LINE      CODE     ---       #573
      00FFB02CH   LINE      CODE     ---       #574
      00FFB04DH   LINE      CODE     ---       #575
      00FFB056H   LINE      CODE     ---       #577
      ---         BLOCKEND  ---      ---       LVL=0

      00FFA980H   BLOCK     CODE     ---       LVL=0
      00FFA980H   LINE      CODE     ---       #586
L251 LINKER/LOCATER V4.66.93.0                                                        06/23/2025  18:43:06  PAGE 80


      00FFA980H   LINE      CODE     ---       #589
      00FFA983H   LINE      CODE     ---       #591
      00FFA9A7H   LINE      CODE     ---       #593
      00FFA9AAH   LINE      CODE     ---       #594
      00FFA9B1H   LINE      CODE     ---       #595
      00FFA9B4H   LINE      CODE     ---       #597
      00FFA9B9H   LINE      CODE     ---       #598
      00FFA9BDH   LINE      CODE     ---       #599
      00FFA9C2H   LINE      CODE     ---       #600
      00FFA9C7H   LINE      CODE     ---       #601
      00FFA9CCH   LINE      CODE     ---       #602
      00FFA9D1H   LINE      CODE     ---       #605
      00FFA9D6H   LINE      CODE     ---       #606
      00FFA9DBH   LINE      CODE     ---       #612
      00FFA9E0H   LINE      CODE     ---       #613
      00FFA9E5H   LINE      CODE     ---       #614
      00FFA9EAH   LINE      CODE     ---       #615
      00FFA9EFH   LINE      CODE     ---       #616
      00FFA9F3H   LINE      CODE     ---       #617
      00FFA9F8H   LINE      CODE     ---       #618
      00FFA9FDH   LINE      CODE     ---       #619
      00FFAA02H   LINE      CODE     ---       #620
      00FFAA07H   LINE      CODE     ---       #621
      00FFAA0CH   LINE      CODE     ---       #622
      00FFAA11H   LINE      CODE     ---       #623
      00FFAA16H   LINE      CODE     ---       #624
      00FFAA1BH   LINE      CODE     ---       #625
      00FFAA20H   LINE      CODE     ---       #626
      00FFAA25H   LINE      CODE     ---       #627
      00FFAA2AH   LINE      CODE     ---       #628
      00FFAA2FH   LINE      CODE     ---       #629
      00FFAA34H   LINE      CODE     ---       #630
      00FFAA39H   LINE      CODE     ---       #631
      00FFAA3EH   LINE      CODE     ---       #632
      00FFAA42H   LINE      CODE     ---       #633
      00FFAA48H   LINE      CODE     ---       #634
      ---         BLOCKEND  ---      ---       LVL=0

      00FFB664H   BLOCK     CODE     ---       LVL=0
      000110DFH   SYMBOL    XDATA    BYTE      x
      000110E0H   SYMBOL    XDATA    BYTE      y
      00FFB664H   LINE      CODE     ---       #644
      00FFB66EH   LINE      CODE     ---       #648
      00FFB67BH   LINE      CODE     ---       #649
      00FFB693H   LINE      CODE     ---       #650
      00FFB6A0H   LINE      CODE     ---       #651
      ---         BLOCKEND  ---      ---       LVL=0

      00FFB252H   BLOCK     CODE     ---       LVL=0
      000110E1H   SYMBOL    XDATA    BYTE      bmp_data
      00FFB256H   BLOCK     CODE     NEAR LAB  LVL=1
      00000475H   SYMBOL    EDATA    BYTE      y
      000110E2H   SYMBOL    XDATA    BYTE      x
      ---         BLOCKEND  ---      ---       LVL=1
      00FFB252H   LINE      CODE     ---       #660
      00FFB256H   LINE      CODE     ---       #661
      00FFB256H   LINE      CODE     ---       #664
      00FFB25DH   LINE      CODE     ---       #666
      00FFB268H   LINE      CODE     ---       #667
      00FFB26DH   LINE      CODE     ---       #668
      00FFB272H   LINE      CODE     ---       #669
      00FFB297H   LINE      CODE     ---       #670
      00FFB2AEH   LINE      CODE     ---       #671
      ---         BLOCKEND  ---      ---       LVL=0
      000110A1H   SYMBOL    XDATA    BYTE      x
L251 LINKER/LOCATER V4.66.93.0                                                        06/23/2025  18:43:06  PAGE 81


      000110A2H   SYMBOL    XDATA    BYTE      y
      000110A3H   SYMBOL    XDATA    BYTE      data1
      000110E3H   SYMBOL    XDATA    BYTE      x
      000110E4H   SYMBOL    XDATA    BYTE      y

      00FFA613H   BLOCK     CODE     ---       LVL=0
      00010EF5H   SYMBOL    XDATA    BYTE      x
      00010EF6H   SYMBOL    XDATA    BYTE      y
      00010EF7H   SYMBOL    XDATA    ---       ch
      00FFA627H   BLOCK     CODE     NEAR LAB  LVL=1
      00000476H   SYMBOL    EDATA    BYTE      c
      00010EFBH   SYMBOL    XDATA    BYTE      i
      00010EFCH   SYMBOL    XDATA    BYTE      j
      ---         BLOCKEND  ---      ---       LVL=1
      00FFA613H   LINE      CODE     ---       #720
      00FFA627H   LINE      CODE     ---       #721
      00FFA627H   LINE      CODE     ---       #722
      00FFA636H   LINE      CODE     ---       #723
      00FFA639H   LINE      CODE     ---       #725
      00FFA65AH   LINE      CODE     ---       #726
      00FFA676H   LINE      CODE     ---       #727
      00FFA683H   LINE      CODE     ---       #728
      00FFA6C3H   LINE      CODE     ---       #729
      00FFA6CDH   LINE      CODE     ---       #730
      00FFA6D8H   LINE      CODE     ---       #731
      00FFA6F5H   LINE      CODE     ---       #732
      ---         BLOCKEND  ---      ---       LVL=0

      00FFB784H   BLOCK     CODE     ---       LVL=0
      00010DBAH   SYMBOL    XDATA    BYTE      x
      00010DBBH   SYMBOL    XDATA    BYTE      y
      00010DBCH   SYMBOL    XDATA    WORD      num
      00FFB794H   BLOCK     CODE     NEAR LAB  LVL=1
      00010DBEH   SYMBOL    XDATA    ---       ch
      ---         BLOCKEND  ---      ---       LVL=1
      00FFB784H   LINE      CODE     ---       #745
      00FFB794H   LINE      CODE     ---       #746
      00FFB794H   LINE      CODE     ---       #749
      00FFB7A5H   LINE      CODE     ---       #751
      00FFB7BAH   LINE      CODE     ---       #753
      ---         BLOCKEND  ---      ---       LVL=0
      00010DC5H   SYMBOL    XDATA    BYTE      x
      00010DC6H   SYMBOL    XDATA    BYTE      y
      00010DC7H   SYMBOL    XDATA    INT       num
      00010DC9H   SYMBOL    XDATA    ---       ch
      00010918H   SYMBOL    XDATA    WORD      x
      0001091AH   SYMBOL    XDATA    WORD      y
      0001091CH   SYMBOL    XDATA    LONG      dat
      00010920H   SYMBOL    XDATA    BYTE      num
      00010921H   SYMBOL    XDATA    ---       buff
      00010943H   SYMBOL    XDATA    BYTE      length

      00FF9139H   BLOCK     CODE     ---       LVL=0
      00010821H   SYMBOL    XDATA    WORD      x
      00010823H   SYMBOL    XDATA    WORD      y
      00010825H   SYMBOL    XDATA    DOUBLE    dat
      0001082DH   SYMBOL    XDATA    BYTE      num
      0001082EH   SYMBOL    XDATA    BYTE      pointnum
      00FF914FH   BLOCK     CODE     NEAR LAB  LVL=1
      0001082FH   SYMBOL    XDATA    BYTE      length
      00010830H   SYMBOL    XDATA    ---       buff
      00010852H   SYMBOL    XDATA    CHAR      start
      00010853H   SYMBOL    XDATA    CHAR      end
      00010854H   SYMBOL    XDATA    CHAR      point
      ---         BLOCKEND  ---      ---       LVL=1
L251 LINKER/LOCATER V4.66.93.0                                                        06/23/2025  18:43:06  PAGE 82


      00FF9139H   LINE      CODE     ---       #826
      00FF914FH   LINE      CODE     ---       #827
      00FF914FH   LINE      CODE     ---       #832
      00FF9161H   LINE      CODE     ---       #833
      00FF9173H   LINE      CODE     ---       #835
      00FF91CDH   LINE      CODE     ---       #838
      00FF920AH   LINE      CODE     ---       #839
      00FF9215H   LINE      CODE     ---       #840
      00FF9215H   LINE      CODE     ---       #841
      00FF9225H   LINE      CODE     ---       #842
      00FF923DH   LINE      CODE     ---       #843
      00FF9255H   LINE      CODE     ---       #844
      00FF9257H   LINE      CODE     ---       #846
      00FF926FH   LINE      CODE     ---       #847
      00FF927AH   LINE      CODE     ---       #848
      00FF9285H   LINE      CODE     ---       #849
      00FF9290H   LINE      CODE     ---       #851
      00FF92C5H   LINE      CODE     ---       #852
      00FF92DDH   LINE      CODE     ---       #854
      00FF92F4H   LINE      CODE     ---       #856
      00FF930BH   LINE      CODE     ---       #857
      ---         BLOCKEND  ---      ---       LVL=0
      00010C8CH   SYMBOL    XDATA    WORD      high
      00010C8EH   SYMBOL    XDATA    WORD      width
      00010C90H   SYMBOL    XDATA    ---       p
      00010C94H   SYMBOL    XDATA    BYTE      value
      00000466H   SYMBOL    EDATA    WORD      i
      00010C95H   SYMBOL    XDATA    WORD      j
      00010C97H   SYMBOL    XDATA    WORD      temp
      00010C99H   SYMBOL    XDATA    WORD      temp1
      00010C9BH   SYMBOL    XDATA    BYTE      dat
      00010CF3H   SYMBOL    XDATA    BYTE      x
      00010CF4H   SYMBOL    XDATA    BYTE      y
      00010CF5H   SYMBOL    XDATA    BYTE      size
      00010CF6H   SYMBOL    XDATA    ---       p
      00010CFAH   SYMBOL    XDATA    BYTE      len
      00010CFBH   SYMBOL    XDATA    WORD      i
      00010CFDH   SYMBOL    XDATA    WORD      j
      00010CFFH   SYMBOL    XDATA    WORD      k

      ---         MODULE    ---      ---       SEEKFREE_PRINTF
      00FF9689H   PUBLIC    CODE     ---       number_conversion_ascii
      00FF5A40H   PUBLIC    CODE     ---       zf_sprintf
      00FFA16FH   PUBLIC    CODE     ---       printf_reverse_order
      00010BBEH   PUBLIC    XDATA    BYTE      ?number_conversion_ascii?BYTE
      0001069BH   PUBLIC    XDATA    BYTE      ?zf_sprintf?BYTE
      000000D0H   SFRSYM    DATA     BYTE      PSW
      0000009DH   SFRSYM    DATA     BYTE      IRCBAND
      00000097H   SFRSYM    DATA     BYTE      AUXR2
      000000EFH   SFRSYM    DATA     BYTE      AUXINTIF
      000000FDH   SFRSYM    DATA     BYTE      S4CON
      000000ACH   SFRSYM    DATA     BYTE      S3CON
      0000009AH   SFRSYM    DATA     BYTE      S2CON
      000000B7H   SFRSYM    DATA     BYTE      IPH
      000000CDH   SFRSYM    DATA     BYTE      SPSTAT
      000000DDH   SFRSYM    DATA     BYTE      T4T3M
      000000C1H   SFRSYM    DATA     BYTE      WDT_CONTR
      000000DFH   SFRSYM    DATA     BYTE      IP3
      000000F4H   SFRSYM    DATA     BYTE      USBCON
      000000B5H   SFRSYM    DATA     BYTE      IP2
      000000FFH   SFRSYM    DATA     BYTE      RSTCFG
      000000F9H   SFRSYM    DATA     BYTE      LINICR
      0000008EH   SFRSYM    DATA     BYTE      AUXR
      000000AFH   SFRSYM    DATA     BYTE      IE2
      00000088H   SFRSYM    DATA     BYTE      TCON
L251 LINKER/LOCATER V4.66.93.0                                                        06/23/2025  18:43:06  PAGE 83


      00000098H   SFRSYM    DATA     BYTE      SCON
      000000F1H   SFRSYM    DATA     BYTE      CANICR
      00000087H   SFRSYM    DATA     BYTE      PCON
      000000BCH   SFRSYM    DATA     BYTE      ADC_CONTR
      000000E7H   SFRSYM    DATA     BYTE      CMPCR2
      000000E6H   SFRSYM    DATA     BYTE      CMPCR1
      000000B8H   SFRSYM    DATA     BYTE      IP
      0000008FH   SFRSYM    DATA     BYTE      INTCLKO
      000000EEH   SFRSYM    DATA     BYTE      IP3H
      000000B6H   SFRSYM    DATA     BYTE      IP2H
      000000A8H   SFRSYM    DATA     BYTE      IE
      000000BBH   SFRSYM    DATA     BYTE      P_SW3
      000000BAH   SFRSYM    DATA     BYTE      P_SW2
      000000A2H   SFRSYM    DATA     BYTE      P_SW1
      000000CEH   SFRSYM    DATA     BYTE      SPCTL
      000000F8H   SFRSYM    DATA     BYTE      P7
      000000E8H   SFRSYM    DATA     BYTE      P6
      000000C8H   SFRSYM    DATA     BYTE      P5
      000000C0H   SFRSYM    DATA     BYTE      P4
      000000B0H   SFRSYM    DATA     BYTE      P3
      000000A0H   SFRSYM    DATA     BYTE      P2
      00000090H   SFRSYM    DATA     BYTE      P1
      00000080H   SFRSYM    DATA     BYTE      P0

      00FF9689H   BLOCK     CODE     ---       LVL=0
      00010BBEH   SYMBOL    XDATA    DWORD     dat
      00010BC2H   SYMBOL    XDATA    ---       p
      00010BC6H   SYMBOL    XDATA    BYTE      neg_type
      00010BC7H   SYMBOL    XDATA    BYTE      radix
      00FF96A1H   BLOCK     CODE     NEAR LAB  LVL=1
      00010BC8H   SYMBOL    XDATA    LONG      neg_dat
      00010BCCH   SYMBOL    XDATA    DWORD     pos_dat
      00010BD0H   SYMBOL    XDATA    BYTE      temp_data
      00010BD1H   SYMBOL    XDATA    BYTE      valid_num
      ---         BLOCKEND  ---      ---       LVL=1
      00FF9689H   LINE      CODE     ---       #29
      00FF96A1H   LINE      CODE     ---       #30
      00FF96A1H   LINE      CODE     ---       #33
      00FF96A6H   LINE      CODE     ---       #34
      00FF96ABH   LINE      CODE     ---       #36
      00FF96B7H   LINE      CODE     ---       #38
      00FF96CBH   LINE      CODE     ---       #39
      00FF96F9H   LINE      CODE     ---       #40
      00FF96F9H   LINE      CODE     ---       #42
      00FF9721H   LINE      CODE     ---       #43
      00FF973DH   LINE      CODE     ---       #44
      00FF9748H   LINE      CODE     ---       #46
      00FF9756H   LINE      CODE     ---       #47
      00FF9769H   LINE      CODE     ---       #48
      00FF976BH   LINE      CODE     ---       #49
      00FF976EH   LINE      CODE     ---       #52
      00FF9782H   LINE      CODE     ---       #53
      00FF9782H   LINE      CODE     ---       #55
      00FF979DH   LINE      CODE     ---       #56
      00FF97B5H   LINE      CODE     ---       #57
      00FF97BFH   LINE      CODE     ---       #59
      00FF97D0H   LINE      CODE     ---       #61
      00FF97ECH   LINE      CODE     ---       #62
      00FF97F7H   LINE      CODE     ---       #64
      00FF9805H   LINE      CODE     ---       #65
      00FF9818H   LINE      CODE     ---       #66
      00FF981BH   LINE      CODE     ---       #67
      00FF981BH   LINE      CODE     ---       #68
      00FF981FH   LINE      CODE     ---       #69
      ---         BLOCKEND  ---      ---       LVL=0
L251 LINKER/LOCATER V4.66.93.0                                                        06/23/2025  18:43:06  PAGE 84



      00FFA16FH   BLOCK     CODE     ---       LVL=0
      00010D2AH   SYMBOL    XDATA    ---       d_buff
      00010D2EH   SYMBOL    XDATA    DWORD     len
      00FFA183H   BLOCK     CODE     NEAR LAB  LVL=1
      00010D32H   SYMBOL    XDATA    DWORD     i
      00010D36H   SYMBOL    XDATA    CHAR      temp_data
      ---         BLOCKEND  ---      ---       LVL=1
      00FFA16FH   LINE      CODE     ---       #71
      00FFA183H   LINE      CODE     ---       #72
      00FFA183H   LINE      CODE     ---       #75
      00FFA192H   LINE      CODE     ---       #77
      00FFA1C3H   LINE      CODE     ---       #78
      00FFA20BH   LINE      CODE     ---       #79
      00FFA22AH   LINE      CODE     ---       #80
      00FFA267H   LINE      CODE     ---       #81
      ---         BLOCKEND  ---      ---       LVL=0

      00FF5A40H   BLOCK     CODE     ---       LVL=0
      0001069BH   SYMBOL    XDATA    ---       buff
      0001069FH   SYMBOL    XDATA    ---       format
      00FF5A54H   BLOCK     CODE     NEAR LAB  LVL=1
      000106A3H   SYMBOL    XDATA    DWORD     buff_len
      000106A7H   SYMBOL    XDATA    ---       arg
      00FF5A75H   BLOCK     CODE     NEAR LAB  LVL=2
      000106ABH   SYMBOL    XDATA    CHAR      ret
      00FF5BB9H   BLOCK     CODE     NEAR LAB  LVL=3
      000106ACH   SYMBOL    XDATA    CHAR      ch
      ---         BLOCKEND  ---      ---       LVL=3
      00FF5C1FH   BLOCK     CODE     NEAR LAB  LVL=3
      000106ACH   SYMBOL    XDATA    ---       vstr
      000106CDH   SYMBOL    XDATA    LONG      ival
      000106D1H   SYMBOL    XDATA    BYTE      vlen
      ---         BLOCKEND  ---      ---       LVL=3
      00FF5D0AH   BLOCK     CODE     NEAR LAB  LVL=3
      000106ACH   SYMBOL    XDATA    ---       vstr
      000106CDH   SYMBOL    XDATA    DOUBLE    ival
      000106D5H   SYMBOL    XDATA    BYTE      vlen
      ---         BLOCKEND  ---      ---       LVL=3
      00FF5F9FH   BLOCK     CODE     NEAR LAB  LVL=3
      000106ACH   SYMBOL    XDATA    ---       vstr
      000106CDH   SYMBOL    XDATA    DWORD     ival
      000106D1H   SYMBOL    XDATA    BYTE      vlen
      ---         BLOCKEND  ---      ---       LVL=3
      00FF6056H   BLOCK     CODE     NEAR LAB  LVL=3
      000106ACH   SYMBOL    XDATA    ---       vstr
      000106CDH   SYMBOL    XDATA    DWORD     ival
      000106D1H   SYMBOL    XDATA    BYTE      vlen
      ---         BLOCKEND  ---      ---       LVL=3
      00FF610DH   BLOCK     CODE     NEAR LAB  LVL=3
      000106ACH   SYMBOL    XDATA    ---       vstr
      000106CDH   SYMBOL    XDATA    DWORD     ival
      000106D1H   SYMBOL    XDATA    BYTE      vlen
      ---         BLOCKEND  ---      ---       LVL=3
      00FF61C4H   BLOCK     CODE     NEAR LAB  LVL=3
      000106ACH   SYMBOL    XDATA    ---       pc
      ---         BLOCKEND  ---      ---       LVL=3
      00FF6260H   BLOCK     CODE     NEAR LAB  LVL=3
      000106ACH   SYMBOL    XDATA    ---       vstr
      000106CDH   SYMBOL    XDATA    DWORD     ival
      ---         BLOCKEND  ---      ---       LVL=3
      ---         BLOCKEND  ---      ---       LVL=2
      ---         BLOCKEND  ---      ---       LVL=1
      00FF5A40H   LINE      CODE     ---       #216
      00FF5A54H   LINE      CODE     ---       #217
L251 LINKER/LOCATER V4.66.93.0                                                        06/23/2025  18:43:06  PAGE 85


      00FF5A54H   LINE      CODE     ---       #218
      00FF5A60H   LINE      CODE     ---       #220
      00FF5A72H   LINE      CODE     ---       #222
      00FF5A75H   LINE      CODE     ---       #223
      00FF5A75H   LINE      CODE     ---       #224
      00FF5A86H   LINE      CODE     ---       #225
      00FF5A92H   LINE      CODE     ---       #227
      00FF5BB6H   LINE      CODE     ---       #229
      00FF5BB6H   LINE      CODE     ---       #233
      00FF5BB9H   LINE      CODE     ---       #236
      00FF5BB9H   LINE      CODE     ---       #237
      00FF5BB9H   LINE      CODE     ---       #238
      00FF5BE1H   LINE      CODE     ---       #239
      00FF5BF2H   LINE      CODE     ---       #240
      00FF5C05H   LINE      CODE     ---       #241
      00FF5C1CH   LINE      CODE     ---       #243
      00FF5C1FH   LINE      CODE     ---       #246
      00FF5C1FH   LINE      CODE     ---       #247
      00FF5C1FH   LINE      CODE     ---       #248
      00FF5C1FH   LINE      CODE     ---       #250
      00FF5C4DH   LINE      CODE     ---       #251
      00FF5C6EH   LINE      CODE     ---       #253
      00FF5C7EH   LINE      CODE     ---       #255
      00FF5C96H   LINE      CODE     ---       #256
      00FF5CA1H   LINE      CODE     ---       #257
      00FF5CA1H   LINE      CODE     ---       #258
      00FF5CB4H   LINE      CODE     ---       #259
      00FF5CD3H   LINE      CODE     ---       #260
      00FF5CECH   LINE      CODE     ---       #261
      00FF5D07H   LINE      CODE     ---       #264
      00FF5D0AH   LINE      CODE     ---       #266
      00FF5D0AH   LINE      CODE     ---       #267
      00FF5D0AH   LINE      CODE     ---       #268
      00FF5D0AH   LINE      CODE     ---       #270
      00FF5D4AH   LINE      CODE     ---       #271
      00FF5D76H   LINE      CODE     ---       #273
      00FF5D91H   LINE      CODE     ---       #275
      00FF5DA9H   LINE      CODE     ---       #276
      00FF5DB4H   LINE      CODE     ---       #277
      00FF5DB4H   LINE      CODE     ---       #278
      00FF5DC7H   LINE      CODE     ---       #279
      00FF5DE6H   LINE      CODE     ---       #280
      00FF5DFFH   LINE      CODE     ---       #281
      00FF5E1AH   LINE      CODE     ---       #283
      00FF5E6CH   LINE      CODE     ---       #284
      00FF5E8AH   LINE      CODE     ---       #286
      00FF5EB6H   LINE      CODE     ---       #287
      00FF5EB8H   LINE      CODE     ---       #290
      00FF5EDCH   LINE      CODE     ---       #291
      00FF5EE2H   LINE      CODE     ---       #292
      00FF5EE2H   LINE      CODE     ---       #294
      00FF5EE4H   LINE      CODE     ---       #296
      00FF5EFCH   LINE      CODE     ---       #297
      00FF5F07H   LINE      CODE     ---       #298
      00FF5F13H   LINE      CODE     ---       #300
      00FF5F2BH   LINE      CODE     ---       #301
      00FF5F36H   LINE      CODE     ---       #303
      00FF5F49H   LINE      CODE     ---       #304
      00FF5F68H   LINE      CODE     ---       #305
      00FF5F81H   LINE      CODE     ---       #306
      00FF5F9CH   LINE      CODE     ---       #308
      00FF5F9FH   LINE      CODE     ---       #311
      00FF5F9FH   LINE      CODE     ---       #312
      00FF5F9FH   LINE      CODE     ---       #314
      00FF5FCDH   LINE      CODE     ---       #315
L251 LINKER/LOCATER V4.66.93.0                                                        06/23/2025  18:43:06  PAGE 86


      00FF5FEDH   LINE      CODE     ---       #317
      00FF6000H   LINE      CODE     ---       #318
      00FF601FH   LINE      CODE     ---       #319
      00FF6038H   LINE      CODE     ---       #320
      00FF6053H   LINE      CODE     ---       #321
      00FF6056H   LINE      CODE     ---       #323
      00FF6056H   LINE      CODE     ---       #324
      00FF6056H   LINE      CODE     ---       #326
      00FF6084H   LINE      CODE     ---       #327
      00FF60A4H   LINE      CODE     ---       #329
      00FF60B7H   LINE      CODE     ---       #330
      00FF60D6H   LINE      CODE     ---       #331
      00FF60EFH   LINE      CODE     ---       #332
      00FF610AH   LINE      CODE     ---       #334
      00FF610DH   LINE      CODE     ---       #336
      00FF610DH   LINE      CODE     ---       #337
      00FF610DH   LINE      CODE     ---       #338
      00FF610DH   LINE      CODE     ---       #340
      00FF613BH   LINE      CODE     ---       #341
      00FF615BH   LINE      CODE     ---       #343
      00FF616EH   LINE      CODE     ---       #344
      00FF618DH   LINE      CODE     ---       #345
      00FF61A6H   LINE      CODE     ---       #346
      00FF61C1H   LINE      CODE     ---       #347
      00FF61C4H   LINE      CODE     ---       #350
      00FF61C4H   LINE      CODE     ---       #351
      00FF61C4H   LINE      CODE     ---       #352
      00FF61F2H   LINE      CODE     ---       #353
      00FF61F4H   LINE      CODE     ---       #355
      00FF620EH   LINE      CODE     ---       #356
      00FF6221H   LINE      CODE     ---       #357
      00FF6238H   LINE      CODE     ---       #358
      00FF624BH   LINE      CODE     ---       #359
      00FF625DH   LINE      CODE     ---       #360
      00FF6260H   LINE      CODE     ---       #362
      00FF6260H   LINE      CODE     ---       #363
      00FF6260H   LINE      CODE     ---       #365
      00FF628EH   LINE      CODE     ---       #367
      00FF62AAH   LINE      CODE     ---       #369
      00FF62B9H   LINE      CODE     ---       #370
      00FF62D6H   LINE      CODE     ---       #371
      00FF62EBH   LINE      CODE     ---       #372
      00FF6302H   LINE      CODE     ---       #374
      00FF6305H   LINE      CODE     ---       #377
      00FF6305H   LINE      CODE     ---       #379
      00FF6314H   LINE      CODE     ---       #380
      00FF6327H   LINE      CODE     ---       #381
      00FF633EH   LINE      CODE     ---       #382
      00FF6340H   LINE      CODE     ---       #384
      00FF6340H   LINE      CODE     ---       #385
      00FF6340H   LINE      CODE     ---       #386
      00FF6340H   LINE      CODE     ---       #389
      00FF635AH   LINE      CODE     ---       #390
      00FF636DH   LINE      CODE     ---       #391
      00FF6384H   LINE      CODE     ---       #392
      00FF6384H   LINE      CODE     ---       #393
      00FF6397H   LINE      CODE     ---       #394
      00FF63ACH   LINE      CODE     ---       #397
      00FF63B6H   LINE      CODE     ---       #398
      ---         BLOCKEND  ---      ---       LVL=0

      ---         MODULE    ---      ---       SEEKFREE_TSL1401
      00000021H   PUBLIC    EDATA    BYTE      tsl1401_finish_flag
      00000022H   PUBLIC    EDATA    ---       ccd_data_ch1
      00000122H   PUBLIC    EDATA    ---       ccd_data_ch2
L251 LINKER/LOCATER V4.66.93.0                                                        06/23/2025  18:43:06  PAGE 87


      000000D0H   SFRSYM    DATA     BYTE      PSW
      0000009DH   SFRSYM    DATA     BYTE      IRCBAND
      00000097H   SFRSYM    DATA     BYTE      AUXR2
      000000EFH   SFRSYM    DATA     BYTE      AUXINTIF
      000000FDH   SFRSYM    DATA     BYTE      S4CON
      000000ACH   SFRSYM    DATA     BYTE      S3CON
      0000009AH   SFRSYM    DATA     BYTE      S2CON
      000000B7H   SFRSYM    DATA     BYTE      IPH
      000000CDH   SFRSYM    DATA     BYTE      SPSTAT
      000000DDH   SFRSYM    DATA     BYTE      T4T3M
      000000C1H   SFRSYM    DATA     BYTE      WDT_CONTR
      000000DFH   SFRSYM    DATA     BYTE      IP3
      000000F4H   SFRSYM    DATA     BYTE      USBCON
      000000B5H   SFRSYM    DATA     BYTE      IP2
      000000FFH   SFRSYM    DATA     BYTE      RSTCFG
      000000F9H   SFRSYM    DATA     BYTE      LINICR
      0000008EH   SFRSYM    DATA     BYTE      AUXR
      000000AFH   SFRSYM    DATA     BYTE      IE2
      000000B0H.7 SFRSYM    DATA     BIT       P37
      000000B0H.6 SFRSYM    DATA     BIT       P36
      00000088H   SFRSYM    DATA     BYTE      TCON
      00000098H   SFRSYM    DATA     BYTE      SCON
      000000F1H   SFRSYM    DATA     BYTE      CANICR
      00000087H   SFRSYM    DATA     BYTE      PCON
      000000BCH   SFRSYM    DATA     BYTE      ADC_CONTR
      000000E7H   SFRSYM    DATA     BYTE      CMPCR2
      000000E6H   SFRSYM    DATA     BYTE      CMPCR1
      000000B8H   SFRSYM    DATA     BYTE      IP
      0000008FH   SFRSYM    DATA     BYTE      INTCLKO
      000000EEH   SFRSYM    DATA     BYTE      IP3H
      000000B6H   SFRSYM    DATA     BYTE      IP2H
      000000A8H   SFRSYM    DATA     BYTE      IE
      000000BBH   SFRSYM    DATA     BYTE      P_SW3
      000000BAH   SFRSYM    DATA     BYTE      P_SW2
      000000A2H   SFRSYM    DATA     BYTE      P_SW1
      000000CEH   SFRSYM    DATA     BYTE      SPCTL
      000000F8H   SFRSYM    DATA     BYTE      P7
      000000E8H   SFRSYM    DATA     BYTE      P6
      000000C8H   SFRSYM    DATA     BYTE      P5
      000000C0H   SFRSYM    DATA     BYTE      P4
      000000B0H   SFRSYM    DATA     BYTE      P3
      000000A0H   SFRSYM    DATA     BYTE      P2
      00000090H   SFRSYM    DATA     BYTE      P1
      00000080H   SFRSYM    DATA     BYTE      P0
      00010F44H   SYMBOL    XDATA    INT       uart_n
      00010F46H   SYMBOL    XDATA    ---       dat
      00010F4AH   SYMBOL    XDATA    BYTE      i
      00011113H   SYMBOL    XDATA    BYTE      i

      ---         MODULE    ---      ---       SEEKFREE_WIRELESS
      000000D0H   SFRSYM    DATA     BYTE      PSW
      0000009DH   SFRSYM    DATA     BYTE      IRCBAND
      00000097H   SFRSYM    DATA     BYTE      AUXR2
      000000EFH   SFRSYM    DATA     BYTE      AUXINTIF
      000000FDH   SFRSYM    DATA     BYTE      S4CON
      000000ACH   SFRSYM    DATA     BYTE      S3CON
      0000009AH   SFRSYM    DATA     BYTE      S2CON
      000000B7H   SFRSYM    DATA     BYTE      IPH
      000000CDH   SFRSYM    DATA     BYTE      SPSTAT
      000000DDH   SFRSYM    DATA     BYTE      T4T3M
      000000C1H   SFRSYM    DATA     BYTE      WDT_CONTR
      000000DFH   SFRSYM    DATA     BYTE      IP3
      000000F4H   SFRSYM    DATA     BYTE      USBCON
      000000B5H   SFRSYM    DATA     BYTE      IP2
      000000FFH   SFRSYM    DATA     BYTE      RSTCFG
L251 LINKER/LOCATER V4.66.93.0                                                        06/23/2025  18:43:06  PAGE 88


      000000F9H   SFRSYM    DATA     BYTE      LINICR
      0000008EH   SFRSYM    DATA     BYTE      AUXR
      000000AFH   SFRSYM    DATA     BYTE      IE2
      00000080H.7 SFRSYM    DATA     BIT       P07
      00000088H   SFRSYM    DATA     BYTE      TCON
      00000098H   SFRSYM    DATA     BYTE      SCON
      000000F1H   SFRSYM    DATA     BYTE      CANICR
      00000087H   SFRSYM    DATA     BYTE      PCON
      000000BCH   SFRSYM    DATA     BYTE      ADC_CONTR
      000000E7H   SFRSYM    DATA     BYTE      CMPCR2
      000000E6H   SFRSYM    DATA     BYTE      CMPCR1
      000000B8H   SFRSYM    DATA     BYTE      IP
      0000008FH   SFRSYM    DATA     BYTE      INTCLKO
      000000EEH   SFRSYM    DATA     BYTE      IP3H
      000000B6H   SFRSYM    DATA     BYTE      IP2H
      000000A8H   SFRSYM    DATA     BYTE      IE
      000000BBH   SFRSYM    DATA     BYTE      P_SW3
      000000BAH   SFRSYM    DATA     BYTE      P_SW2
      000000A2H   SFRSYM    DATA     BYTE      P_SW1
      000000CEH   SFRSYM    DATA     BYTE      SPCTL
      000000F8H   SFRSYM    DATA     BYTE      P7
      000000E8H   SFRSYM    DATA     BYTE      P6
      000000C8H   SFRSYM    DATA     BYTE      P5
      000000C0H   SFRSYM    DATA     BYTE      P4
      000000B0H   SFRSYM    DATA     BYTE      P3
      000000A0H   SFRSYM    DATA     BYTE      P2
      00000090H   SFRSYM    DATA     BYTE      P1
      00000080H   SFRSYM    DATA     BYTE      P0
      00000305H   SYMBOL    EDATA    ---       wireless_uart_fifo
      0000031CH   SYMBOL    EDATA    ---       wireless_uart_buffer
      00011114H   SYMBOL    XDATA    BYTE      dat
      00011115H   SYMBOL    XDATA    BYTE      dat
      00010EFDH   SYMBOL    XDATA    ---       buff
      00010F01H   SYMBOL    XDATA    DWORD     len
      00010F05H   SYMBOL    XDATA    ---       buff
      00010F09H   SYMBOL    XDATA    DWORD     len
      0000043AH   SYMBOL    EDATA    DWORD     data_len
      00010F0DH   SYMBOL    XDATA    ---       buff
      00010F11H   SYMBOL    XDATA    DWORD     length

      ---         MODULE    ---      ---       SEEKFREE_GPS_TAU1201
      00FF9820H   PUBLIC    CODE     ---       gps_uart_callback
      00010017H   PUBLIC    XDATA    BYTE      gps_tau1201_flag
      00010098H   PUBLIC    XDATA    ---       gps_tau1201
      000101CCH   PUBLIC    XDATA    INT       gps_gga_state
      000101CEH   PUBLIC    XDATA    INT       gps_rmc_state
      000106D6H   PUBLIC    XDATA    BYTE      ?get_two_points_distance?BYTE
      000107B5H   PUBLIC    XDATA    BYTE      ?get_two_points_azimuth?BYTE
      000000D0H   SFRSYM    DATA     BYTE      PSW
      0000009DH   SFRSYM    DATA     BYTE      IRCBAND
      00000097H   SFRSYM    DATA     BYTE      AUXR2
      000000EFH   SFRSYM    DATA     BYTE      AUXINTIF
      000000FDH   SFRSYM    DATA     BYTE      S4CON
      000000ACH   SFRSYM    DATA     BYTE      S3CON
      0000009AH   SFRSYM    DATA     BYTE      S2CON
      000000B7H   SFRSYM    DATA     BYTE      IPH
      000000CDH   SFRSYM    DATA     BYTE      SPSTAT
      000000DDH   SFRSYM    DATA     BYTE      T4T3M
      000000C1H   SFRSYM    DATA     BYTE      WDT_CONTR
      000000DFH   SFRSYM    DATA     BYTE      IP3
      000000F4H   SFRSYM    DATA     BYTE      USBCON
      000000B5H   SFRSYM    DATA     BYTE      IP2
      000000FFH   SFRSYM    DATA     BYTE      RSTCFG
      000000F9H   SFRSYM    DATA     BYTE      LINICR
      0000008EH   SFRSYM    DATA     BYTE      AUXR
L251 LINKER/LOCATER V4.66.93.0                                                        06/23/2025  18:43:06  PAGE 89


      000000AFH   SFRSYM    DATA     BYTE      IE2
      00000088H   SFRSYM    DATA     BYTE      TCON
      00000098H   SFRSYM    DATA     BYTE      SCON
      000000F1H   SFRSYM    DATA     BYTE      CANICR
      00000087H   SFRSYM    DATA     BYTE      PCON
      000000BCH   SFRSYM    DATA     BYTE      ADC_CONTR
      000000E7H   SFRSYM    DATA     BYTE      CMPCR2
      000000E6H   SFRSYM    DATA     BYTE      CMPCR1
      000000B8H   SFRSYM    DATA     BYTE      IP
      0000008FH   SFRSYM    DATA     BYTE      INTCLKO
      000000EEH   SFRSYM    DATA     BYTE      IP3H
      000000B6H   SFRSYM    DATA     BYTE      IP2H
      000000A8H   SFRSYM    DATA     BYTE      IE
      000000BBH   SFRSYM    DATA     BYTE      P_SW3
      000000BAH   SFRSYM    DATA     BYTE      P_SW2
      000000A2H   SFRSYM    DATA     BYTE      P_SW1
      000000CEH   SFRSYM    DATA     BYTE      SPCTL
      000000F8H   SFRSYM    DATA     BYTE      P7
      000000E8H   SFRSYM    DATA     BYTE      P6
      000000C8H   SFRSYM    DATA     BYTE      P5
      000000C0H   SFRSYM    DATA     BYTE      P4
      000000B0H   SFRSYM    DATA     BYTE      P3
      000000A0H   SFRSYM    DATA     BYTE      P2
      00000090H   SFRSYM    DATA     BYTE      P1
      00000080H   SFRSYM    DATA     BYTE      P0
      00FFBDEDH   SYMBOL    HCONST   ---       ?tpl?0001
      00FFBDF2H   SYMBOL    HCONST   ---       ?tpl?0002
      00FFBE0EH   SYMBOL    HCONST   ---       ?tpl?0003
      00FFBE19H   SYMBOL    HCONST   ---       ?tpl?0004
      00FFBE24H   SYMBOL    HCONST   ---       ?tpl?0005
      00FFBE2FH   SYMBOL    HCONST   ---       ?tpl?0006
      00FFBE3AH   SYMBOL    HCONST   ---       ?tpl?0007
      00FFBE45H   SYMBOL    HCONST   ---       ?tpl?0008
      00FFBE50H   SYMBOL    HCONST   ---       ?tpl?0009
      00FFBE5BH   SYMBOL    HCONST   ---       ?tpl?000A
      00FFBE66H   SYMBOL    HCONST   ---       ?tpl?000B
      00FFBE71H   SYMBOL    HCONST   ---       ?tpl?000C
      00FFBE7CH   SYMBOL    HCONST   ---       ?tpl?000D
      00010000H   SYMBOL    XDATA    ---       gps_tau1201_receiver_fifo
      00010018H   SYMBOL    XDATA    ---       gps_gga_buffer
      000100CBH   SYMBOL    XDATA    BYTE      gps_tau1201_state
      000100CCH   SYMBOL    XDATA    ---       gps_rmc_buffer
      0001014CH   SYMBOL    XDATA    ---       gps_tau1201_receiver_buffer
      00010D37H   SYMBOL    XDATA    BYTE      num
      00010D38H   SYMBOL    XDATA    ---       str
      00010D3CH   SYMBOL    XDATA    BYTE      i
      00010D3DH   SYMBOL    XDATA    BYTE      j
      00010D3EH   SYMBOL    XDATA    ---       temp
      00010D42H   SYMBOL    XDATA    BYTE      len
      00010D43H   SYMBOL    XDATA    BYTE      len1
      00010C1BH   SYMBOL    XDATA    ---       s
      00010C1FH   SYMBOL    XDATA    ---       buf
      00010C29H   SYMBOL    XDATA    BYTE      i
      00010C2AH   SYMBOL    XDATA    INT       return_value
      00010B50H   SYMBOL    XDATA    ---       s
      00010B54H   SYMBOL    XDATA    BYTE      i
      00010B55H   SYMBOL    XDATA    ---       buf
      00010B64H   SYMBOL    XDATA    FLOAT     return_value
      00010ABAH   SYMBOL    XDATA    ---       s
      00010ABEH   SYMBOL    XDATA    BYTE      i
      00010ABFH   SYMBOL    XDATA    ---       buf
      00010ACEH   SYMBOL    XDATA    DOUBLE    return_value
      0001102BH   SYMBOL    XDATA    ---       time
      0001102FH   SYMBOL    XDATA    BYTE      day_num
      00010736H   SYMBOL    XDATA    ---       line
L251 LINKER/LOCATER V4.66.93.0                                                        06/23/2025  18:43:06  PAGE 90


      0001073AH   SYMBOL    XDATA    ---       gps
      0001073EH   SYMBOL    XDATA    BYTE      state
      0001073FH   SYMBOL    XDATA    BYTE      temp
      00010740H   SYMBOL    XDATA    DOUBLE    latitude
      00010748H   SYMBOL    XDATA    DOUBLE    longitude
      00010750H   SYMBOL    XDATA    DOUBLE    lati_cent_tmp
      00010758H   SYMBOL    XDATA    DOUBLE    lati_second_tmp
      00010760H   SYMBOL    XDATA    DOUBLE    long_cent_tmp
      00010768H   SYMBOL    XDATA    DOUBLE    long_second_tmp
      00010770H   SYMBOL    XDATA    FLOAT     speed_tmp
      00010774H   SYMBOL    XDATA    ---       buf
      00010778H   SYMBOL    XDATA    BYTE      return_state
      00010D01H   SYMBOL    XDATA    ---       line
      00010D05H   SYMBOL    XDATA    ---       gps
      00010D09H   SYMBOL    XDATA    BYTE      state
      00010D0AH   SYMBOL    XDATA    ---       buf
      00010D0EH   SYMBOL    XDATA    BYTE      return_state
      000106D6H   SYMBOL    XDATA    DOUBLE    latitude1
      000106DEH   SYMBOL    XDATA    DOUBLE    longitude1
      000106E6H   SYMBOL    XDATA    DOUBLE    latitude2
      000106EEH   SYMBOL    XDATA    DOUBLE    longitude2
      000106F6H   SYMBOL    XDATA    DOUBLE    EARTH_RADIUS
      000106FEH   SYMBOL    XDATA    DOUBLE    rad_latitude1
      00010706H   SYMBOL    XDATA    DOUBLE    rad_latitude2
      0001070EH   SYMBOL    XDATA    DOUBLE    rad_longitude1
      00010716H   SYMBOL    XDATA    DOUBLE    rad_longitude2
      0001071EH   SYMBOL    XDATA    DOUBLE    distance
      00010726H   SYMBOL    XDATA    DOUBLE    a
      0001072EH   SYMBOL    XDATA    DOUBLE    b
      000107B5H   SYMBOL    XDATA    DOUBLE    latitude1
      000107BDH   SYMBOL    XDATA    DOUBLE    longitude1
      000107C5H   SYMBOL    XDATA    DOUBLE    latitude2
      000107CDH   SYMBOL    XDATA    DOUBLE    longitude2
      000107D5H   SYMBOL    XDATA    DOUBLE    x
      000107DDH   SYMBOL    XDATA    DOUBLE    y
      000107E5H   SYMBOL    XDATA    DOUBLE    angle
      00010D74H   SYMBOL    XDATA    BYTE      return_state
      00010D75H   SYMBOL    XDATA    ---       check_buffer
      00010D7AH   SYMBOL    XDATA    BYTE      bbc_xor_origin
      00010D7BH   SYMBOL    XDATA    BYTE      bbc_xor_calculation
      00010D7CH   SYMBOL    XDATA    DWORD     data_len

      00FF9820H   BLOCK     CODE     ---       LVL=0
      00010DD0H   SYMBOL    XDATA    BYTE      uart_dat
      00FF9824H   BLOCK     CODE     NEAR LAB  LVL=1
      00010DD1H   SYMBOL    XDATA    ---       temp_gps
      00010DD7H   SYMBOL    XDATA    DWORD     temp_length
      ---         BLOCKEND  ---      ---       LVL=1
      00FF9820H   LINE      CODE     ---       #473
      00FF9824H   LINE      CODE     ---       #474
      00FF9824H   LINE      CODE     ---       #476
      00FF9830H   LINE      CODE     ---       #478
      00FF983CH   LINE      CODE     ---       #480
      00FF985DH   LINE      CODE     ---       #481
      00FF9869H   LINE      CODE     ---       #484
      00FF9877H   LINE      CODE     ---       #485
      00FF98A6H   LINE      CODE     ---       #488
      00FF98C6H   LINE      CODE     ---       #491
      00FF98D7H   LINE      CODE     ---       #493
      00FF98E1H   LINE      CODE     ---       #494
      00FF98F6H   LINE      CODE     ---       #495
      00FF9923H   LINE      CODE     ---       #496
      00FF9925H   LINE      CODE     ---       #498
      00FF9945H   LINE      CODE     ---       #501
      00FF9953H   LINE      CODE     ---       #503
L251 LINKER/LOCATER V4.66.93.0                                                        06/23/2025  18:43:06  PAGE 91


      00FF995DH   LINE      CODE     ---       #504
      00FF9972H   LINE      CODE     ---       #505
      00FF999FH   LINE      CODE     ---       #506
      00FF999FH   LINE      CODE     ---       #510
      00FF99AAH   LINE      CODE     ---       #512
      00FF99B0H   LINE      CODE     ---       #513
      00FF99B0H   LINE      CODE     ---       #515
      ---         BLOCKEND  ---      ---       LVL=0
      00010551H   SYMBOL    XDATA    ---       set_rate
      0001056DH   SYMBOL    XDATA    ---       open_gga
      00010578H   SYMBOL    XDATA    ---       open_rmc
      00010583H   SYMBOL    XDATA    ---       close_gll
      0001058EH   SYMBOL    XDATA    ---       close_gsa
      00010599H   SYMBOL    XDATA    ---       close_grs
      000105A4H   SYMBOL    XDATA    ---       close_gsv
      000105AFH   SYMBOL    XDATA    ---       close_vtg
      000105BAH   SYMBOL    XDATA    ---       close_zda
      000105C5H   SYMBOL    XDATA    ---       close_gst
      000105D0H   SYMBOL    XDATA    ---       close_txt
      000105DBH   SYMBOL    XDATA    ---       close_txt_ant

      ---         MODULE    ---      ---       SEEKFREE_IPS200_SPI
      00010B80H   PUBLIC    XDATA    BYTE      ?ips200_draw_line?BYTE
      000108BDH   PUBLIC    XDATA    BYTE      ?ips200_show_float?BYTE
      00010A07H   PUBLIC    XDATA    BYTE      ?ips200_show_wave?BYTE
      00010AEFH   PUBLIC    XDATA    BYTE      ?ips200_show_chinese?BYTE
      000000D0H   SFRSYM    DATA     BYTE      PSW
      0000009DH   SFRSYM    DATA     BYTE      IRCBAND
      00000097H   SFRSYM    DATA     BYTE      AUXR2
      000000EFH   SFRSYM    DATA     BYTE      AUXINTIF
      000000FDH   SFRSYM    DATA     BYTE      S4CON
      000000ACH   SFRSYM    DATA     BYTE      S3CON
      0000009AH   SFRSYM    DATA     BYTE      S2CON
      000000B7H   SFRSYM    DATA     BYTE      IPH
      000000CDH   SFRSYM    DATA     BYTE      SPSTAT
      000000DDH   SFRSYM    DATA     BYTE      T4T3M
      000000C1H   SFRSYM    DATA     BYTE      WDT_CONTR
      000000DFH   SFRSYM    DATA     BYTE      IP3
      000000F4H   SFRSYM    DATA     BYTE      USBCON
      000000B5H   SFRSYM    DATA     BYTE      IP2
      000000FFH   SFRSYM    DATA     BYTE      RSTCFG
      000000F9H   SFRSYM    DATA     BYTE      LINICR
      0000008EH   SFRSYM    DATA     BYTE      AUXR
      000000AFH   SFRSYM    DATA     BYTE      IE2
      000000A0H.7 SFRSYM    DATA     BIT       P27
      00000088H   SFRSYM    DATA     BYTE      TCON
      00000098H   SFRSYM    DATA     BYTE      SCON
      000000A0H.2 SFRSYM    DATA     BIT       P22
      000000A0H.1 SFRSYM    DATA     BIT       P21
      000000A0H.0 SFRSYM    DATA     BIT       P20
      000000F1H   SFRSYM    DATA     BYTE      CANICR
      00000087H   SFRSYM    DATA     BYTE      PCON
      000000BCH   SFRSYM    DATA     BYTE      ADC_CONTR
      000000E7H   SFRSYM    DATA     BYTE      CMPCR2
      000000E6H   SFRSYM    DATA     BYTE      CMPCR1
      000000B8H   SFRSYM    DATA     BYTE      IP
      0000008FH   SFRSYM    DATA     BYTE      INTCLKO
      000000EEH   SFRSYM    DATA     BYTE      IP3H
      000000B6H   SFRSYM    DATA     BYTE      IP2H
      000000A8H   SFRSYM    DATA     BYTE      IE
      000000BBH   SFRSYM    DATA     BYTE      P_SW3
      000000BAH   SFRSYM    DATA     BYTE      P_SW2
      000000A2H   SFRSYM    DATA     BYTE      P_SW1
      000000CEH   SFRSYM    DATA     BYTE      SPCTL
      000000F8H   SFRSYM    DATA     BYTE      P7
L251 LINKER/LOCATER V4.66.93.0                                                        06/23/2025  18:43:06  PAGE 92


      000000E8H   SFRSYM    DATA     BYTE      P6
      000000C8H   SFRSYM    DATA     BYTE      P5
      000000C0H   SFRSYM    DATA     BYTE      P4
      000000B0H   SFRSYM    DATA     BYTE      P3
      000000A0H   SFRSYM    DATA     BYTE      P2
      00000090H   SFRSYM    DATA     BYTE      P1
      00000080H   SFRSYM    DATA     BYTE      P0
      00010D0FH   SYMBOL    XDATA    WORD      ips200_pencolor
      00010D11H   SYMBOL    XDATA    WORD      ips200_bgcolor
      00010D13H   SYMBOL    XDATA    INT       ips200_display_font
      00010D15H   SYMBOL    XDATA    INT       ips200_display_dir
      00010D17H   SYMBOL    XDATA    WORD      ips200_x_max
      00010D19H   SYMBOL    XDATA    INT       ips200_display_type
      00010D1BH   SYMBOL    XDATA    WORD      ips200_y_max
      00011116H   SYMBOL    XDATA    BYTE      dat
      0001106DH   SYMBOL    XDATA    WORD      dat
      0001106FH   SYMBOL    XDATA    ---       dat1
      00011117H   SYMBOL    XDATA    BYTE      command
      00011118H   SYMBOL    XDATA    BYTE      dat
      000110E5H   SYMBOL    XDATA    WORD      dat
      00010F15H   SYMBOL    XDATA    WORD      x1
      00010F17H   SYMBOL    XDATA    WORD      y1
      00010F19H   SYMBOL    XDATA    WORD      x2
      00010F1BH   SYMBOL    XDATA    WORD      y2
      00011071H   SYMBOL    XDATA    WORD      i
      00011073H   SYMBOL    XDATA    WORD      j
      00010FF0H   SYMBOL    XDATA    WORD      color
      00010FF2H   SYMBOL    XDATA    WORD      i
      00010FF4H   SYMBOL    XDATA    WORD      j
      000110E7H   SYMBOL    XDATA    INT       dir
      000110E9H   SYMBOL    XDATA    INT       font
      00011075H   SYMBOL    XDATA    WORD      pen
      00011077H   SYMBOL    XDATA    WORD      bgcolor
      00010FF6H   SYMBOL    XDATA    WORD      x
      00010FF8H   SYMBOL    XDATA    WORD      y
      00010FFAH   SYMBOL    XDATA    WORD      color
      00010B80H   SYMBOL    XDATA    WORD      x_start
      00010B82H   SYMBOL    XDATA    WORD      y_start
      00010B84H   SYMBOL    XDATA    WORD      x_end
      00010B86H   SYMBOL    XDATA    WORD      y_end
      00010B88H   SYMBOL    XDATA    WORD      color
      00010B8AH   SYMBOL    XDATA    INT       x_dir
      00010B8CH   SYMBOL    XDATA    INT       y_dir
      00010B8EH   SYMBOL    XDATA    FLOAT     temp_rate
      00010B92H   SYMBOL    XDATA    FLOAT     temp_b
      00010E83H   SYMBOL    XDATA    WORD      x
      00010E85H   SYMBOL    XDATA    WORD      y
      00010E87H   SYMBOL    XDATA    CHAR      dat
      00010E88H   SYMBOL    XDATA    BYTE      i
      00010E89H   SYMBOL    XDATA    BYTE      j
      00010E8AH   SYMBOL    XDATA    BYTE      temp_top
      00010E8BH   SYMBOL    XDATA    BYTE      temp_bottom
      00010E03H   SYMBOL    XDATA    WORD      x
      00010E05H   SYMBOL    XDATA    WORD      y
      00010E07H   SYMBOL    XDATA    ---       dat
      00010E0BH   SYMBOL    XDATA    WORD      j
      00010A80H   SYMBOL    XDATA    WORD      x
      00010A82H   SYMBOL    XDATA    WORD      y
      00010A84H   SYMBOL    XDATA    LONG      dat
      00010A88H   SYMBOL    XDATA    BYTE      num
      00010A89H   SYMBOL    XDATA    LONG      dat_temp
      00010A8DH   SYMBOL    XDATA    LONG      offset
      00010A91H   SYMBOL    XDATA    ---       data_buffer
      00010A9DH   SYMBOL    XDATA    WORD      x
      00010A9FH   SYMBOL    XDATA    WORD      y
L251 LINKER/LOCATER V4.66.93.0                                                        06/23/2025  18:43:06  PAGE 93


      00010AA1H   SYMBOL    XDATA    DWORD     dat
      00010AA5H   SYMBOL    XDATA    BYTE      num
      00010AA6H   SYMBOL    XDATA    DWORD     dat_temp
      00010AAAH   SYMBOL    XDATA    LONG      offset
      00010AAEH   SYMBOL    XDATA    ---       data_buffer
      000108BDH   SYMBOL    XDATA    WORD      x
      000108BFH   SYMBOL    XDATA    WORD      y
      000108C1H   SYMBOL    XDATA    DOUBLE    dat
      000108C9H   SYMBOL    XDATA    BYTE      num
      000108CAH   SYMBOL    XDATA    BYTE      pointnum
      000108CBH   SYMBOL    XDATA    DOUBLE    dat_temp
      000108D3H   SYMBOL    XDATA    DOUBLE    offset
      000108DBH   SYMBOL    XDATA    ---       data_buffer
      00010A07H   SYMBOL    XDATA    WORD      x
      00010A09H   SYMBOL    XDATA    WORD      y
      00010A0BH   SYMBOL    XDATA    ---       wave
      00010A0FH   SYMBOL    XDATA    WORD      width
      00010A11H   SYMBOL    XDATA    WORD      value_max
      00010A13H   SYMBOL    XDATA    WORD      dis_width
      00010A15H   SYMBOL    XDATA    WORD      dis_value_max
      00010A17H   SYMBOL    XDATA    DWORD     i
      00010A1BH   SYMBOL    XDATA    DWORD     j
      00010A1FH   SYMBOL    XDATA    DWORD     width_index
      00010A23H   SYMBOL    XDATA    DWORD     value_max_index
      00010AEFH   SYMBOL    XDATA    WORD      x
      00010AF1H   SYMBOL    XDATA    WORD      y
      00010AF3H   SYMBOL    XDATA    BYTE      size
      00010AF4H   SYMBOL    XDATA    ---       chinese_buffer
      00010AF8H   SYMBOL    XDATA    BYTE      number
      00010AF9H   SYMBOL    XDATA    WORD      color
      00010AFBH   SYMBOL    XDATA    INT       i
      00010AFDH   SYMBOL    XDATA    INT       j
      00010AFFH   SYMBOL    XDATA    INT       k
      00010B01H   SYMBOL    XDATA    BYTE      temp
      00010B02H   SYMBOL    XDATA    BYTE      temp1
      00010B03H   SYMBOL    XDATA    BYTE      temp2
      00010B04H   SYMBOL    XDATA    ---       p_data

      ---         MODULE    ---      ---       SEEKFREE_MPU6050
      00010D80H   PUBLIC    XDATA    INT       mpu6050_acc_x
      00010D82H   PUBLIC    XDATA    INT       mpu6050_acc_y
      00010D84H   PUBLIC    XDATA    INT       mpu6050_acc_z
      00010D86H   PUBLIC    XDATA    INT       mpu6050_gyro_x
      00010D88H   PUBLIC    XDATA    INT       mpu6050_gyro_y
      00010D8AH   PUBLIC    XDATA    INT       mpu6050_gyro_z
      000000D0H   SFRSYM    DATA     BYTE      PSW
      0000009DH   SFRSYM    DATA     BYTE      IRCBAND
      00000097H   SFRSYM    DATA     BYTE      AUXR2
      000000EFH   SFRSYM    DATA     BYTE      AUXINTIF
      000000FDH   SFRSYM    DATA     BYTE      S4CON
      000000ACH   SFRSYM    DATA     BYTE      S3CON
      0000009AH   SFRSYM    DATA     BYTE      S2CON
      000000B7H   SFRSYM    DATA     BYTE      IPH
      000000CDH   SFRSYM    DATA     BYTE      SPSTAT
      000000DDH   SFRSYM    DATA     BYTE      T4T3M
      000000C1H   SFRSYM    DATA     BYTE      WDT_CONTR
      000000DFH   SFRSYM    DATA     BYTE      IP3
      000000F4H   SFRSYM    DATA     BYTE      USBCON
      000000B5H   SFRSYM    DATA     BYTE      IP2
      000000FFH   SFRSYM    DATA     BYTE      RSTCFG
      000000F9H   SFRSYM    DATA     BYTE      LINICR
      0000008EH   SFRSYM    DATA     BYTE      AUXR
      000000AFH   SFRSYM    DATA     BYTE      IE2
      000000C0H.4 SFRSYM    DATA     BIT       P44
      000000C0H.3 SFRSYM    DATA     BIT       P43
L251 LINKER/LOCATER V4.66.93.0                                                        06/23/2025  18:43:06  PAGE 94


      00000088H   SFRSYM    DATA     BYTE      TCON
      00000098H   SFRSYM    DATA     BYTE      SCON
      000000F1H   SFRSYM    DATA     BYTE      CANICR
      00000087H   SFRSYM    DATA     BYTE      PCON
      000000BCH   SFRSYM    DATA     BYTE      ADC_CONTR
      000000E7H   SFRSYM    DATA     BYTE      CMPCR2
      000000E6H   SFRSYM    DATA     BYTE      CMPCR1
      000000B8H   SFRSYM    DATA     BYTE      IP
      0000008FH   SFRSYM    DATA     BYTE      INTCLKO
      000000EEH   SFRSYM    DATA     BYTE      IP3H
      000000B6H   SFRSYM    DATA     BYTE      IP2H
      000000A8H   SFRSYM    DATA     BYTE      IE
      000000BBH   SFRSYM    DATA     BYTE      P_SW3
      000000BAH   SFRSYM    DATA     BYTE      P_SW2
      000000A2H   SFRSYM    DATA     BYTE      P_SW1
      000000CEH   SFRSYM    DATA     BYTE      SPCTL
      000000F8H   SFRSYM    DATA     BYTE      P7
      000000E8H   SFRSYM    DATA     BYTE      P6
      000000C8H   SFRSYM    DATA     BYTE      P5
      000000C0H   SFRSYM    DATA     BYTE      P4
      000000B0H   SFRSYM    DATA     BYTE      P3
      000000A0H   SFRSYM    DATA     BYTE      P2
      00000090H   SFRSYM    DATA     BYTE      P1
      00000080H   SFRSYM    DATA     BYTE      P0
      000110EBH   SYMBOL    XDATA    WORD      j
      00011119H   SYMBOL    XDATA    BYTE      ack_dat
      000110EDH   SYMBOL    XDATA    BYTE      c
      000110EEH   SYMBOL    XDATA    BYTE      i
      000110A4H   SYMBOL    XDATA    BYTE      ack_x
      000110A5H   SYMBOL    XDATA    BYTE      i
      000110A6H   SYMBOL    XDATA    BYTE      c
      000110A7H   SYMBOL    XDATA    BYTE      dev_add
      000110A8H   SYMBOL    XDATA    BYTE      reg
      000110A9H   SYMBOL    XDATA    BYTE      dat
      000110AAH   SYMBOL    XDATA    BYTE      dev_add
      000110ABH   SYMBOL    XDATA    BYTE      reg
      000110ACH   SYMBOL    XDATA    BYTE      dat
      00010F4BH   SYMBOL    XDATA    BYTE      dev_add
      00010F4CH   SYMBOL    XDATA    BYTE      reg
      00010F4DH   SYMBOL    XDATA    ---       dat_add
      00010F51H   SYMBOL    XDATA    BYTE      num
      00010FFCH   SYMBOL    XDATA    ---       dat
      00011002H   SYMBOL    XDATA    ---       dat

      ---         MODULE    ---      ---       isr
      00FFB4C3H   PUBLIC    CODE     ---       UART1_Isr
      00FFB55BH   PUBLIC    CODE     ---       UART2_Isr
      00FFB848H   PUBLIC    CODE     ---       UART3_Isr
      00FFB3BFH   PUBLIC    CODE     ---       UART4_Isr
      00FF0046H   PUBLIC    CODE     ---       INT0_Isr
      00FF000AH   PUBLIC    CODE     ---       INT1_Isr
      00FFB8E2H   PUBLIC    CODE     ---       INT2_Isr
      00FFB8EAH   PUBLIC    CODE     ---       INT3_Isr
      00FFB8F2H   PUBLIC    CODE     ---       INT4_Isr
      00FFA355H   PUBLIC    CODE     ---       TM0_Isr
      00FF7322H   PUBLIC    CODE     ---       TM1_Isr
      00FFB8FAH   PUBLIC    CODE     ---       TM2_Isr
      00FFB902H   PUBLIC    CODE     ---       TM3_Isr
      00FFB90AH   PUBLIC    CODE     ---       TM4_Isr
      00010998H   PUBLIC    XDATA    INT       positionReal
      0001099AH   PUBLIC    XDATA    FLOAT     Filtered_GyroZ
      0001099EH   PUBLIC    XDATA    FLOAT     Velo_Pid
      000109A2H   PUBLIC    XDATA    WORD      r_distance
      000109A4H   PUBLIC    XDATA    WORD      s_distance
      000109A6H   PUBLIC    XDATA    FLOAT     Turn_Pid
L251 LINKER/LOCATER V4.66.93.0                                                        06/23/2025  18:43:06  PAGE 95


      000109ABH   PUBLIC    XDATA    INT       g_SpeedPoint
      000109ADH   PUBLIC    XDATA    BYTE      r_position
      000109AEH   PUBLIC    XDATA    WORD      SysTick
      000109B0H   PUBLIC    XDATA    FLOAT     Gyro_Z
      000109B5H   PUBLIC    XDATA    INT       g_DutyRight
      000109B7H   PUBLIC    XDATA    INT       g_DutyLeft
      00000020H.1 PUBLIC    BIT      BIT       Gyro_Int
      000000D0H   SFRSYM    DATA     BYTE      PSW
      0000009DH   SFRSYM    DATA     BYTE      IRCBAND
      00000097H   SFRSYM    DATA     BYTE      AUXR2
      000000EFH   SFRSYM    DATA     BYTE      AUXINTIF
      000000FDH   SFRSYM    DATA     BYTE      S4CON
      000000ACH   SFRSYM    DATA     BYTE      S3CON
      0000009AH   SFRSYM    DATA     BYTE      S2CON
      000000FEH   SFRSYM    DATA     BYTE      S4BUF
      0000009BH   SFRSYM    DATA     BYTE      S2BUF
      000000B7H   SFRSYM    DATA     BYTE      IPH
      000000CDH   SFRSYM    DATA     BYTE      SPSTAT
      000000DDH   SFRSYM    DATA     BYTE      T4T3M
      000000C1H   SFRSYM    DATA     BYTE      WDT_CONTR
      000000DFH   SFRSYM    DATA     BYTE      IP3
      000000F4H   SFRSYM    DATA     BYTE      USBCON
      000000B5H   SFRSYM    DATA     BYTE      IP2
      000000FFH   SFRSYM    DATA     BYTE      RSTCFG
      000000C7H   SFRSYM    DATA     BYTE      IAP_CONTR
      000000F9H   SFRSYM    DATA     BYTE      LINICR
      0000008EH   SFRSYM    DATA     BYTE      AUXR
      000000AFH   SFRSYM    DATA     BYTE      IE2
      000000E8H.5 SFRSYM    DATA     BIT       P65
      000000E8H.4 SFRSYM    DATA     BIT       P64
      000000A0H.6 SFRSYM    DATA     BIT       P26
      000000C8H.2 SFRSYM    DATA     BIT       P52
      000000A0H.4 SFRSYM    DATA     BIT       P24
      00000088H   SFRSYM    DATA     BYTE      TCON
      00000098H   SFRSYM    DATA     BYTE      SCON
      000000F1H   SFRSYM    DATA     BYTE      CANICR
      00000087H   SFRSYM    DATA     BYTE      PCON
      00000099H   SFRSYM    DATA     BYTE      SBUF
      000000BCH   SFRSYM    DATA     BYTE      ADC_CONTR
      000000E7H   SFRSYM    DATA     BYTE      CMPCR2
      000000E6H   SFRSYM    DATA     BYTE      CMPCR1
      000000B8H   SFRSYM    DATA     BYTE      IP
      0000008FH   SFRSYM    DATA     BYTE      INTCLKO
      000000EEH   SFRSYM    DATA     BYTE      IP3H
      000000B6H   SFRSYM    DATA     BYTE      IP2H
      000000A8H   SFRSYM    DATA     BYTE      IE
      000000BBH   SFRSYM    DATA     BYTE      P_SW3
      000000BAH   SFRSYM    DATA     BYTE      P_SW2
      000000A2H   SFRSYM    DATA     BYTE      P_SW1
      000000CEH   SFRSYM    DATA     BYTE      SPCTL
      000000F8H   SFRSYM    DATA     BYTE      P7
      000000E8H   SFRSYM    DATA     BYTE      P6
      000000C8H   SFRSYM    DATA     BYTE      P5
      000000C0H   SFRSYM    DATA     BYTE      P4
      000000B0H   SFRSYM    DATA     BYTE      P3
      000000A0H   SFRSYM    DATA     BYTE      P2
      00000090H   SFRSYM    DATA     BYTE      P1
      00000080H   SFRSYM    DATA     BYTE      P0
      000109AAH   SYMBOL    XDATA    BYTE      beep_count
      000109B4H   SYMBOL    XDATA    BYTE      track_ten_cnt
      00000020H.0 SYMBOL    BIT      BIT       beep_flag

      00FFA355H   BLOCK     CODE     ---       LVL=0
      00FFA36BH   BLOCK     CODE     NEAR LAB  LVL=1
      000109B9H   SYMBOL    XDATA    INT       count
L251 LINKER/LOCATER V4.66.93.0                                                        06/23/2025  18:43:06  PAGE 96


      ---         BLOCKEND  ---      ---       LVL=1
      00FFA355H   LINE      CODE     ---       #55
      00FFA36BH   LINE      CODE     ---       #56
      00FFA36BH   LINE      CODE     ---       #58
      00FFA394H   LINE      CODE     ---       #60
      00FFA397H   LINE      CODE     ---       #62
      00FFA3A5H   LINE      CODE     ---       #63
      00FFA3B4H   LINE      CODE     ---       #64
      00FFA3B4H   LINE      CODE     ---       #67
      00FFA3C2H   LINE      CODE     ---       #70
      00FFA3C5H   LINE      CODE     ---       #71
      00FFA3CAH   LINE      CODE     ---       #72
      00FFA3CDH   LINE      CODE     ---       #75
      00FFA3D5H   LINE      CODE     ---       #76
      00FFA3D5H   LINE      CODE     ---       #79
      00FFA3D8H   LINE      CODE     ---       #81
      00FFA3E3H   LINE      CODE     ---       #83
      00FFA3EFH   LINE      CODE     ---       #85
      00FFA3F4H   LINE      CODE     ---       #86
      00FFA3F7H   LINE      CODE     ---       #87
      00FFA3FAH   LINE      CODE     ---       #88
      00FFA3FAH   LINE      CODE     ---       #92
      00FFA403H   LINE      CODE     ---       #95
      00FFA40EH   LINE      CODE     ---       #96
      00FFA41AH   LINE      CODE     ---       #98
      00FFA420H   LINE      CODE     ---       #99
      00FFA425H   LINE      CODE     ---       #100
      00FFA42AH   LINE      CODE     ---       #101
      00FFA42AH   LINE      CODE     ---       #104
      ---         BLOCKEND  ---      ---       LVL=0

      00FF7322H   BLOCK     CODE     ---       LVL=0
      00FF7338H   BLOCK     CODE     NEAR LAB  LVL=1
      000109BBH   SYMBOL    XDATA    INT       count
      ---         BLOCKEND  ---      ---       LVL=1
      00FF7322H   LINE      CODE     ---       #107
      00FF7338H   LINE      CODE     ---       #108
      00FF7338H   LINE      CODE     ---       #111
      00FF7361H   LINE      CODE     ---       #114
      00FF736AH   LINE      CODE     ---       #115
      00FF7373H   LINE      CODE     ---       #118
      00FF7392H   LINE      CODE     ---       #119
      00FF73B1H   LINE      CODE     ---       #122
      00FF73C8H   LINE      CODE     ---       #123
      00FF73DFH   LINE      CODE     ---       #126
      00FF73FCH   LINE      CODE     ---       #130
      00FF73FFH   LINE      CODE     ---       #131
      00FF7412H   LINE      CODE     ---       #135
      00FF741BH   LINE      CODE     ---       #137
      00FF7427H   LINE      CODE     ---       #138
      00FF7431H   LINE      CODE     ---       #139
      00FF7434H   LINE      CODE     ---       #140
      00FF743DH   LINE      CODE     ---       #142
      00FF7449H   LINE      CODE     ---       #143
      00FF7453H   LINE      CODE     ---       #144
      00FF7456H   LINE      CODE     ---       #145
      00FF745FH   LINE      CODE     ---       #147
      00FF746BH   LINE      CODE     ---       #148
      00FF7475H   LINE      CODE     ---       #149
      00FF7478H   LINE      CODE     ---       #150
      00FF7490H   LINE      CODE     ---       #152
      00FF749AH   LINE      CODE     ---       #154
      00FF74ABH   LINE      CODE     ---       #156
      00FF74BBH   LINE      CODE     ---       #158
      00FF74C3H   LINE      CODE     ---       #159
L251 LINKER/LOCATER V4.66.93.0                                                        06/23/2025  18:43:06  PAGE 97


      00FF74C6H   LINE      CODE     ---       #162
      00FF74CFH   LINE      CODE     ---       #164
      00FF74E1H   LINE      CODE     ---       #165
      00FF74E3H   LINE      CODE     ---       #166
      00FF74ECH   LINE      CODE     ---       #168
      00FF74F6H   LINE      CODE     ---       #169
      00FF74F6H   LINE      CODE     ---       #171
      00FF7509H   LINE      CODE     ---       #173
      00FF750FH   LINE      CODE     ---       #174
      00FF7517H   LINE      CODE     ---       #175
      00FF7521H   LINE      CODE     ---       #176
      00FF7521H   LINE      CODE     ---       #178
      00FF7524H   LINE      CODE     ---       #179
      00FF7536H   LINE      CODE     ---       #181
      00FF7542H   LINE      CODE     ---       #182
      00FF754CH   LINE      CODE     ---       #183
      00FF754FH   LINE      CODE     ---       #184
      00FF7567H   LINE      CODE     ---       #186
      00FF7571H   LINE      CODE     ---       #187
      00FF7593H   LINE      CODE     ---       #189
      00FF75A1H   LINE      CODE     ---       #191
      00FF75AAH   LINE      CODE     ---       #193
      00FF75B4H   LINE      CODE     ---       #194
      00FF75B6H   LINE      CODE     ---       #195
      00FF75BFH   LINE      CODE     ---       #197
      00FF75C9H   LINE      CODE     ---       #198
      00FF75CBH   LINE      CODE     ---       #202
      00FF75D3H   LINE      CODE     ---       #204
      00FF75E1H   LINE      CODE     ---       #206
      00FF75E6H   LINE      CODE     ---       #207
      00FF75EBH   LINE      CODE     ---       #208
      00FF75F0H   LINE      CODE     ---       #210
      00FF75F8H   LINE      CODE     ---       #211
      00FF75F8H   LINE      CODE     ---       #213
      00FF75FAH   LINE      CODE     ---       #214
      00FF7603H   LINE      CODE     ---       #216
      00FF760FH   LINE      CODE     ---       #217
      00FF7619H   LINE      CODE     ---       #218
      00FF7619H   LINE      CODE     ---       #222
      00FF7625H   LINE      CODE     ---       #224
      00FF7644H   LINE      CODE     ---       #226
      00FF7678H   LINE      CODE     ---       #228
      00FF768DH   LINE      CODE     ---       #232
      00FF76C2H   LINE      CODE     ---       #236
      00FF76E2H   LINE      CODE     ---       #237
      00FF7702H   LINE      CODE     ---       #239
      00FF770BH   LINE      CODE     ---       #243
      00FF7716H   LINE      CODE     ---       #244
      00FF7721H   LINE      CODE     ---       #248
      00FF7728H   LINE      CODE     ---       #249
      00FF772AH   LINE      CODE     ---       #252
      00FF7739H   LINE      CODE     ---       #253
      00FF7739H   LINE      CODE     ---       #254
      ---         BLOCKEND  ---      ---       LVL=0

      00FFB4C3H   BLOCK     CODE     ---       LVL=0
      00FFB4CBH   BLOCK     CODE     NEAR LAB  LVL=1
      0001111AH   SYMBOL    XDATA    BYTE      res
      000109BDH   SYMBOL    XDATA    BYTE      dwon_count
      ---         BLOCKEND  ---      ---       LVL=1
      00FFB4C3H   LINE      CODE     ---       #274
      00FFB4CBH   LINE      CODE     ---       #275
      00FFB4CBH   LINE      CODE     ---       #278
      00FFB4D0H   LINE      CODE     ---       #280
      00FFB4D3H   LINE      CODE     ---       #281
L251 LINKER/LOCATER V4.66.93.0                                                        06/23/2025  18:43:06  PAGE 98


      00FFB4D8H   LINE      CODE     ---       #282
      00FFB4D8H   LINE      CODE     ---       #283
      00FFB4DDH   LINE      CODE     ---       #285
      00FFB4E0H   LINE      CODE     ---       #286
      00FFB4E6H   LINE      CODE     ---       #288
      00FFB4EFH   LINE      CODE     ---       #290
      00FFB500H   LINE      CODE     ---       #291
      00FFB504H   LINE      CODE     ---       #292
      00FFB506H   LINE      CODE     ---       #295
      00FFB50BH   LINE      CODE     ---       #296
      00FFB50BH   LINE      CODE     ---       #297
      ---         BLOCKEND  ---      ---       LVL=0

      00FFB55BH   BLOCK     CODE     ---       LVL=0
      00FFB55BH   LINE      CODE     ---       #301
      00FFB571H   LINE      CODE     ---       #303
      00FFB576H   LINE      CODE     ---       #305
      00FFB579H   LINE      CODE     ---       #306
      00FFB57EH   LINE      CODE     ---       #307
      00FFB57EH   LINE      CODE     ---       #308
      00FFB583H   LINE      CODE     ---       #310
      00FFB586H   LINE      CODE     ---       #312
      00FFB58BH   LINE      CODE     ---       #313
      ---         BLOCKEND  ---      ---       LVL=0

      00FFB848H   BLOCK     CODE     ---       LVL=0
      00FFB848H   LINE      CODE     ---       #318
      00FFB850H   LINE      CODE     ---       #320
      00FFB855H   LINE      CODE     ---       #322
      00FFB858H   LINE      CODE     ---       #323
      00FFB85DH   LINE      CODE     ---       #324
      00FFB85DH   LINE      CODE     ---       #325
      00FFB862H   LINE      CODE     ---       #327
      00FFB865H   LINE      CODE     ---       #330
      ---         BLOCKEND  ---      ---       LVL=0

      00FFB3BFH   BLOCK     CODE     ---       LVL=0
      00FFB3BFH   LINE      CODE     ---       #335
      00FFB3D5H   LINE      CODE     ---       #337
      00FFB3DAH   LINE      CODE     ---       #339
      00FFB3DDH   LINE      CODE     ---       #340
      00FFB3E2H   LINE      CODE     ---       #341
      00FFB3E2H   LINE      CODE     ---       #342
      00FFB3E7H   LINE      CODE     ---       #344
      00FFB3EAH   LINE      CODE     ---       #347
      00FFB3F6H   LINE      CODE     ---       #351
      00FFB400H   LINE      CODE     ---       #352
      00FFB400H   LINE      CODE     ---       #354
      ---         BLOCKEND  ---      ---       LVL=0

      00FF0046H   BLOCK     CODE     ---       LVL=0
      00FF0046H   LINE      CODE     ---       #357
      00FF0048H   LINE      CODE     ---       #359
      00FF004BH   LINE      CODE     ---       #360
      ---         BLOCKEND  ---      ---       LVL=0

      00FF000AH   BLOCK     CODE     ---       LVL=0
      00FF000AH   LINE      CODE     ---       #361
      00FF000AH   LINE      CODE     ---       #364
      ---         BLOCKEND  ---      ---       LVL=0

      00FFB8E2H   BLOCK     CODE     ---       LVL=0
      00FFB8E2H   LINE      CODE     ---       #365
      00FFB8E4H   LINE      CODE     ---       #367
      00FFB8E7H   LINE      CODE     ---       #368
L251 LINKER/LOCATER V4.66.93.0                                                        06/23/2025  18:43:06  PAGE 99


      ---         BLOCKEND  ---      ---       LVL=0

      00FFB8EAH   BLOCK     CODE     ---       LVL=0
      00FFB8EAH   LINE      CODE     ---       #369
      00FFB8ECH   LINE      CODE     ---       #371
      00FFB8EFH   LINE      CODE     ---       #372
      ---         BLOCKEND  ---      ---       LVL=0

      00FFB8F2H   BLOCK     CODE     ---       LVL=0
      00FFB8F2H   LINE      CODE     ---       #374
      00FFB8F4H   LINE      CODE     ---       #376
      00FFB8F7H   LINE      CODE     ---       #377
      ---         BLOCKEND  ---      ---       LVL=0

      00FFB8FAH   BLOCK     CODE     ---       LVL=0
      00FFB8FAH   LINE      CODE     ---       #381
      00FFB8FCH   LINE      CODE     ---       #383
      00FFB8FFH   LINE      CODE     ---       #384
      ---         BLOCKEND  ---      ---       LVL=0

      00FFB902H   BLOCK     CODE     ---       LVL=0
      00FFB902H   LINE      CODE     ---       #385
      00FFB904H   LINE      CODE     ---       #387
      00FFB907H   LINE      CODE     ---       #389
      ---         BLOCKEND  ---      ---       LVL=0

      00FFB90AH   BLOCK     CODE     ---       LVL=0
      00FFB90AH   LINE      CODE     ---       #391
      00FFB90CH   LINE      CODE     ---       #393
      00FFB90FH   LINE      CODE     ---       #394
      ---         BLOCKEND  ---      ---       LVL=0

      ---         MODULE    ---      ---       main
      00FF930CH   PUBLIC    CODE     ---       All_Init
      00FFB86EH   PUBLIC    CODE     ---       main
      000000D0H   SFRSYM    DATA     BYTE      PSW
      0000009DH   SFRSYM    DATA     BYTE      IRCBAND
      00000097H   SFRSYM    DATA     BYTE      AUXR2
      000000EFH   SFRSYM    DATA     BYTE      AUXINTIF
      000000FDH   SFRSYM    DATA     BYTE      S4CON
      000000ACH   SFRSYM    DATA     BYTE      S3CON
      0000009AH   SFRSYM    DATA     BYTE      S2CON
      000000B7H   SFRSYM    DATA     BYTE      IPH
      000000CDH   SFRSYM    DATA     BYTE      SPSTAT
      000000DDH   SFRSYM    DATA     BYTE      T4T3M
      000000C1H   SFRSYM    DATA     BYTE      WDT_CONTR
      000000DFH   SFRSYM    DATA     BYTE      IP3
      000000F4H   SFRSYM    DATA     BYTE      USBCON
      000000B5H   SFRSYM    DATA     BYTE      IP2
      000000FFH   SFRSYM    DATA     BYTE      RSTCFG
      000000F9H   SFRSYM    DATA     BYTE      LINICR
      0000008EH   SFRSYM    DATA     BYTE      AUXR
      000000AFH   SFRSYM    DATA     BYTE      IE2
      00000088H   SFRSYM    DATA     BYTE      TCON
      00000098H   SFRSYM    DATA     BYTE      SCON
      000000F1H   SFRSYM    DATA     BYTE      CANICR
      00000087H   SFRSYM    DATA     BYTE      PCON
      000000BCH   SFRSYM    DATA     BYTE      ADC_CONTR
      000000E7H   SFRSYM    DATA     BYTE      CMPCR2
      000000E6H   SFRSYM    DATA     BYTE      CMPCR1
      000000B8H   SFRSYM    DATA     BYTE      IP
      0000008FH   SFRSYM    DATA     BYTE      INTCLKO
      000000EEH   SFRSYM    DATA     BYTE      IP3H
      000000B6H   SFRSYM    DATA     BYTE      IP2H
      000000A8H   SFRSYM    DATA     BYTE      IE
L251 LINKER/LOCATER V4.66.93.0                                                        06/23/2025  18:43:06  PAGE 100


      000000BBH   SFRSYM    DATA     BYTE      P_SW3
      000000BAH   SFRSYM    DATA     BYTE      P_SW2
      000000A2H   SFRSYM    DATA     BYTE      P_SW1
      000000CEH   SFRSYM    DATA     BYTE      SPCTL
      000000F8H   SFRSYM    DATA     BYTE      P7
      000000E8H   SFRSYM    DATA     BYTE      P6
      000000C8H   SFRSYM    DATA     BYTE      P5
      000000C0H   SFRSYM    DATA     BYTE      P4
      000000B0H   SFRSYM    DATA     BYTE      P3
      000000A0H   SFRSYM    DATA     BYTE      P2
      00000090H   SFRSYM    DATA     BYTE      P1
      00000080H   SFRSYM    DATA     BYTE      P0

      00FFB86EH   BLOCK     CODE     ---       LVL=0
      00FFB86EH   LINE      CODE     ---       #4
      00FFB86EH   LINE      CODE     ---       #6
      00FFB871H   LINE      CODE     ---       #11
      00FFB874H   LINE      CODE     ---       #13
      00FFB874H   LINE      CODE     ---       #16
      00FFB877H   LINE      CODE     ---       #19
      00FFB87AH   LINE      CODE     ---       #22
      00FFB87DH   LINE      CODE     ---       #25
      00FFB884H   LINE      CODE     ---       #28
      00FFB88DH   LINE      CODE     ---       #30
      00FFB890H   LINE      CODE     ---       #54
      00FFB892H   LINE      CODE     ---       #55
      ---         BLOCKEND  ---      ---       LVL=0

      00FF930CH   BLOCK     CODE     ---       LVL=0
      00FF930CH   LINE      CODE     ---       #57
      00FF930CH   LINE      CODE     ---       #60
      00FF930FH   LINE      CODE     ---       #61
      00FF9313H   LINE      CODE     ---       #65
      00FF9316H   LINE      CODE     ---       #66
      00FF9321H   LINE      CODE     ---       #69
      00FF9324H   LINE      CODE     ---       #70
      00FF9327H   LINE      CODE     ---       #72
      00FF9332H   LINE      CODE     ---       #73
      00FF933DH   LINE      CODE     ---       #76
      00FF93B2H   LINE      CODE     ---       #77
      00FF942BH   LINE      CODE     ---       #79
      00FF943EH   LINE      CODE     ---       #80
      00FF9451H   LINE      CODE     ---       #81
      00FF94B4H   LINE      CODE     ---       #90
      00FF94BDH   LINE      CODE     ---       #91
      00FF94C8H   LINE      CODE     ---       #93
      00FF94CFH   LINE      CODE     ---       #94
      ---         BLOCKEND  ---      ---       LVL=0

      ---         MODULE    ---      ---       Control

      ---         MODULE    ---      ---       Key
      00FF9C93H   PUBLIC    CODE     ---       Key_Scan
      00FFB6A1H   PUBLIC    CODE     ---       Key_Task
      00000020H.2 PUBLIC    BIT      BIT       Go_Flag
      00010C9CH   PUBLIC    XDATA    BYTE      sw1_status
      00010C9DH   PUBLIC    XDATA    BYTE      sw2_status
      00010C9EH   PUBLIC    XDATA    ---       Key
      000000D0H   SFRSYM    DATA     BYTE      PSW
      0000009DH   SFRSYM    DATA     BYTE      IRCBAND
      00000097H   SFRSYM    DATA     BYTE      AUXR2
      000000EFH   SFRSYM    DATA     BYTE      AUXINTIF
      000000FDH   SFRSYM    DATA     BYTE      S4CON
      000000ACH   SFRSYM    DATA     BYTE      S3CON
      0000009AH   SFRSYM    DATA     BYTE      S2CON
L251 LINKER/LOCATER V4.66.93.0                                                        06/23/2025  18:43:06  PAGE 101


      000000B7H   SFRSYM    DATA     BYTE      IPH
      000000CDH   SFRSYM    DATA     BYTE      SPSTAT
      000000DDH   SFRSYM    DATA     BYTE      T4T3M
      000000C1H   SFRSYM    DATA     BYTE      WDT_CONTR
      000000DFH   SFRSYM    DATA     BYTE      IP3
      000000F4H   SFRSYM    DATA     BYTE      USBCON
      000000B5H   SFRSYM    DATA     BYTE      IP2
      000000FFH   SFRSYM    DATA     BYTE      RSTCFG
      000000F9H   SFRSYM    DATA     BYTE      LINICR
      0000008EH   SFRSYM    DATA     BYTE      AUXR
      000000AFH   SFRSYM    DATA     BYTE      IE2
      000000E8H.7 SFRSYM    DATA     BIT       P67
      000000E8H.6 SFRSYM    DATA     BIT       P66
      000000B0H.7 SFRSYM    DATA     BIT       P37
      000000B0H.6 SFRSYM    DATA     BIT       P36
      000000B0H.5 SFRSYM    DATA     BIT       P35
      000000F8H.0 SFRSYM    DATA     BIT       P70
      00000088H   SFRSYM    DATA     BYTE      TCON
      00000098H   SFRSYM    DATA     BYTE      SCON
      000000F1H   SFRSYM    DATA     BYTE      CANICR
      00000087H   SFRSYM    DATA     BYTE      PCON
      000000BCH   SFRSYM    DATA     BYTE      ADC_CONTR
      000000E7H   SFRSYM    DATA     BYTE      CMPCR2
      000000E6H   SFRSYM    DATA     BYTE      CMPCR1
      000000B8H   SFRSYM    DATA     BYTE      IP
      0000008FH   SFRSYM    DATA     BYTE      INTCLKO
      000000EEH   SFRSYM    DATA     BYTE      IP3H
      000000B6H   SFRSYM    DATA     BYTE      IP2H
      000000A8H   SFRSYM    DATA     BYTE      IE
      000000BBH   SFRSYM    DATA     BYTE      P_SW3
      000000BAH   SFRSYM    DATA     BYTE      P_SW2
      000000A2H   SFRSYM    DATA     BYTE      P_SW1
      000000CEH   SFRSYM    DATA     BYTE      SPCTL
      000000F8H   SFRSYM    DATA     BYTE      P7
      000000E8H   SFRSYM    DATA     BYTE      P6
      000000C8H   SFRSYM    DATA     BYTE      P5
      000000C0H   SFRSYM    DATA     BYTE      P4
      000000B0H   SFRSYM    DATA     BYTE      P3
      000000A0H   SFRSYM    DATA     BYTE      P2
      00000090H   SFRSYM    DATA     BYTE      P1
      00000080H   SFRSYM    DATA     BYTE      P0

      00FFB6A1H   BLOCK     CODE     ---       LVL=0
      00010CAAH   SYMBOL    XDATA    WORD      Voltage_Count
      00000020H.3 SYMBOL    BIT      BIT       Voltage_Flag
      00FFB6A1H   LINE      CODE     ---       #12
      00FFB6A1H   LINE      CODE     ---       #13
      00FFB6A1H   LINE      CODE     ---       #18
      00FFB6AAH   LINE      CODE     ---       #20
      00FFB6AFH   LINE      CODE     ---       #21
      00FFB6AFH   LINE      CODE     ---       #23
      00FFB6B8H   LINE      CODE     ---       #25
      00FFB6BDH   LINE      CODE     ---       #26
      00FFB6BDH   LINE      CODE     ---       #28
      00FFB6C6H   LINE      CODE     ---       #30
      00FFB6CBH   LINE      CODE     ---       #31
      00FFB6CBH   LINE      CODE     ---       #33
      00FFB6D4H   LINE      CODE     ---       #35
      00FFB6D9H   LINE      CODE     ---       #36
      00FFB6DCH   LINE      CODE     ---       #37
      ---         BLOCKEND  ---      ---       LVL=0

      00FF9C93H   BLOCK     CODE     ---       LVL=0
      0001111BH   SYMBOL    XDATA    BYTE      i
      00FF9C93H   LINE      CODE     ---       #75
L251 LINKER/LOCATER V4.66.93.0                                                        06/23/2025  18:43:06  PAGE 102


      00FF9C93H   LINE      CODE     ---       #76
      00FF9C93H   LINE      CODE     ---       #78
      00FF9C9BH   LINE      CODE     ---       #79
      00FF9CA3H   LINE      CODE     ---       #80
      00FF9CABH   LINE      CODE     ---       #81
      00FF9CB3H   LINE      CODE     ---       #83
      00FF9CBBH   LINE      CODE     ---       #84
      00FF9CC3H   LINE      CODE     ---       #86
      00FF9CCBH   LINE      CODE     ---       #88
      00FF9CF2H   LINE      CODE     ---       #91
      00FF9CF2H   LINE      CODE     ---       #93
      00FF9D11H   LINE      CODE     ---       #95
      00FF9D2DH   LINE      CODE     ---       #96
      00FF9D2DH   LINE      CODE     ---       #98
      00FF9D30H   LINE      CODE     ---       #100
      00FF9D30H   LINE      CODE     ---       #102
      00FF9D4CH   LINE      CODE     ---       #104
      00FF9D68H   LINE      CODE     ---       #105
      00FF9D84H   LINE      CODE     ---       #106
      00FF9D86H   LINE      CODE     ---       #109
      00FF9DA1H   LINE      CODE     ---       #110
      00FF9DA1H   LINE      CODE     ---       #112
      00FF9DA3H   LINE      CODE     ---       #114
      00FF9DA3H   LINE      CODE     ---       #116
      00FF9DBFH   LINE      CODE     ---       #118
      00FF9DDAH   LINE      CODE     ---       #119
      00FF9DDAH   LINE      CODE     ---       #121
      00FF9DDAH   LINE      CODE     ---       #122
      00FF9DDAH   LINE      CODE     ---       #123
      00FF9DF4H   LINE      CODE     ---       #126
      ---         BLOCKEND  ---      ---       LVL=0

      ---         MODULE    ---      ---       Pid
      00FF94D0H   PUBLIC    CODE     ---       Pid_Pos_GyroZ
      00FF8F63H   PUBLIC    CODE     ---       Pid_Init
      00FF7750H   PUBLIC    CODE     ---       Pid_Inc_Ff
      00FFB0C7H   PUBLIC    CODE     ---       Pid_Clean
      00010441H   PUBLIC    XDATA    ---       TurnPID
      00010485H   PUBLIC    XDATA    ---       SpeedPID
      000104C9H   PUBLIC    XDATA    ---       RightPID
      0001050DH   PUBLIC    XDATA    ---       LeftPID
      000109E3H   PUBLIC    XDATA    BYTE      ?Pid_Init?BYTE
      00010D8CH   PUBLIC    XDATA    BYTE      ?Pid_Inc_Ff?BYTE
      00010D98H   PUBLIC    XDATA    BYTE      ?Pid_Pos_GyroZ?BYTE
      000000D0H   SFRSYM    DATA     BYTE      PSW
      0000009DH   SFRSYM    DATA     BYTE      IRCBAND
      00000097H   SFRSYM    DATA     BYTE      AUXR2
      000000EFH   SFRSYM    DATA     BYTE      AUXINTIF
      000000FDH   SFRSYM    DATA     BYTE      S4CON
      000000ACH   SFRSYM    DATA     BYTE      S3CON
      0000009AH   SFRSYM    DATA     BYTE      S2CON
      000000B7H   SFRSYM    DATA     BYTE      IPH
      000000CDH   SFRSYM    DATA     BYTE      SPSTAT
      000000DDH   SFRSYM    DATA     BYTE      T4T3M
      000000C1H   SFRSYM    DATA     BYTE      WDT_CONTR
      000000DFH   SFRSYM    DATA     BYTE      IP3
      000000F4H   SFRSYM    DATA     BYTE      USBCON
      000000B5H   SFRSYM    DATA     BYTE      IP2
      000000FFH   SFRSYM    DATA     BYTE      RSTCFG
      000000F9H   SFRSYM    DATA     BYTE      LINICR
      0000008EH   SFRSYM    DATA     BYTE      AUXR
      000000AFH   SFRSYM    DATA     BYTE      IE2
      00000088H   SFRSYM    DATA     BYTE      TCON
      00000098H   SFRSYM    DATA     BYTE      SCON
      000000F1H   SFRSYM    DATA     BYTE      CANICR
L251 LINKER/LOCATER V4.66.93.0                                                        06/23/2025  18:43:06  PAGE 103


      00000087H   SFRSYM    DATA     BYTE      PCON
      000000BCH   SFRSYM    DATA     BYTE      ADC_CONTR
      000000E7H   SFRSYM    DATA     BYTE      CMPCR2
      000000E6H   SFRSYM    DATA     BYTE      CMPCR1
      000000B8H   SFRSYM    DATA     BYTE      IP
      0000008FH   SFRSYM    DATA     BYTE      INTCLKO
      000000EEH   SFRSYM    DATA     BYTE      IP3H
      000000B6H   SFRSYM    DATA     BYTE      IP2H
      000000A8H   SFRSYM    DATA     BYTE      IE
      000000BBH   SFRSYM    DATA     BYTE      P_SW3
      000000BAH   SFRSYM    DATA     BYTE      P_SW2
      000000A2H   SFRSYM    DATA     BYTE      P_SW1
      000000CEH   SFRSYM    DATA     BYTE      SPCTL
      000000F8H   SFRSYM    DATA     BYTE      P7
      000000E8H   SFRSYM    DATA     BYTE      P6
      000000C8H   SFRSYM    DATA     BYTE      P5
      000000C0H   SFRSYM    DATA     BYTE      P4
      000000B0H   SFRSYM    DATA     BYTE      P3
      000000A0H   SFRSYM    DATA     BYTE      P2
      00000090H   SFRSYM    DATA     BYTE      P1
      00000080H   SFRSYM    DATA     BYTE      P0
      00011079H   SYMBOL    XDATA    FLOAT     num
      000110EFH   SYMBOL    XDATA    INT       num

      00FF8F63H   BLOCK     CODE     ---       LVL=0
      000109E3H   SYMBOL    XDATA    ---       Pid
      000109E7H   SYMBOL    XDATA    FLOAT     Kp
      000109EBH   SYMBOL    XDATA    FLOAT     Ki
      000109EFH   SYMBOL    XDATA    FLOAT     Kd
      000109F3H   SYMBOL    XDATA    FLOAT     Kf
      000109F7H   SYMBOL    XDATA    FLOAT     I_Limit
      000109FBH   SYMBOL    XDATA    FLOAT     O_Limit
      000109FFH   SYMBOL    XDATA    FLOAT     GKd
      00010A03H   SYMBOL    XDATA    FLOAT     Kp2
      00FF8F63H   LINE      CODE     ---       #18
      00FF8F77H   LINE      CODE     ---       #20
      00FF8F92H   LINE      CODE     ---       #21
      00FF8FAFH   LINE      CODE     ---       #22
      00FF8FCEH   LINE      CODE     ---       #23
      00FF8FEDH   LINE      CODE     ---       #24
      00FF900CH   LINE      CODE     ---       #25
      00FF902BH   LINE      CODE     ---       #27
      00FF904AH   LINE      CODE     ---       #28
      00FF9069H   LINE      CODE     ---       #30
      00FF9080H   LINE      CODE     ---       #31
      00FF9097H   LINE      CODE     ---       #32
      00FF90AEH   LINE      CODE     ---       #33
      00FF90C5H   LINE      CODE     ---       #34
      00FF90DCH   LINE      CODE     ---       #36
      00FF90F3H   LINE      CODE     ---       #37
      00FF910AH   LINE      CODE     ---       #38
      00FF9121H   LINE      CODE     ---       #39
      00FF9138H   LINE      CODE     ---       #41
      ---         BLOCKEND  ---      ---       LVL=0

      00FF7750H   BLOCK     CODE     ---       LVL=0
      00010D8CH   SYMBOL    XDATA    ---       Pid
      00010D90H   SYMBOL    XDATA    FLOAT     Real
      00010D94H   SYMBOL    XDATA    FLOAT     Target
      00FF7750H   LINE      CODE     ---       #46
      00FF7764H   LINE      CODE     ---       #48
      00FF7792H   LINE      CODE     ---       #49
      00FF77C6H   LINE      CODE     ---       #52
      00FF77F5H   LINE      CODE     ---       #54
      00FF781FH   LINE      CODE     ---       #55
L251 LINKER/LOCATER V4.66.93.0                                                        06/23/2025  18:43:06  PAGE 104


      00FF7821H   LINE      CODE     ---       #56
      00FF7855H   LINE      CODE     ---       #58
      00FF7884H   LINE      CODE     ---       #59
      00FF7884H   LINE      CODE     ---       #62
      00FF78C4H   LINE      CODE     ---       #63
      00FF7906H   LINE      CODE     ---       #64
      00FF7964H   LINE      CODE     ---       #66
      00FF7A03H   LINE      CODE     ---       #68
      00FF7A2DH   LINE      CODE     ---       #69
      00FF7A4CH   LINE      CODE     ---       #72
      00FF7A7BH   LINE      CODE     ---       #74
      00FF7AA5H   LINE      CODE     ---       #75
      00FF7AA7H   LINE      CODE     ---       #76
      00FF7ADBH   LINE      CODE     ---       #78
      00FF7B0AH   LINE      CODE     ---       #79
      00FF7B0AH   LINE      CODE     ---       #81
      00FF7B1FH   LINE      CODE     ---       #82
      ---         BLOCKEND  ---      ---       LVL=0

      00FF94D0H   BLOCK     CODE     ---       LVL=0
      00010D98H   SYMBOL    XDATA    ---       Pid
      00010D9CH   SYMBOL    XDATA    FLOAT     position
      00010DA0H   SYMBOL    XDATA    FLOAT     GyroZ
      00FF94D0H   LINE      CODE     ---       #87
      00FF94E4H   LINE      CODE     ---       #91
      00FF9519H   LINE      CODE     ---       #93
      00FF9552H   LINE      CODE     ---       #96
      00FF9596H   LINE      CODE     ---       #97
      00FF95B5H   LINE      CODE     ---       #100
      00FF95E4H   LINE      CODE     ---       #102
      00FF960EH   LINE      CODE     ---       #103
      00FF9610H   LINE      CODE     ---       #104
      00FF9644H   LINE      CODE     ---       #106
      00FF9673H   LINE      CODE     ---       #107
      00FF9673H   LINE      CODE     ---       #109
      00FF9688H   LINE      CODE     ---       #110
      ---         BLOCKEND  ---      ---       LVL=0

      00FFB0C7H   BLOCK     CODE     ---       LVL=0
      0001107DH   SYMBOL    XDATA    ---       Pid
      00FFB0C7H   LINE      CODE     ---       #155
      00FFB0D1H   LINE      CODE     ---       #157
      00FFB0E8H   LINE      CODE     ---       #158
      00FFB0FFH   LINE      CODE     ---       #159
      00FFB116H   LINE      CODE     ---       #160
      00FFB12DH   LINE      CODE     ---       #161
      ---         BLOCKEND  ---      ---       LVL=0

      ---         MODULE    ---      ---       Elec
      00FF8D41H   PUBLIC    CODE     ---       display_electromagnetic_data
      00FF7EDCH   PUBLIC    CODE     ---       mid_filter
      00FF8575H   PUBLIC    CODE     ---       normalize_sensors
      00FF8849H   PUBLIC    CODE     ---       average_filter
      00FFB193H   PUBLIC    CODE     ---       get_adc
      00FF99B1H   PUBLIC    CODE     ---       check_electromagnetic_protection
      00FFA6F6H   PUBLIC    CODE     ---       electromagnetic_init
      00FF4626H   PUBLIC    CODE     ---       calculate_position_improved
      0001030DH   PUBLIC    XDATA    FLOAT     filter_param
      00010311H   PUBLIC    XDATA    BYTE      track_type_zj
      00010312H   PUBLIC    XDATA    BYTE      ten_change_flag
      00010313H   PUBLIC    XDATA    ---       adc_fliter_data
      00010348H   PUBLIC    XDATA    BYTE      speed_count
      00010349H   PUBLIC    XDATA    ---       result
      0001035EH   PUBLIC    XDATA    BYTE      track_route
      0001035FH   PUBLIC    XDATA    BYTE      track_route_status
L251 LINKER/LOCATER V4.66.93.0                                                        06/23/2025  18:43:06  PAGE 105


      00010360H   PUBLIC    XDATA    ---       normalized_data
      00010375H   PUBLIC    XDATA    BYTE      track_type
      00010376H   PUBLIC    XDATA    BYTE      track_ten_flag
      00010377H   PUBLIC    XDATA    ---       min_value
      00010381H   PUBLIC    XDATA    ---       max_value
      0001038BH   PUBLIC    XDATA    BYTE      protection_flag
      0001038CH   PUBLIC    XDATA    BYTE      track_type_last
      0001038DH   PUBLIC    XDATA    ---       sum
      000103BFH   PUBLIC    XDATA    FLOAT     signal_strength_value
      000103C3H   PUBLIC    XDATA    ---       track_weights
      0001041BH   PUBLIC    XDATA    INT       position
      000000D0H   SFRSYM    DATA     BYTE      PSW
      0000009DH   SFRSYM    DATA     BYTE      IRCBAND
      00000097H   SFRSYM    DATA     BYTE      AUXR2
      000000EFH   SFRSYM    DATA     BYTE      AUXINTIF
      000000FDH   SFRSYM    DATA     BYTE      S4CON
      000000ACH   SFRSYM    DATA     BYTE      S3CON
      0000009AH   SFRSYM    DATA     BYTE      S2CON
      000000B7H   SFRSYM    DATA     BYTE      IPH
      000000CDH   SFRSYM    DATA     BYTE      SPSTAT
      000000DDH   SFRSYM    DATA     BYTE      T4T3M
      000000C1H   SFRSYM    DATA     BYTE      WDT_CONTR
      000000DFH   SFRSYM    DATA     BYTE      IP3
      000000F4H   SFRSYM    DATA     BYTE      USBCON
      000000B5H   SFRSYM    DATA     BYTE      IP2
      000000FFH   SFRSYM    DATA     BYTE      RSTCFG
      000000F9H   SFRSYM    DATA     BYTE      LINICR
      0000008EH   SFRSYM    DATA     BYTE      AUXR
      000000AFH   SFRSYM    DATA     BYTE      IE2
      00000088H   SFRSYM    DATA     BYTE      TCON
      00000098H   SFRSYM    DATA     BYTE      SCON
      000000F1H   SFRSYM    DATA     BYTE      CANICR
      00000087H   SFRSYM    DATA     BYTE      PCON
      000000BCH   SFRSYM    DATA     BYTE      ADC_CONTR
      000000E7H   SFRSYM    DATA     BYTE      CMPCR2
      000000E6H   SFRSYM    DATA     BYTE      CMPCR1
      000000B8H   SFRSYM    DATA     BYTE      IP
      0000008FH   SFRSYM    DATA     BYTE      INTCLKO
      000000EEH   SFRSYM    DATA     BYTE      IP3H
      000000B6H   SFRSYM    DATA     BYTE      IP2H
      000000A8H   SFRSYM    DATA     BYTE      IE
      000000BBH   SFRSYM    DATA     BYTE      P_SW3
      000000BAH   SFRSYM    DATA     BYTE      P_SW2
      000000A2H   SFRSYM    DATA     BYTE      P_SW1
      000000CEH   SFRSYM    DATA     BYTE      SPCTL
      000000F8H   SFRSYM    DATA     BYTE      P7
      000000E8H   SFRSYM    DATA     BYTE      P6
      000000C8H   SFRSYM    DATA     BYTE      P5
      000000C0H   SFRSYM    DATA     BYTE      P4
      000000B0H   SFRSYM    DATA     BYTE      P3
      000000A0H   SFRSYM    DATA     BYTE      P2
      00000090H   SFRSYM    DATA     BYTE      P1
      00000080H   SFRSYM    DATA     BYTE      P0
      00010345H   SYMBOL    XDATA    WORD      sample_count
      00010347H   SYMBOL    XDATA    BYTE      i_num
      0001035DH   SYMBOL    XDATA    BYTE      times
      00010374H   SYMBOL    XDATA    BYTE      mid_initialized

      00FFA6F6H   BLOCK     CODE     ---       LVL=0
      000110F1H   SYMBOL    XDATA    BYTE      i
      000110F2H   SYMBOL    XDATA    BYTE      j
      00FFA6F6H   LINE      CODE     ---       #69
      00FFA6F6H   LINE      CODE     ---       #70
      00FFA6F6H   LINE      CODE     ---       #71
      00FFA700H   LINE      CODE     ---       #73
L251 LINKER/LOCATER V4.66.93.0                                                        06/23/2025  18:43:06  PAGE 106


      00FFA707H   LINE      CODE     ---       #74
      00FFA710H   LINE      CODE     ---       #75
      00FFA719H   LINE      CODE     ---       #76
      00FFA722H   LINE      CODE     ---       #77
      00FFA72BH   LINE      CODE     ---       #80
      00FFA733H   LINE      CODE     ---       #82
      00FFA73AH   LINE      CODE     ---       #84
      00FFA761H   LINE      CODE     ---       #85
      00FFA788H   LINE      CODE     ---       #86
      00FFA79FH   LINE      CODE     ---       #87
      00FFA7BEH   LINE      CODE     ---       #88
      00FFA7D8H   LINE      CODE     ---       #89
      ---         BLOCKEND  ---      ---       LVL=0

      00FFB193H   BLOCK     CODE     ---       LVL=0
      000110F3H   SYMBOL    XDATA    WORD      i
      00FFB193H   LINE      CODE     ---       #98
      00FFB199H   LINE      CODE     ---       #100
      00FFB1B3H   LINE      CODE     ---       #101
      00FFB1B3H   LINE      CODE     ---       #102
      00FFB1BEH   LINE      CODE     ---       #103
      00FFB1BEH   LINE      CODE     ---       #104
      00FFB1CBH   LINE      CODE     ---       #105
      00FFB1CBH   LINE      CODE     ---       #106
      00FFB1D8H   LINE      CODE     ---       #107
      00FFB1D8H   LINE      CODE     ---       #108
      00FFB1E5H   LINE      CODE     ---       #109
      00FFB1E5H   LINE      CODE     ---       #110
      00FFB1F2H   LINE      CODE     ---       #111
      00FFB1F2H   LINE      CODE     ---       #112
      00FFB1F4H   LINE      CODE     ---       #113
      00FFB1F4H   LINE      CODE     ---       #114
      ---         BLOCKEND  ---      ---       LVL=0

      00FF8849H   BLOCK     CODE     ---       LVL=0
      0001041DH   SYMBOL    XDATA    WORD      filter_index
      0001041FH   SYMBOL    XDATA    BYTE      is_initialized
      00011081H   SYMBOL    XDATA    WORD      a
      00011083H   SYMBOL    XDATA    WORD      b
      00FF8849H   LINE      CODE     ---       #128
      00FF8849H   LINE      CODE     ---       #129
      00FF8849H   LINE      CODE     ---       #132
      00FF8859H   LINE      CODE     ---       #135
      00FF8865H   LINE      CODE     ---       #138
      00FF886FH   LINE      CODE     ---       #140
      00FF888CH   LINE      CODE     ---       #141
      00FF88ABH   LINE      CODE     ---       #144
      00FF88B5H   LINE      CODE     ---       #146
      00FF88BFH   LINE      CODE     ---       #148
      00FF88F0H   LINE      CODE     ---       #149
      00FF890FH   LINE      CODE     ---       #150
      00FF8916H   LINE      CODE     ---       #151
      00FF8935H   LINE      CODE     ---       #154
      00FF8940H   LINE      CODE     ---       #156
      00FF897EH   LINE      CODE     ---       #157
      00FF89BCH   LINE      CODE     ---       #158
      00FF89DEH   LINE      CODE     ---       #160
      00FF89E4H   LINE      CODE     ---       #161
      00FF89E7H   LINE      CODE     ---       #164
      00FF89F2H   LINE      CODE     ---       #167
      00FF8A3BH   LINE      CODE     ---       #168
      00FF8A6CH   LINE      CODE     ---       #169
      00FF8AAAH   LINE      CODE     ---       #170
      00FF8AE8H   LINE      CODE     ---       #171
      00FF8B0AH   LINE      CODE     ---       #172
L251 LINKER/LOCATER V4.66.93.0                                                        06/23/2025  18:43:06  PAGE 107


      00FF8B0AH   LINE      CODE     ---       #173
      ---         BLOCKEND  ---      ---       LVL=0

      00FF7EDCH   BLOCK     CODE     ---       LVL=0
      00010BD2H   SYMBOL    XDATA    WORD      temp
      00010BD4H   SYMBOL    XDATA    WORD      a
      00010BD6H   SYMBOL    XDATA    WORD      t
      00010BD8H   SYMBOL    XDATA    WORD      mid_index
      00010BDAH   SYMBOL    XDATA    WORD      i
      00010BDCH   SYMBOL    XDATA    ---       sort_array
      00FF7EDCH   LINE      CODE     ---       #187
      00FF7EDCH   LINE      CODE     ---       #188
      00FF7EDCH   LINE      CODE     ---       #189
      00FF7EF4H   LINE      CODE     ---       #190
      00FF7EFCH   LINE      CODE     ---       #191
      00FF7F04H   LINE      CODE     ---       #196
      00FF7F07H   LINE      CODE     ---       #199
      00FF7F13H   LINE      CODE     ---       #202
      00FF7F1EH   LINE      CODE     ---       #204
      00FF7F5EH   LINE      CODE     ---       #205
      00FF7F9CH   LINE      CODE     ---       #206
      00FF7FBEH   LINE      CODE     ---       #208
      00FF7FCDH   LINE      CODE     ---       #211
      00FF7FE0H   LINE      CODE     ---       #213
      00FF7FE6H   LINE      CODE     ---       #214
      00FF7FEEH   LINE      CODE     ---       #215
      00FF7FF1H   LINE      CODE     ---       #220
      00FF7FFBH   LINE      CODE     ---       #222
      00FF803BH   LINE      CODE     ---       #223
      00FF805AH   LINE      CODE     ---       #226
      00FF8074H   LINE      CODE     ---       #229
      00FF807FH   LINE      CODE     ---       #231
      00FF8089H   LINE      CODE     ---       #233
      00FF80C7H   LINE      CODE     ---       #234
      00FF80E6H   LINE      CODE     ---       #237
      00FF80F1H   LINE      CODE     ---       #239
      00FF80FCH   LINE      CODE     ---       #241
      00FF812EH   LINE      CODE     ---       #243
      00FF814BH   LINE      CODE     ---       #244
      00FF8179H   LINE      CODE     ---       #245
      00FF8196H   LINE      CODE     ---       #246
      00FF81C6H   LINE      CODE     ---       #248
      00FF81EEH   LINE      CODE     ---       #251
      00FF81FCH   LINE      CODE     ---       #254
      00FF8236H   LINE      CODE     ---       #255
      00FF8258H   LINE      CODE     ---       #256
      00FF8258H   LINE      CODE     ---       #257
      ---         BLOCKEND  ---      ---       LVL=0
      0001111CH   SYMBOL    XDATA    BYTE      i
      00010420H   SYMBOL    XDATA    WORD      update_counter

      00FF8575H   BLOCK     CODE     ---       LVL=0
      00011030H   SYMBOL    XDATA    BYTE      i
      00010422H   SYMBOL    XDATA    ---       last_normalized
      00011031H   SYMBOL    XDATA    FLOAT     smooth_factor
      00FF8575H   LINE      CODE     ---       #325
      00FF8575H   LINE      CODE     ---       #326
      00FF8575H   LINE      CODE     ---       #331
      00FF8587H   LINE      CODE     ---       #336
      00FF858FH   LINE      CODE     ---       #339
      00FF85CEH   LINE      CODE     ---       #342
      00FF8676H   LINE      CODE     ---       #346
      00FF8678H   LINE      CODE     ---       #351
      00FF86BDH   LINE      CODE     ---       #352
      00FF86BDH   LINE      CODE     ---       #355
L251 LINKER/LOCATER V4.66.93.0                                                        06/23/2025  18:43:06  PAGE 108


      00FF8708H   LINE      CODE     ---       #356
      00FF874BH   LINE      CODE     ---       #357
      00FF8765H   LINE      CODE     ---       #360
      00FF876DH   LINE      CODE     ---       #363
      00FF87F4H   LINE      CODE     ---       #367
      00FF882EH   LINE      CODE     ---       #368
      00FF8848H   LINE      CODE     ---       #369
      ---         BLOCKEND  ---      ---       LVL=0

      00FF4626H   BLOCK     CODE     ---       LVL=0
      00010855H   SYMBOL    XDATA    FLOAT     weight_outer
      00010859H   SYMBOL    XDATA    FLOAT     weight_vertical
      0001085DH   SYMBOL    XDATA    FLOAT     weight_center
      00010861H   SYMBOL    XDATA    FLOAT     diff_outer
      00010865H   SYMBOL    XDATA    FLOAT     diff_vertical
      00010869H   SYMBOL    XDATA    FLOAT     sum_outer
      0001086DH   SYMBOL    XDATA    FLOAT     sum_vertical
      00010871H   SYMBOL    XDATA    FLOAT     center_value
      00010875H   SYMBOL    XDATA    FLOAT     ratio_outer
      00010879H   SYMBOL    XDATA    FLOAT     ratio_vertical
      0001087DH   SYMBOL    XDATA    FLOAT     signal_strength
      00010436H   SYMBOL    XDATA    INT       last_pos
      00010438H   SYMBOL    XDATA    INT       very_last_pos
      0001043AH   SYMBOL    XDATA    INT       very_very_last_pos
      00010881H   SYMBOL    XDATA    INT       pos
      0001043CH   SYMBOL    XDATA    INT       max_change_rate
      00010883H   SYMBOL    XDATA    INT       position_change
      00010885H   SYMBOL    XDATA    FLOAT     center_correction
      00FF4626H   LINE      CODE     ---       #380
      00FF4626H   LINE      CODE     ---       #381
      00FF4626H   LINE      CODE     ---       #383
      00FF4638H   LINE      CODE     ---       #384
      00FF464AH   LINE      CODE     ---       #385
      00FF4656H   LINE      CODE     ---       #387
      00FF4662H   LINE      CODE     ---       #388
      00FF466EH   LINE      CODE     ---       #390
      00FF467AH   LINE      CODE     ---       #391
      00FF4686H   LINE      CODE     ---       #392
      00FF4692H   LINE      CODE     ---       #394
      00FF469EH   LINE      CODE     ---       #395
      00FF46AAH   LINE      CODE     ---       #397
      00FF46B6H   LINE      CODE     ---       #401
      00FF46BEH   LINE      CODE     ---       #403
      00FF46C6H   LINE      CODE     ---       #410
      00FF46D2H   LINE      CODE     ---       #413
      00FF46F3H   LINE      CODE     ---       #414
      00FF4714H   LINE      CODE     ---       #416
      00FF4735H   LINE      CODE     ---       #417
      00FF4756H   LINE      CODE     ---       #420
      00FF476AH   LINE      CODE     ---       #423
      00FF47A1H   LINE      CODE     ---       #424
      00FF47B5H   LINE      CODE     ---       #429
      00FF47CAH   LINE      CODE     ---       #430
      00FF47EDH   LINE      CODE     ---       #431
      00FF4802H   LINE      CODE     ---       #432
      00FF4810H   LINE      CODE     ---       #434
      00FF4856H   LINE      CODE     ---       #438
      00FF486BH   LINE      CODE     ---       #439
      00FF488EH   LINE      CODE     ---       #440
      00FF48A3H   LINE      CODE     ---       #441
      00FF48B1H   LINE      CODE     ---       #443
      00FF48F7H   LINE      CODE     ---       #448
      00FF490CH   LINE      CODE     ---       #451
      00FF49C9H   LINE      CODE     ---       #456
      00FF49CFH   LINE      CODE     ---       #457
L251 LINKER/LOCATER V4.66.93.0                                                        06/23/2025  18:43:06  PAGE 109


      00FF49D2H   LINE      CODE     ---       #467
      00FF4A5DH   LINE      CODE     ---       #470
      00FF4A63H   LINE      CODE     ---       #471
      00FF4A66H   LINE      CODE     ---       #473
      00FF4A72H   LINE      CODE     ---       #475
      00FF4A9CH   LINE      CODE     ---       #477
      00FF4AA2H   LINE      CODE     ---       #478
      00FF4AA4H   LINE      CODE     ---       #479
      00FF4ACEH   LINE      CODE     ---       #481
      00FF4AD4H   LINE      CODE     ---       #482
      00FF4AD4H   LINE      CODE     ---       #484
      00FF4AE0H   LINE      CODE     ---       #487
      00FF4B10H   LINE      CODE     ---       #489
      00FF4B15H   LINE      CODE     ---       #490
      00FF4B1AH   LINE      CODE     ---       #491
      00FF4B1AH   LINE      CODE     ---       #503
      00FF4B1DH   LINE      CODE     ---       #504
      00FF4B29H   LINE      CODE     ---       #507
      00FF4BD4H   LINE      CODE     ---       #511
      00FF4BD9H   LINE      CODE     ---       #512
      00FF4BDEH   LINE      CODE     ---       #513
      00FF4BE4H   LINE      CODE     ---       #514
      00FF4BE7H   LINE      CODE     ---       #516
      00FF4BF3H   LINE      CODE     ---       #518
      00FF4C26H   LINE      CODE     ---       #521
      00FF4C2CH   LINE      CODE     ---       #522
      00FF4C32H   LINE      CODE     ---       #523
      00FF4C32H   LINE      CODE     ---       #530
      00FF4C8FH   LINE      CODE     ---       #533
      00FF4C95H   LINE      CODE     ---       #535
      00FF4C95H   LINE      CODE     ---       #548
      00FF4CAFH   LINE      CODE     ---       #550
      00FF4CAFH   LINE      CODE     ---       #552
      00FF4CC3H   LINE      CODE     ---       #554
      00FF4CD7H   LINE      CODE     ---       #555
      00FF4CEBH   LINE      CODE     ---       #556
      00FF4CF7H   LINE      CODE     ---       #557
      00FF4CFAH   LINE      CODE     ---       #559
      00FF4CFAH   LINE      CODE     ---       #561
      00FF4D0EH   LINE      CODE     ---       #563
      00FF4D22H   LINE      CODE     ---       #564
      00FF4D36H   LINE      CODE     ---       #565
      00FF4D42H   LINE      CODE     ---       #566
      00FF4D45H   LINE      CODE     ---       #568
      00FF4D45H   LINE      CODE     ---       #570
      00FF4D59H   LINE      CODE     ---       #572
      00FF4D6DH   LINE      CODE     ---       #573
      00FF4D81H   LINE      CODE     ---       #574
      00FF4D8DH   LINE      CODE     ---       #575
      00FF4D90H   LINE      CODE     ---       #577
      00FF4D90H   LINE      CODE     ---       #579
      00FF4DA4H   LINE      CODE     ---       #581
      00FF4DB8H   LINE      CODE     ---       #582
      00FF4DCCH   LINE      CODE     ---       #583
      00FF4DD8H   LINE      CODE     ---       #584
      00FF4DDAH   LINE      CODE     ---       #585
      00FF4DDAH   LINE      CODE     ---       #587
      00FF4DEEH   LINE      CODE     ---       #589
      00FF4E02H   LINE      CODE     ---       #590
      00FF4E16H   LINE      CODE     ---       #591
      00FF4E22H   LINE      CODE     ---       #592
      00FF4E22H   LINE      CODE     ---       #593
      00FF4E22H   LINE      CODE     ---       #596
      00FF4E61H   LINE      CODE     ---       #603
      00FF4E6AH   LINE      CODE     ---       #604
L251 LINKER/LOCATER V4.66.93.0                                                        06/23/2025  18:43:06  PAGE 110


      00FF4E6AH   LINE      CODE     ---       #607
      00FF4E7FH   LINE      CODE     ---       #609
      00FF4EAEH   LINE      CODE     ---       #610
      00FF4EAEH   LINE      CODE     ---       #613
      00FF4EF5H   LINE      CODE     ---       #617
      00FF4F21H   LINE      CODE     ---       #620
      00FF4F39H   LINE      CODE     ---       #621
      00FF4F51H   LINE      CODE     ---       #624
      00FF4F65H   LINE      CODE     ---       #625
      00FF4F75H   LINE      CODE     ---       #626
      00FF4F8BH   LINE      CODE     ---       #627
      00FF4F9FH   LINE      CODE     ---       #628
      00FF4FB3H   LINE      CODE     ---       #631
      00FF5004H   LINE      CODE     ---       #634
      00FF5019H   LINE      CODE     ---       #636
      00FF503CH   LINE      CODE     ---       #637
      00FF503CH   LINE      CODE     ---       #662
      00FF5048H   LINE      CODE     ---       #663
      00FF5054H   LINE      CODE     ---       #664
      00FF5060H   LINE      CODE     ---       #666
      00FF5066H   LINE      CODE     ---       #667
      ---         BLOCKEND  ---      ---       LVL=0

      00FF99B1H   BLOCK     CODE     ---       LVL=0
      00010F52H   SYMBOL    XDATA    BYTE      is_out_of_track
      00010F53H   SYMBOL    XDATA    WORD      sum_value
      00010F55H   SYMBOL    XDATA    WORD      threshold
      0001043EH   SYMBOL    XDATA    BYTE      out_of_track_count
      0001043FH   SYMBOL    XDATA    BYTE      in_track_count
      00010440H   SYMBOL    XDATA    BYTE      protection_triggered
      00010F57H   SYMBOL    XDATA    BYTE      i
      00010F58H   SYMBOL    XDATA    BYTE      trigger_reason
      00FF99B1H   LINE      CODE     ---       #678
      00FF99B1H   LINE      CODE     ---       #679
      00FF99B1H   LINE      CODE     ---       #681
      00FF99B6H   LINE      CODE     ---       #682
      00FF99BEH   LINE      CODE     ---       #683
      00FF99C8H   LINE      CODE     ---       #688
      00FF99CDH   LINE      CODE     ---       #690
      00FF99D9H   LINE      CODE     ---       #693
      00FF99E0H   LINE      CODE     ---       #695
      00FF9A13H   LINE      CODE     ---       #696
      00FF9A2AH   LINE      CODE     ---       #700
      00FF9A3AH   LINE      CODE     ---       #702
      00FF9A40H   LINE      CODE     ---       #703
      00FF9A46H   LINE      CODE     ---       #704
      00FF9A46H   LINE      CODE     ---       #707
      00FF9AAFH   LINE      CODE     ---       #711
      00FF9AB5H   LINE      CODE     ---       #712
      00FF9ABBH   LINE      CODE     ---       #713
      00FF9ABBH   LINE      CODE     ---       #716
      00FF9AD7H   LINE      CODE     ---       #719
      00FF9AE9H   LINE      CODE     ---       #721
      00FF9AEFH   LINE      CODE     ---       #722
      00FF9AF5H   LINE      CODE     ---       #723
      00FF9AF5H   LINE      CODE     ---       #727
      00FF9AFEH   LINE      CODE     ---       #729
      00FF9B09H   LINE      CODE     ---       #730
      00FF9B0EH   LINE      CODE     ---       #732
      00FF9B23H   LINE      CODE     ---       #734
      00FF9B29H   LINE      CODE     ---       #738
      00FF9B29H   LINE      CODE     ---       #759
      00FF9B2FH   LINE      CODE     ---       #760
      00FF9B2FH   LINE      CODE     ---       #761
      00FF9B30H   LINE      CODE     ---       #762
L251 LINKER/LOCATER V4.66.93.0                                                        06/23/2025  18:43:06  PAGE 111


      ---         BLOCKEND  ---      ---       LVL=0

      00FF8D41H   BLOCK     CODE     ---       LVL=0
      00FF8D41H   LINE      CODE     ---       #767
      00FF8D41H   LINE      CODE     ---       #771
      00FF8D50H   LINE      CODE     ---       #772
      00FF8D6EH   LINE      CODE     ---       #773
      00FF8D7DH   LINE      CODE     ---       #774
      00FF8DAAH   LINE      CODE     ---       #776
      00FF8DBAH   LINE      CODE     ---       #777
      00FF8DD9H   LINE      CODE     ---       #778
      00FF8DE9H   LINE      CODE     ---       #779
      00FF8E18H   LINE      CODE     ---       #781
      00FF8E28H   LINE      CODE     ---       #782
      00FF8E47H   LINE      CODE     ---       #783
      00FF8E57H   LINE      CODE     ---       #784
      00FF8E86H   LINE      CODE     ---       #786
      00FF8E96H   LINE      CODE     ---       #787
      00FF8EB5H   LINE      CODE     ---       #788
      00FF8EC5H   LINE      CODE     ---       #789
      00FF8EF4H   LINE      CODE     ---       #791
      00FF8F04H   LINE      CODE     ---       #792
      00FF8F23H   LINE      CODE     ---       #793
      00FF8F33H   LINE      CODE     ---       #794
      00FF8F62H   LINE      CODE     ---       #804
      ---         BLOCKEND  ---      ---       LVL=0

      ---         MODULE    ---      ---       Filtering
      00FFA441H   PUBLIC    CODE     ---       Kalman_Predict
      00FFABD1H   PUBLIC    CODE     ---       LowPass_Filter
      00FF9F3AH   PUBLIC    CODE     ---       Kalman_Update
      00FFAA49H   PUBLIC    CODE     ---       Kalman_Init
      00FFB30BH   PUBLIC    CODE     ---       LowPass_init
      00010889H   PUBLIC    XDATA    ---       imu693_kf
      000108A5H   PUBLIC    XDATA    ---       rightSpeedFilt
      000108B1H   PUBLIC    XDATA    ---       leftSpeedFilt
      00FFC020H   PUBLIC    HCONST   FLOAT     imu693kf_Q
      00FFC024H   PUBLIC    HCONST   FLOAT     imu693kf_R
      00010B68H   PUBLIC    XDATA    BYTE      ?Kalman_Init?BYTE
      000000D0H   SFRSYM    DATA     BYTE      PSW
      0000009DH   SFRSYM    DATA     BYTE      IRCBAND
      00000097H   SFRSYM    DATA     BYTE      AUXR2
      000000EFH   SFRSYM    DATA     BYTE      AUXINTIF
      000000FDH   SFRSYM    DATA     BYTE      S4CON
      000000ACH   SFRSYM    DATA     BYTE      S3CON
      0000009AH   SFRSYM    DATA     BYTE      S2CON
      000000B7H   SFRSYM    DATA     BYTE      IPH
      000000CDH   SFRSYM    DATA     BYTE      SPSTAT
      000000DDH   SFRSYM    DATA     BYTE      T4T3M
      000000C1H   SFRSYM    DATA     BYTE      WDT_CONTR
      000000DFH   SFRSYM    DATA     BYTE      IP3
      000000F4H   SFRSYM    DATA     BYTE      USBCON
      000000B5H   SFRSYM    DATA     BYTE      IP2
      000000FFH   SFRSYM    DATA     BYTE      RSTCFG
      000000F9H   SFRSYM    DATA     BYTE      LINICR
      0000008EH   SFRSYM    DATA     BYTE      AUXR
      000000AFH   SFRSYM    DATA     BYTE      IE2
      00000088H   SFRSYM    DATA     BYTE      TCON
      00000098H   SFRSYM    DATA     BYTE      SCON
      000000F1H   SFRSYM    DATA     BYTE      CANICR
      00000087H   SFRSYM    DATA     BYTE      PCON
      000000BCH   SFRSYM    DATA     BYTE      ADC_CONTR
      000000E7H   SFRSYM    DATA     BYTE      CMPCR2
      000000E6H   SFRSYM    DATA     BYTE      CMPCR1
      000000B8H   SFRSYM    DATA     BYTE      IP
L251 LINKER/LOCATER V4.66.93.0                                                        06/23/2025  18:43:06  PAGE 112


      0000008FH   SFRSYM    DATA     BYTE      INTCLKO
      000000EEH   SFRSYM    DATA     BYTE      IP3H
      000000B6H   SFRSYM    DATA     BYTE      IP2H
      000000A8H   SFRSYM    DATA     BYTE      IE
      000000BBH   SFRSYM    DATA     BYTE      P_SW3
      000000BAH   SFRSYM    DATA     BYTE      P_SW2
      000000A2H   SFRSYM    DATA     BYTE      P_SW1
      000000CEH   SFRSYM    DATA     BYTE      SPCTL
      000000F8H   SFRSYM    DATA     BYTE      P7
      000000E8H   SFRSYM    DATA     BYTE      P6
      000000C8H   SFRSYM    DATA     BYTE      P5
      000000C0H   SFRSYM    DATA     BYTE      P4
      000000B0H   SFRSYM    DATA     BYTE      P3
      000000A0H   SFRSYM    DATA     BYTE      P2
      00000090H   SFRSYM    DATA     BYTE      P1
      00000080H   SFRSYM    DATA     BYTE      P0

      00FFAA49H   BLOCK     CODE     ---       LVL=0
      00010B68H   SYMBOL    XDATA    ---       kf
      00010B6CH   SYMBOL    XDATA    FLOAT     F
      00010B70H   SYMBOL    XDATA    FLOAT     B
      00010B74H   SYMBOL    XDATA    FLOAT     Q
      00010B78H   SYMBOL    XDATA    FLOAT     R
      00010B7CH   SYMBOL    XDATA    FLOAT     initial_x
      00FFAA49H   LINE      CODE     ---       #13
      00FFAA5DH   LINE      CODE     ---       #15
      00FFAA78H   LINE      CODE     ---       #16
      00FFAA95H   LINE      CODE     ---       #17
      00FFAAB4H   LINE      CODE     ---       #18
      00FFAAD3H   LINE      CODE     ---       #19
      00FFAAEEH   LINE      CODE     ---       #20
      00FFAB0DH   LINE      CODE     ---       #21
      ---         BLOCKEND  ---      ---       LVL=0

      00FFA441H   BLOCK     CODE     ---       LVL=0
      00010F1DH   SYMBOL    XDATA    ---       kf
      00010F21H   SYMBOL    XDATA    FLOAT     u
      00FFA441H   LINE      CODE     ---       #23
      00FFA455H   LINE      CODE     ---       #25
      00FFA4BEH   LINE      CODE     ---       #26
      00FFA52AH   LINE      CODE     ---       #27
      ---         BLOCKEND  ---      ---       LVL=0

      00FF9F3AH   BLOCK     CODE     ---       LVL=0
      00010F25H   SYMBOL    XDATA    ---       kf
      00010F29H   SYMBOL    XDATA    FLOAT     z
      00FF9F3AH   LINE      CODE     ---       #29
      00FF9F4EH   LINE      CODE     ---       #31
      00FF9FACH   LINE      CODE     ---       #32
      00FFA009H   LINE      CODE     ---       #33
      00FFA048H   LINE      CODE     ---       #34
      00FFA05DH   LINE      CODE     ---       #35
      ---         BLOCKEND  ---      ---       LVL=0

      00FFB30BH   BLOCK     CODE     ---       LVL=0
      00010F2DH   SYMBOL    XDATA    ---       instance
      00010F31H   SYMBOL    XDATA    FLOAT     alpha
      00FFB30BH   LINE      CODE     ---       #37
      00FFB31FH   LINE      CODE     ---       #39
      00FFB33AH   LINE      CODE     ---       #40
      00FFB34FH   LINE      CODE     ---       #41
      00FFB366H   LINE      CODE     ---       #42
      ---         BLOCKEND  ---      ---       LVL=0

      00FFABD1H   BLOCK     CODE     ---       LVL=0
L251 LINKER/LOCATER V4.66.93.0                                                        06/23/2025  18:43:06  PAGE 113


      00010F35H   SYMBOL    XDATA    ---       instance
      00010F39H   SYMBOL    XDATA    FLOAT     input
      00FFABD1H   LINE      CODE     ---       #44
      00FFABE5H   LINE      CODE     ---       #47
      00FFAC51H   LINE      CODE     ---       #50
      00FFAC79H   LINE      CODE     ---       #52
      00FFAC8CH   LINE      CODE     ---       #53
      ---         BLOCKEND  ---      ---       LVL=0

      ---         MODULE    ---      ---       seekfree_assistant
      000101D8H   PUBLIC    XDATA    ---       seekfree_assistant_oscilloscope_data
      00010213H   PUBLIC    XDATA    ---       seekfree_assistant_parameter_update_flag
      0001021BH   PUBLIC    XDATA    ---       seekfree_assistant_parameter
      00010CACH   PUBLIC    XDATA    BYTE      ?seekfree_assistant_camera_data_send?BYTE
      00010E0DH   PUBLIC    XDATA    BYTE      ?seekfree_assistant_camera_information_config?BYTE
      00010A27H   PUBLIC    XDATA    BYTE      ?seekfree_assistant_camera_boundary_config?BYTE
      000000D0H   SFRSYM    DATA     BYTE      PSW
      0000009DH   SFRSYM    DATA     BYTE      IRCBAND
      00000097H   SFRSYM    DATA     BYTE      AUXR2
      000000EFH   SFRSYM    DATA     BYTE      AUXINTIF
      000000FDH   SFRSYM    DATA     BYTE      S4CON
      000000ACH   SFRSYM    DATA     BYTE      S3CON
      0000009AH   SFRSYM    DATA     BYTE      S2CON
      000000B7H   SFRSYM    DATA     BYTE      IPH
      000000CDH   SFRSYM    DATA     BYTE      SPSTAT
      000000DDH   SFRSYM    DATA     BYTE      T4T3M
      000000C1H   SFRSYM    DATA     BYTE      WDT_CONTR
      000000DFH   SFRSYM    DATA     BYTE      IP3
      000000F4H   SFRSYM    DATA     BYTE      USBCON
      000000B5H   SFRSYM    DATA     BYTE      IP2
      000000FFH   SFRSYM    DATA     BYTE      RSTCFG
      000000F9H   SFRSYM    DATA     BYTE      LINICR
      0000008EH   SFRSYM    DATA     BYTE      AUXR
      000000AFH   SFRSYM    DATA     BYTE      IE2
      00000088H   SFRSYM    DATA     BYTE      TCON
      00000098H   SFRSYM    DATA     BYTE      SCON
      000000F1H   SFRSYM    DATA     BYTE      CANICR
      00000087H   SFRSYM    DATA     BYTE      PCON
      000000BCH   SFRSYM    DATA     BYTE      ADC_CONTR
      000000E7H   SFRSYM    DATA     BYTE      CMPCR2
      000000E6H   SFRSYM    DATA     BYTE      CMPCR1
      000000B8H   SFRSYM    DATA     BYTE      IP
      0000008FH   SFRSYM    DATA     BYTE      INTCLKO
      000000EEH   SFRSYM    DATA     BYTE      IP3H
      000000B6H   SFRSYM    DATA     BYTE      IP2H
      000000A8H   SFRSYM    DATA     BYTE      IE
      000000BBH   SFRSYM    DATA     BYTE      P_SW3
      000000BAH   SFRSYM    DATA     BYTE      P_SW2
      000000A2H   SFRSYM    DATA     BYTE      P_SW1
      000000CEH   SFRSYM    DATA     BYTE      SPCTL
      000000F8H   SFRSYM    DATA     BYTE      P7
      000000E8H   SFRSYM    DATA     BYTE      P6
      000000C8H   SFRSYM    DATA     BYTE      P5
      000000C0H   SFRSYM    DATA     BYTE      P4
      000000B0H   SFRSYM    DATA     BYTE      P3
      000000A0H   SFRSYM    DATA     BYTE      P2
      00000090H   SFRSYM    DATA     BYTE      P1
      00000080H   SFRSYM    DATA     BYTE      P0
      000101D0H   SYMBOL    XDATA    ---       seekfree_assistant_camera_dot_data
      000101FCH   SYMBOL    XDATA    ---       seekfree_assistant_fifo
      0001023BH   SYMBOL    XDATA    ---       seekfree_assistant_camera_buffer
      00010285H   SYMBOL    XDATA    ---       seekfree_assistant_camera_data
      0001028DH   SYMBOL    XDATA    ---       seekfree_assistant_buffer
      00010E8CH   SYMBOL    XDATA    ---       buffer
      00010E90H   SYMBOL    XDATA    DWORD     length
L251 LINKER/LOCATER V4.66.93.0                                                        06/23/2025  18:43:06  PAGE 114


      00010E94H   SYMBOL    XDATA    BYTE      temp_sum
      00010CACH   SYMBOL    XDATA    INT       camera_type
      00010CAEH   SYMBOL    XDATA    ---       image_addr
      00010CB2H   SYMBOL    XDATA    BYTE      boundary_num
      00010CB3H   SYMBOL    XDATA    WORD      width
      00010CB5H   SYMBOL    XDATA    WORD      height
      00010CB7H   SYMBOL    XDATA    DWORD     image_size
      00010E0DH   SYMBOL    XDATA    INT       camera_type
      00010E0FH   SYMBOL    XDATA    ---       image_addr
      00010E13H   SYMBOL    XDATA    WORD      width
      00010E15H   SYMBOL    XDATA    WORD      height
      0001096EH   SYMBOL    XDATA    ---       seekfree_assistant_oscilloscope
      00010972H   SYMBOL    XDATA    BYTE      packet_size
      00010973H   SYMBOL    XDATA    BYTE      i
      00010974H   SYMBOL    XDATA    ---       temp_oscilloscope
      00010F59H   SYMBOL    XDATA    ---       buffer
      00010F5DH   SYMBOL    XDATA    BYTE      i
      00010F5EH   SYMBOL    XDATA    WORD      dot_bytes
      00010A27H   SYMBOL    XDATA    INT       boundary_type
      00010A29H   SYMBOL    XDATA    WORD      dot_num
      00010A2BH   SYMBOL    XDATA    ---       dot_x1
      00010A2FH   SYMBOL    XDATA    ---       dot_x2
      00010A33H   SYMBOL    XDATA    ---       dot_x3
      00010A37H   SYMBOL    XDATA    ---       dot_y1
      00010A3BH   SYMBOL    XDATA    ---       dot_y2
      00010A3FH   SYMBOL    XDATA    ---       dot_y3
      00010A43H   SYMBOL    XDATA    BYTE      i
      00010A44H   SYMBOL    XDATA    BYTE      boundary_num
      00010A45H   SYMBOL    XDATA    BYTE      boundary_data_type
      000105E6H   SYMBOL    XDATA    BYTE      temp_sum
      000105E7H   SYMBOL    XDATA    DWORD     read_length
      000105EBH   SYMBOL    XDATA    ---       receive_packet
      000105EFH   SYMBOL    XDATA    ---       temp_buffer
      0001066FH   SYMBOL    XDATA    DWORD     i

      ---         MODULE    ---      ---       seekfree_assistant_inface
      00011085H   PUBLIC    XDATA    ---       seekfree_assistant_receive
      00011087H   PUBLIC    XDATA    ---       seekfree_assistant_transfer
      000000D0H   SFRSYM    DATA     BYTE      PSW
      0000009DH   SFRSYM    DATA     BYTE      IRCBAND
      00000097H   SFRSYM    DATA     BYTE      AUXR2
      000000EFH   SFRSYM    DATA     BYTE      AUXINTIF
      000000FDH   SFRSYM    DATA     BYTE      S4CON
      000000ACH   SFRSYM    DATA     BYTE      S3CON
      0000009AH   SFRSYM    DATA     BYTE      S2CON
      000000B7H   SFRSYM    DATA     BYTE      IPH
      000000CDH   SFRSYM    DATA     BYTE      SPSTAT
      000000DDH   SFRSYM    DATA     BYTE      T4T3M
      000000C1H   SFRSYM    DATA     BYTE      WDT_CONTR
      000000DFH   SFRSYM    DATA     BYTE      IP3
      000000F4H   SFRSYM    DATA     BYTE      USBCON
      000000B5H   SFRSYM    DATA     BYTE      IP2
      000000FFH   SFRSYM    DATA     BYTE      RSTCFG
      000000F9H   SFRSYM    DATA     BYTE      LINICR
      0000008EH   SFRSYM    DATA     BYTE      AUXR
      000000AFH   SFRSYM    DATA     BYTE      IE2
      00000088H   SFRSYM    DATA     BYTE      TCON
      00000098H   SFRSYM    DATA     BYTE      SCON
      000000F1H   SFRSYM    DATA     BYTE      CANICR
      00000087H   SFRSYM    DATA     BYTE      PCON
      000000BCH   SFRSYM    DATA     BYTE      ADC_CONTR
      000000E7H   SFRSYM    DATA     BYTE      CMPCR2
      000000E6H   SFRSYM    DATA     BYTE      CMPCR1
      000000B8H   SFRSYM    DATA     BYTE      IP
      0000008FH   SFRSYM    DATA     BYTE      INTCLKO
L251 LINKER/LOCATER V4.66.93.0                                                        06/23/2025  18:43:06  PAGE 115


      000000EEH   SFRSYM    DATA     BYTE      IP3H
      000000B6H   SFRSYM    DATA     BYTE      IP2H
      000000A8H   SFRSYM    DATA     BYTE      IE
      000000BBH   SFRSYM    DATA     BYTE      P_SW3
      000000BAH   SFRSYM    DATA     BYTE      P_SW2
      000000A2H   SFRSYM    DATA     BYTE      P_SW1
      000000CEH   SFRSYM    DATA     BYTE      SPCTL
      000000F8H   SFRSYM    DATA     BYTE      P7
      000000E8H   SFRSYM    DATA     BYTE      P6
      000000C8H   SFRSYM    DATA     BYTE      P5
      000000C0H   SFRSYM    DATA     BYTE      P4
      000000B0H   SFRSYM    DATA     BYTE      P3
      000000A0H   SFRSYM    DATA     BYTE      P2
      00000090H   SFRSYM    DATA     BYTE      P1
      00000080H   SFRSYM    DATA     BYTE      P0

      ---         MODULE    ---      ---       SEEKFREE_CONFIG
      00FF00A6H   PUBLIC    CODE     ---       dl1b_default_configuration
      00FF012DH   PUBLIC    CODE     ---       imu660ra_config_file

      ---         MODULE    ---      ---       ?C?DPADD
      00FF2134H   PUBLIC    CODE     ---       ?C?DPADD
      00FF2130H   PUBLIC    CODE     ---       ?C?DPSUB

      ---         MODULE    ---      ---       ?C?DPMUL
      00FF2243H   PUBLIC    CODE     ---       ?C?DPMUL

      ---         MODULE    ---      ---       ?C?DPDIV
      00FF2353H   PUBLIC    CODE     ---       ?C?DPDIV

      ---         MODULE    ---      ---       ?C?DPCMP
      00FF23F4H   PUBLIC    CODE     ---       ?C?DPCMP
      00FF23F2H   PUBLIC    CODE     ---       ?C?DPCMP3

      ---         MODULE    ---      ---       ?C?DPNEG
      00FF2453H   PUBLIC    CODE     ---       ?C?DPNEG

      ---         MODULE    ---      ---       ?C?DCAST
      00FF246BH   PUBLIC    CODE     NEAR LAB  ?C?DCASTC
      00FF2466H   PUBLIC    CODE     NEAR LAB  ?C?DCASTI
      00FF2461H   PUBLIC    CODE     NEAR LAB  ?C?DCASTL

      ---         MODULE    ---      ---       ?C?CASTD
      00FF24AEH   PUBLIC    CODE     NEAR LAB  ?C?CASTD

      ---         MODULE    ---      ---       ?C?DCASTF
      00FF250EH   PUBLIC    CODE     NEAR LAB  ?C?DCASTF

      ---         MODULE    ---      ---       ?C?FCASTD
      00FF2550H   PUBLIC    CODE     NEAR LAB  ?C?FCASTD

      ---         MODULE    ---      ---       PRINTF
      00FF2587H   PUBLIC    CODE     NEAR LAB  PRINTF

      ---         MODULE    ---      ---       SQRT?_
      00FF25B9H   PUBLIC    CODE     ---       SQRT?_

      ---         MODULE    ---      ---       pow

      ---         MODULE    ---      ---       SIN?_
      00FF2707H   PUBLIC    CODE     ---       COS?_
      00FF2728H   PUBLIC    CODE     ---       SIN?_
      00FF275DH   PUBLIC    CODE     ---       TAN?_

      ---         MODULE    ---      ---       ATAN?_
L251 LINKER/LOCATER V4.66.93.0                                                        06/23/2025  18:43:06  PAGE 116


      00FF289FH   PUBLIC    CODE     ---       ATAN?_

      ---         MODULE    ---      ---       ASIN?_
      00FF29BAH   PUBLIC    CODE     ---       ASIN?_

      ---         MODULE    ---      ---       ?C?DPGETOPN
      00FF29E4H   PUBLIC    CODE     ---       ?C?DPGETOPN2
      00FF2A2FH   PUBLIC    CODE     ---       ?C?DPNANRESULT
      00FF2A3BH   PUBLIC    CODE     ---       ?C?DPOVERFLOW
      00FF2A07H   PUBLIC    CODE     ---       ?C?DPRESULT
      00FF2A20H   PUBLIC    CODE     ---       ?C?DPRESULT2
      00FF2A36H   PUBLIC    CODE     ---       ?C?DPUNDERFLOW

      ---         MODULE    ---      ---       _CHKDOUBLE_?_
      00FF2A49H   PUBLIC    CODE     ---       _CHKDOUBLE_?_

      ---         MODULE    ---      ---       ?C?PRNFMT
      00FF2A94H   PUBLIC    CODE     ---       ?C?PRNFMT

      ---         MODULE    ---      ---       ?C?DPSERIES
      00FF2EC2H   PUBLIC    CODE     ---       ?C?DP2SERIES
      00FF2ECDH   PUBLIC    CODE     ---       ?C?DPSERIES

      ---         MODULE    ---      ---       EXP?_
      00FF2FA9H   PUBLIC    CODE     ---       EXP?_

      ---         MODULE    ---      ---       LOG?_
      00FF3092H   PUBLIC    CODE     NEAR LAB  LOG?_

      ---         MODULE    ---      ---       ?C?DPCONVERT
      00FF31ADH   PUBLIC    CODE     ---       ?C?DPCONVERT
      00FF32D4H   PUBLIC    CODE     ---       ?C?DPROUND

      ---         MODULE    ---      ---       ?C?DTNPWR
      00FF33AFH   PUBLIC    CODE     ---       ?C?DTNPWR

      ---         MODULE    ---      ---       ?C?FPGETOPN
      00FF3435H   PUBLIC    CODE     ---       ?C?FPGETOPN2
      00FF3472H   PUBLIC    CODE     ---       ?C?FPNANRESULT
      00FF347AH   PUBLIC    CODE     ---       ?C?FPOVERFLOW
      00FF344EH   PUBLIC    CODE     ---       ?C?FPRESULT
      00FF3464H   PUBLIC    CODE     ---       ?C?FPRESULT2
      00FF3477H   PUBLIC    CODE     ---       ?C?FPUNDERFLOW

      ---         MODULE    ---      ---       ?C?FPADD
      00FF348CH   PUBLIC    CODE     ---       ?C?FPADD
      00FF3489H   PUBLIC    CODE     ---       ?C?FPSUB

      ---         MODULE    ---      ---       ?C?FPMUL
      00FF3544H   PUBLIC    CODE     ---       ?C?FPMUL

      ---         MODULE    ---      ---       ?C?FPDIV
      00FF35E4H   PUBLIC    CODE     ---       ?C?FPDIV

      ---         MODULE    ---      ---       ?C?FPCMP
      00FF3667H   PUBLIC    CODE     ---       ?C?FPCMP
      00FF3665H   PUBLIC    CODE     ---       ?C?FPCMP3

      ---         MODULE    ---      ---       ?C?FPNEG
      00FF36ABH   PUBLIC    CODE     ---       ?C?FPNEG

      ---         MODULE    ---      ---       ?C?FCAST
      00FF36C3H   PUBLIC    CODE     NEAR LAB  ?C?FCASTC
      00FF36BEH   PUBLIC    CODE     NEAR LAB  ?C?FCASTI
      00FF36B9H   PUBLIC    CODE     NEAR LAB  ?C?FCASTL
L251 LINKER/LOCATER V4.66.93.0                                                        06/23/2025  18:43:06  PAGE 117



      ---         MODULE    ---      ---       ?C?CASTF
      00FF36F6H   PUBLIC    CODE     NEAR LAB  ?C?CASTF

      ---         MODULE    ---      ---       ?C?INITHDATA
      00FFB21EH   PUBLIC    CODE     ---       ?C?INITHDATA

      ---         MODULE    ---      ---       ?C?SIDIV
      00FF3733H   PUBLIC    CODE     ---       ?C?SIDIV

      ---         MODULE    ---      ---       ?C?LIMUL
      00FF3765H   PUBLIC    CODE     ---       ?C?LIMUL

      ---         MODULE    ---      ---       ?C?ULDIV
      00FF3770H   PUBLIC    CODE     NEAR LAB  ?C?ULDIV
      00FF376EH   PUBLIC    CODE     NEAR LAB  ?C?ULIDIV

      ---         MODULE    ---      ---       ?C?SLDIV
      00FF37C1H   PUBLIC    CODE     NEAR LAB  ?C?SLDIV

      ---         MODULE    ---      ---       ?C?BMOVEPP
      00FF37F7H   PUBLIC    CODE     ---       ?C?BMOVEPP
      00FF37F5H   PUBLIC    CODE     ---       ?C?BMOVEPP8

      ---         MODULE    ---      ---       STRNCMP
      00FFB7BBH   PUBLIC    CODE     ---       strncmp?_

      ---         MODULE    ---      ---       STRNCPY

      ---         MODULE    ---      ---       STRLEN

      ---         MODULE    ---      ---       STRCHR

      ---         MODULE    ---      ---       memcpy
      00FFB893H   PUBLIC    CODE     ---       memcpy?_

      ---         MODULE    ---      ---       memset
      00FF0026H   PUBLIC    CODE     ---       memset?_

      ---         MODULE    ---      ---       ?C?INITHDATA_END
      00FFBDE3H   PUBLIC    HCONST   WORD      ?C?INITHDATA_END

Program Size: data=8.5 edata+hdata=3182 xdata=4381 const=1830 code=47318
L251 RUN COMPLETE.  0 WARNING(S),  0 ERROR(S)
